---
triple:          'arm64-apple-darwin'
binary-path:     './PikaCmd'
relocations:
  - { offsetInCU: 0x3182, offset: 0x3182, size: 0x8, addend: 0x0, symName: __ZN4Pika6escapeINSt3__112basic_stringIcNS1_11char_traitsIcEENS1_9allocatorIcEEEEEET_RKS8_, symObjAddr: 0x15F4, symBinAddr: 0x100005C00, symSize: 0x678 }
  - { offsetInCU: 0x31AD, offset: 0x31AD, size: 0x8, addend: 0x0, symName: __ZZN4Pika6escapeINSt3__112basic_stringIcNS1_11char_traitsIcEENS1_9allocatorIcEEEEEET_RKS8_E12ESCAPE_CHARS, symObjAddr: 0x740F1, symBinAddr: 0x1000624C0, symSize: 0x0 }
  - { offsetInCU: 0x31CF, offset: 0x31CF, size: 0x8, addend: 0x0, symName: __ZZN4Pika6escapeINSt3__112basic_stringIcNS1_11char_traitsIcEENS1_9allocatorIcEEEEEET_RKS8_E12ESCAPE_CODES, symObjAddr: 0x740FB, symBinAddr: 0x1000624CA, symSize: 0x0 }
  - { offsetInCU: 0x3269, offset: 0x3269, size: 0x8, addend: 0x0, symName: __ZN4Pika8unescapeINSt3__112basic_stringIcNS1_11char_traitsIcEENS1_9allocatorIcEEEEEET_RNS8_14const_iteratorERKS9_, symObjAddr: 0x79DC, symBinAddr: 0x10000BFE8, symSize: 0x890 }
  - { offsetInCU: 0x3294, offset: 0x3294, size: 0x8, addend: 0x0, symName: __ZZN4Pika8unescapeINSt3__112basic_stringIcNS1_11char_traitsIcEENS1_9allocatorIcEEEEEET_RNS8_14const_iteratorERKS9_E12ESCAPE_CHARS, symObjAddr: 0x74105, symBinAddr: 0x1000624D4, symSize: 0x0 }
  - { offsetInCU: 0x32B6, offset: 0x32B6, size: 0x8, addend: 0x0, symName: __ZZN4Pika8unescapeINSt3__112basic_stringIcNS1_11char_traitsIcEENS1_9allocatorIcEEEEEET_RNS8_14const_iteratorERKS9_E12ESCAPE_CODES, symObjAddr: 0x7410F, symBinAddr: 0x1000624DE, symSize: 0x0 }
  - { offsetInCU: 0x3335, offset: 0x3335, size: 0x8, addend: 0x0, symName: __ZN4Pika6escapeIN8QStrings7QStringIcLm52EEEEET_RKS4_, symObjAddr: 0x18E18, symBinAddr: 0x10001D424, symSize: 0x6DC }
  - { offsetInCU: 0x3360, offset: 0x3360, size: 0x8, addend: 0x0, symName: __ZZN4Pika6escapeIN8QStrings7QStringIcLm52EEEEET_RKS4_E12ESCAPE_CHARS, symObjAddr: 0x74AD8, symBinAddr: 0x100062EA7, symSize: 0x0 }
  - { offsetInCU: 0x3382, offset: 0x3382, size: 0x8, addend: 0x0, symName: __ZZN4Pika6escapeIN8QStrings7QStringIcLm52EEEEET_RKS4_E12ESCAPE_CODES, symObjAddr: 0x74AE2, symBinAddr: 0x100062EB1, symSize: 0x0 }
  - { offsetInCU: 0x63C8, offset: 0x63C8, size: 0x8, addend: 0x0, symName: __ZN4Pika8unescapeIN8QStrings7QStringIcLm52EEEEET_RNS4_14const_iteratorERKS5_, symObjAddr: 0x48AD4, symBinAddr: 0x10004D0E0, symSize: 0x988 }
  - { offsetInCU: 0x63F3, offset: 0x63F3, size: 0x8, addend: 0x0, symName: __ZZN4Pika8unescapeIN8QStrings7QStringIcLm52EEEEET_RNS4_14const_iteratorERKS5_E12ESCAPE_CHARS, symObjAddr: 0x74D8D, symBinAddr: 0x10006315C, symSize: 0x0 }
  - { offsetInCU: 0x6415, offset: 0x6415, size: 0x8, addend: 0x0, symName: __ZZN4Pika8unescapeIN8QStrings7QStringIcLm52EEEEET_RNS4_14const_iteratorERKS5_E12ESCAPE_CODES, symObjAddr: 0x74D97, symBinAddr: 0x100063166, symSize: 0x0 }
  - { offsetInCU: 0x6704, offset: 0x6704, size: 0x8, addend: 0x0, symName: __ZN4Pika12isSymbolCharIcEEbT_, symObjAddr: 0x151C, symBinAddr: 0x100005B28, symSize: 0xD8 }
  - { offsetInCU: 0x673B, offset: 0x673B, size: 0x8, addend: 0x0, symName: __ZN4Pika11intToStringINSt3__112basic_stringIcNS1_11char_traitsIcEENS1_9allocatorIcEEEElEET_T0_ii, symObjAddr: 0x293C, symBinAddr: 0x100006F48, symSize: 0x270 }
  - { offsetInCU: 0x67E5, offset: 0x67E5, size: 0x8, addend: 0x0, symName: __ZN4Pika10maybeWhiteIcEEbT_, symObjAddr: 0x7448, symBinAddr: 0x10000BA54, symSize: 0x9C }
  - { offsetInCU: 0x681C, offset: 0x681C, size: 0x8, addend: 0x0, symName: __ZN4Pika9hexToLongINSt3__112basic_stringIcNS1_11char_traitsIcEENS1_9allocatorIcEEEEEEmRNT_14const_iteratorERKS9_, symObjAddr: 0x8604, symBinAddr: 0x10000CC10, symSize: 0x1E0 }
  - { offsetInCU: 0x6871, offset: 0x6871, size: 0x8, addend: 0x0, symName: __ZN4Pika14stringToDoubleINSt3__112basic_stringIcNS1_11char_traitsIcEENS1_9allocatorIcEEEEEEdRNT_14const_iteratorERKS9_, symObjAddr: 0x882C, symBinAddr: 0x10000CE38, symSize: 0x4C4 }
  - { offsetInCU: 0x6910, offset: 0x6910, size: 0x8, addend: 0x0, symName: __ZN4Pika6moduloEdd, symObjAddr: 0xC9A8, symBinAddr: 0x100010FB4, symSize: 0x2C }
  - { offsetInCU: 0x694D, offset: 0x694D, size: 0x8, addend: 0x0, symName: __ZN4Pika6bitXorEmm, symObjAddr: 0xCD9C, symBinAddr: 0x1000113A8, symSize: 0x20 }
  - { offsetInCU: 0x698A, offset: 0x698A, size: 0x8, addend: 0x0, symName: __ZN4Pika9shiftLeftEmi, symObjAddr: 0xCF8C, symBinAddr: 0x100011598, symSize: 0x20 }
  - { offsetInCU: 0x69C7, offset: 0x69C7, size: 0x8, addend: 0x0, symName: __ZN4Pika10shiftRightEmi, symObjAddr: 0xD17C, symBinAddr: 0x100011788, symSize: 0x20 }
  - { offsetInCU: 0x6A04, offset: 0x6A04, size: 0x8, addend: 0x0, symName: __ZN4Pika6bitAndEmm, symObjAddr: 0xDCBC, symBinAddr: 0x1000122C8, symSize: 0x20 }
  - { offsetInCU: 0x6A41, offset: 0x6A41, size: 0x8, addend: 0x0, symName: __ZN4Pika5bitOrEmm, symObjAddr: 0xDCDC, symBinAddr: 0x1000122E8, symSize: 0x20 }
  - { offsetInCU: 0x6A7E, offset: 0x6A7E, size: 0x8, addend: 0x0, symName: __ZN4Pika4miniIlEET_S1_S1_, symObjAddr: 0xE378, symBinAddr: 0x100012984, symSize: 0x48 }
  - { offsetInCU: 0x6AC4, offset: 0x6AC4, size: 0x8, addend: 0x0, symName: __ZN4Pika4maxiIlEET_S1_S1_, symObjAddr: 0xE47C, symBinAddr: 0x100012A88, symSize: 0x48 }
  - { offsetInCU: 0x6B0A, offset: 0x6B0A, size: 0x8, addend: 0x0, symName: __ZN4Pika10ushortCharEc, symObjAddr: 0x10FD0, symBinAddr: 0x1000155DC, symSize: 0x14 }
  - { offsetInCU: 0x6B38, offset: 0x6B38, size: 0x8, addend: 0x0, symName: __ZN4Pika14doubleToStringINSt3__112basic_stringIcNS1_11char_traitsIcEENS1_9allocatorIcEEEEEET_di, symObjAddr: 0x10FE4, symBinAddr: 0x1000155F0, symSize: 0x7E4 }
  - { offsetInCU: 0x6C91, offset: 0x6C91, size: 0x8, addend: 0x0, symName: __ZN4Pika5xcoutIcEERNSt3__113basic_ostreamIT_NS1_11char_traitsIS3_EEEEv, symObjAddr: 0x127B4, symBinAddr: 0x100016DC0, symSize: 0xC }
  - { offsetInCU: 0x6CB9, offset: 0x6CB9, size: 0x8, addend: 0x0, symName: __ZN4Pika4xcinIcEERNSt3__113basic_istreamIT_NS1_11char_traitsIS3_EEEEv, symObjAddr: 0x127C0, symBinAddr: 0x100016DCC, symSize: 0xC }
  - { offsetInCU: 0x6CE1, offset: 0x6CE1, size: 0x8, addend: 0x0, symName: __ZN4Pika11toStdStringINSt3__112basic_stringIcNS1_11char_traitsIcEENS1_9allocatorIcEEEEEES7_RKT_, symObjAddr: 0x136A0, symBinAddr: 0x100017CAC, symSize: 0x38 }
  - { offsetInCU: 0x6D18, offset: 0x6D18, size: 0x8, addend: 0x0, symName: __ZN4Pika4miniIiEET_S1_S1_, symObjAddr: 0x1420C, symBinAddr: 0x100018818, symSize: 0x48 }
  - { offsetInCU: 0x6D5E, offset: 0x6D5E, size: 0x8, addend: 0x0, symName: __ZN4Pika4maxiIiEET_S1_S1_, symObjAddr: 0x14254, symBinAddr: 0x100018860, symSize: 0x48 }
  - { offsetInCU: 0x6DA4, offset: 0x6DA4, size: 0x8, addend: 0x0, symName: __ZN4Pika11intToStringINSt3__112basic_stringIcNS1_11char_traitsIcEENS1_9allocatorIcEEEEiEET_T0_ii, symObjAddr: 0x14920, symBinAddr: 0x100018F2C, symSize: 0x270 }
  - { offsetInCU: 0x6E4C, offset: 0x6E4C, size: 0x8, addend: 0x0, symName: __ZN4Pika11intToStringINSt3__112basic_stringIcNS1_11char_traitsIcEENS1_9allocatorIcEEEEmEET_T0_ii, symObjAddr: 0x14B90, symBinAddr: 0x10001919C, symSize: 0x240 }
  - { offsetInCU: 0x6EF6, offset: 0x6EF6, size: 0x8, addend: 0x0, symName: __ZN4Pika11toStdStringIN8QStrings7QStringIcLm52EEEEENSt3__112basic_stringIcNS4_11char_traitsIcEENS4_9allocatorIcEEEERKT_, symObjAddr: 0x18A40, symBinAddr: 0x10001D04C, symSize: 0x60 }
  - { offsetInCU: 0x6F2D, offset: 0x6F2D, size: 0x8, addend: 0x0, symName: __ZN4Pika11intToStringIN8QStrings7QStringIcLm52EEEiEET_T0_ii, symObjAddr: 0x1A818, symBinAddr: 0x10001EE24, symSize: 0x274 }
  - { offsetInCU: 0x6FD5, offset: 0x6FD5, size: 0x8, addend: 0x0, symName: __ZN4Pika11intToStringIN8QStrings7QStringIcLm52EEEmEET_T0_ii, symObjAddr: 0x238C4, symBinAddr: 0x100027ED0, symSize: 0x244 }
  - { offsetInCU: 0x707F, offset: 0x707F, size: 0x8, addend: 0x0, symName: __ZN4Pika11intToStringINSt3__112basic_stringIcNS1_11char_traitsIcEENS1_9allocatorIcEEEEhEET_T0_ii, symObjAddr: 0x247A4, symBinAddr: 0x100028DB0, symSize: 0x240 }
  - { offsetInCU: 0x7127, offset: 0x7127, size: 0x8, addend: 0x0, symName: __ZN4Pika9ulongCharEc, symObjAddr: 0x24A10, symBinAddr: 0x10002901C, symSize: 0x18 }
  - { offsetInCU: 0x7155, offset: 0x7155, size: 0x8, addend: 0x0, symName: __ZN4Pika11intToStringINSt3__112basic_stringIcNS1_11char_traitsIcEENS1_9allocatorIcEEEEtEET_T0_ii, symObjAddr: 0x24A28, symBinAddr: 0x100029034, symSize: 0x240 }
  - { offsetInCU: 0x71FD, offset: 0x71FD, size: 0x8, addend: 0x0, symName: __ZN4Pika12stringToLongINSt3__112basic_stringIcNS1_11char_traitsIcEENS1_9allocatorIcEEEEEElRNT_14const_iteratorERKS9_, symObjAddr: 0x27514, symBinAddr: 0x10002BB20, symSize: 0x210 }
  - { offsetInCU: 0x7261, offset: 0x7261, size: 0x8, addend: 0x0, symName: __ZN4Pika14stringToDoubleINS_8STLValueINSt3__112basic_stringIcNS2_11char_traitsIcEENS2_9allocatorIcEEEEEEEEbRKT_Rd, symObjAddr: 0x27724, symBinAddr: 0x10002BD30, symSize: 0x98 }
  - { offsetInCU: 0x72D4, offset: 0x72D4, size: 0x8, addend: 0x0, symName: __ZN4Pika14stringToDoubleINS_8STLValueINSt3__112basic_stringIcNS2_11char_traitsIcEENS2_9allocatorIcEEEEEEEEdRNT_14const_iteratorERKSB_, symObjAddr: 0x277BC, symBinAddr: 0x10002BDC8, symSize: 0x4C4 }
  - { offsetInCU: 0x7373, offset: 0x7373, size: 0x8, addend: 0x0, symName: __ZN4Pika12stringToLongINS_8STLValueINSt3__112basic_stringIcNS2_11char_traitsIcEENS2_9allocatorIcEEEEEEEElRNT_14const_iteratorERKSB_, symObjAddr: 0x27D14, symBinAddr: 0x10002C320, symSize: 0x210 }
  - { offsetInCU: 0x74A4, offset: 0x74A4, size: 0x8, addend: 0x0, symName: __ZN4Pika11intToStringIN8QStrings7QStringIcLm52EEEhEET_T0_ii, symObjAddr: 0x38058, symBinAddr: 0x10003C664, symSize: 0x244 }
  - { offsetInCU: 0x754C, offset: 0x754C, size: 0x8, addend: 0x0, symName: __ZN4Pika11intToStringIN8QStrings7QStringIcLm52EEEtEET_T0_ii, symObjAddr: 0x382CC, symBinAddr: 0x10003C8D8, symSize: 0x244 }
  - { offsetInCU: 0x761A, offset: 0x761A, size: 0x8, addend: 0x0, symName: __ZN4Pika14stringToDoubleINS_8STLValueIN8QStrings7QStringIcLm52EEEEEEEbRKT_Rd, symObjAddr: 0x3F814, symBinAddr: 0x100043E20, symSize: 0xA4 }
  - { offsetInCU: 0x768D, offset: 0x768D, size: 0x8, addend: 0x0, symName: __ZN4Pika14stringToDoubleINS_8STLValueIN8QStrings7QStringIcLm52EEEEEEEdRNT_14const_iteratorERKS7_, symObjAddr: 0x3F8B8, symBinAddr: 0x100043EC4, symSize: 0x4DC }
  - { offsetInCU: 0x772D, offset: 0x772D, size: 0x8, addend: 0x0, symName: __ZN4Pika12stringToLongINS_8STLValueIN8QStrings7QStringIcLm52EEEEEEElRNT_14const_iteratorERKS7_, symObjAddr: 0x3FE88, symBinAddr: 0x100044494, symSize: 0x214 }
  - { offsetInCU: 0x7791, offset: 0x7791, size: 0x8, addend: 0x0, symName: __ZN4Pika14doubleToStringIN8QStrings7QStringIcLm52EEEEET_di, symObjAddr: 0x40238, symBinAddr: 0x100044844, symSize: 0x7C0 }
  - { offsetInCU: 0x78E8, offset: 0x78E8, size: 0x8, addend: 0x0, symName: __ZN4Pika11intToStringIN8QStrings7QStringIcLm52EEElEET_T0_ii, symObjAddr: 0x409F8, symBinAddr: 0x100045004, symSize: 0x274 }
  - { offsetInCU: 0x79B8, offset: 0x79B8, size: 0x8, addend: 0x0, symName: __ZN4Pika9hexToLongIN8QStrings7QStringIcLm52EEEEEmRNT_14const_iteratorERKS5_, symObjAddr: 0x498B8, symBinAddr: 0x10004DEC4, symSize: 0x1E0 }
  - { offsetInCU: 0x7A0D, offset: 0x7A0D, size: 0x8, addend: 0x0, symName: __ZN4Pika14stringToDoubleIN8QStrings7QStringIcLm52EEEEEdRNT_14const_iteratorERKS5_, symObjAddr: 0x49ACC, symBinAddr: 0x10004E0D8, symSize: 0x4DC }
  - { offsetInCU: 0x7AAD, offset: 0x7AAD, size: 0x8, addend: 0x0, symName: __ZN4Pika12stringToLongIN8QStrings7QStringIcLm52EEEEElRNT_14const_iteratorERKS5_, symObjAddr: 0x4A02C, symBinAddr: 0x10004E638, symSize: 0x214 }
  - { offsetInCU: 0x1805D, offset: 0x1805D, size: 0x8, addend: 0x0, symName: __ZNSt3__16copy_nB8ue170006IPKcmPcEENS_9enable_ifIXsr37__has_random_access_iterator_categoryIT_EE5valueET1_E4typeES5_T0_S6_, symObjAddr: 0x2552C, symBinAddr: 0x100029B38, symSize: 0x44 }
  - { offsetInCU: 0x18621, offset: 0x18621, size: 0x8, addend: 0x0, symName: __ZNSt3__124__put_character_sequenceB8ue170006IcNS_11char_traitsIcEEEERNS_13basic_ostreamIT_T0_EES7_PKS4_m, symObjAddr: 0x30368, symBinAddr: 0x100034974, symSize: 0x1F4 }
  - { offsetInCU: 0x1EAB1, offset: 0x1EAB1, size: 0x8, addend: 0x0, symName: __ZNSt3__16fill_nB8ue170006IPcicEET_S2_T0_RKT1_, symObjAddr: 0x3AC, symBinAddr: 0x1000049B8, symSize: 0x44 }
  - { offsetInCU: 0x1EB14, offset: 0x1EB14, size: 0x8, addend: 0x0, symName: __ZNSt3__1plB8ue170006IcNS_11char_traitsIcEENS_9allocatorIcEEEENS_12basic_stringIT_T0_T1_EERKS9_SB_, symObjAddr: 0x2030, symBinAddr: 0x10000663C, symSize: 0x134 }
  - { offsetInCU: 0x1EBB5, offset: 0x1EBB5, size: 0x8, addend: 0x0, symName: __ZNSt3__1ltB8ue170006IPKcEEbRKNS_11__wrap_iterIT_EES7_, symObjAddr: 0x3178, symBinAddr: 0x100007784, symSize: 0x48 }
  - { offsetInCU: 0x1EBF8, offset: 0x1EBF8, size: 0x8, addend: 0x0, symName: __ZNSt3__1miB8ue170006IPKcS2_EENS_11__wrap_iterIT_E15difference_typeERKS5_RKNS3_IT0_EE, symObjAddr: 0x398C, symBinAddr: 0x100007F98, symSize: 0x40 }
  - { offsetInCU: 0x1EC44, offset: 0x1EC44, size: 0x8, addend: 0x0, symName: __ZNSt3__1leB8ue170006IPKcEEbRKNS_11__wrap_iterIT_EES7_, symObjAddr: 0x4374, symBinAddr: 0x100008980, symSize: 0x34 }
  - { offsetInCU: 0x1EC87, offset: 0x1EC87, size: 0x8, addend: 0x0, symName: __ZNSt3__1geB8ue170006IPKcEEbRKNS_11__wrap_iterIT_EES7_, symObjAddr: 0x6B34, symBinAddr: 0x10000B140, symSize: 0x34 }
  - { offsetInCU: 0x1ECCA, offset: 0x1ECCA, size: 0x8, addend: 0x0, symName: __ZNSt3__113find_first_ofB8ue170006INS_11__wrap_iterIPKcEES3_EET_S5_S5_T0_S6_, symObjAddr: 0x7374, symBinAddr: 0x10000B980, symSize: 0x58 }
  - { offsetInCU: 0x1ED32, offset: 0x1ED32, size: 0x8, addend: 0x0, symName: __ZNSt3__16searchB8ue170006INS_11__wrap_iterIPKcEES3_EET_S5_S5_T0_S6_, symObjAddr: 0x73F4, symBinAddr: 0x10000BA00, symSize: 0x54 }
  - { offsetInCU: 0x1ED9A, offset: 0x1ED9A, size: 0x8, addend: 0x0, symName: __ZNSt3__14findB8ue170006INS_11__wrap_iterIPKcEEcEET_S5_S5_RKT0_, symObjAddr: 0x74E4, symBinAddr: 0x10000BAF0, symSize: 0x78 }
  - { offsetInCU: 0x1EE02, offset: 0x1EE02, size: 0x8, addend: 0x0, symName: __ZNSt3__1neB8ue170006IcNS_11char_traitsIcEENS_9allocatorIcEEEEbRKNS_12basic_stringIT_T0_T1_EESB_, symObjAddr: 0x755C, symBinAddr: 0x10000BB68, symSize: 0x34 }
  - { offsetInCU: 0x1EE5A, offset: 0x1EE5A, size: 0x8, addend: 0x0, symName: __ZNSt3__1eqB8ue170006IPKcEEbRKNS_11__wrap_iterIT_EES7_, symObjAddr: 0x87E4, symBinAddr: 0x10000CDF0, symSize: 0x48 }
  - { offsetInCU: 0x1EE9D, offset: 0x1EE9D, size: 0x8, addend: 0x0, symName: __ZNSt3__1neB8ue170006IPKcEEbRKNS_11__wrap_iterIT_EES7_, symObjAddr: 0x8CF0, symBinAddr: 0x10000D2FC, symSize: 0x34 }
  - { offsetInCU: 0x1F258, offset: 0x1F258, size: 0x8, addend: 0x0, symName: __ZNSt3__1eqB8ue170006ERKNS_20__map_const_iteratorINS_21__tree_const_iteratorINS_12__value_typeIKNS_12basic_stringIcNS_11char_traitsIcEENS_9allocatorIcEEEEN4Pika8STLValueIS8_EEEEPNS_11__tree_nodeISD_PvEElEEEESL_, symObjAddr: 0xFC64, symBinAddr: 0x100014270, symSize: 0x30 }
  - { offsetInCU: 0x1F295, offset: 0x1F295, size: 0x8, addend: 0x0, symName: __ZNSt3__1neB8ue170006ERKNS_20__map_const_iteratorINS_21__tree_const_iteratorINS_12__value_typeIKNS_12basic_stringIcNS_11char_traitsIcEENS_9allocatorIcEEEEN4Pika8STLValueIS8_EEEEPNS_11__tree_nodeISD_PvEElEEEESL_, symObjAddr: 0xFFFC, symBinAddr: 0x100014608, symSize: 0x30 }
  - { offsetInCU: 0x1F2D2, offset: 0x1F2D2, size: 0x8, addend: 0x0, symName: __ZNSt3__1eqB8ue170006INS_9allocatorIcEEEEbRKNS_12basic_stringIcNS_11char_traitsIcEET_EES9_, symObjAddr: 0x1002C, symBinAddr: 0x100014638, symSize: 0x148 }
  - { offsetInCU: 0x1F345, offset: 0x1F345, size: 0x8, addend: 0x0, symName: __ZNSt3__1eqB8ue170006ERKNS_14__map_iteratorINS_15__tree_iteratorINS_12__value_typeIKNS_12basic_stringIcNS_11char_traitsIcEENS_9allocatorIcEEEEPN4Pika6ScriptINSA_9StdConfigEE6NativeEEEPNS_11__tree_nodeISG_PvEElEEEESO_, symObjAddr: 0x10360, symBinAddr: 0x10001496C, symSize: 0x30 }
  - { offsetInCU: 0x1F382, offset: 0x1F382, size: 0x8, addend: 0x0, symName: __ZNSt3__1neB8ue170006ERKNS_14__map_iteratorINS_15__tree_iteratorINS_12__value_typeIKNS_12basic_stringIcNS_11char_traitsIcEENS_9allocatorIcEEEEPN4Pika6ScriptINSA_9StdConfigEE6NativeEEEPNS_11__tree_nodeISG_PvEElEEEESO_, symObjAddr: 0x10608, symBinAddr: 0x100014C14, symSize: 0x30 }
  - { offsetInCU: 0x1F3BF, offset: 0x1F3BF, size: 0x8, addend: 0x0, symName: __ZNSt3__14findB8ue170006INS_16reverse_iteratorINS_11__wrap_iterIPKcEEEEcEET_S7_S7_RKT0_, symObjAddr: 0x10A78, symBinAddr: 0x100015084, symSize: 0xB4 }
  - { offsetInCU: 0x1F427, offset: 0x1F427, size: 0x8, addend: 0x0, symName: __ZNSt3__113find_first_ofB8ue170006INS_11__wrap_iterIPKcEES4_EET_S5_S5_T0_S6_, symObjAddr: 0x11D2C, symBinAddr: 0x100016338, symSize: 0x68 }
  - { offsetInCU: 0x1F4AB, offset: 0x1F4AB, size: 0x8, addend: 0x0, symName: __ZNSt3__1neB8ue170006IPKNS_4pairINS_12basic_stringIcNS_11char_traitsIcEENS_9allocatorIcEEEEN4Pika8STLValueIS7_EEEEPSB_EEbRKNS_11__wrap_iterIT_EERKNSF_IT0_EE, symObjAddr: 0x123D4, symBinAddr: 0x1000169E0, symSize: 0x34 }
  - { offsetInCU: 0x1F4F7, offset: 0x1F4F7, size: 0x8, addend: 0x0, symName: __ZNSt3__1lsB8ue170006IcNS_11char_traitsIcEENS_9allocatorIcEEEERNS_13basic_ostreamIT_T0_EES9_RKNS_12basic_stringIS6_S7_T1_EE, symObjAddr: 0x12768, symBinAddr: 0x100016D74, symSize: 0x4C }
  - { offsetInCU: 0x1F54F, offset: 0x1F54F, size: 0x8, addend: 0x0, symName: __ZNSt3__17getlineB8ue170006IcNS_11char_traitsIcEENS_9allocatorIcEEEERNS_13basic_istreamIT_T0_EES9_RNS_12basic_stringIS6_S7_T1_EE, symObjAddr: 0x1281C, symBinAddr: 0x100016E28, symSize: 0x5C }
  - { offsetInCU: 0x20359, offset: 0x20359, size: 0x8, addend: 0x0, symName: __ZNSt3__19transformB8ue170006INS_11__wrap_iterIPcEES3_NS_9binder2ndINS_26pointer_to_binary_functionIcRKNS_6localeEcEEEEEET0_T_SC_SB_T1_, symObjAddr: 0x139B0, symBinAddr: 0x100017FBC, symSize: 0x94 }
  - { offsetInCU: 0x203CA, offset: 0x203CA, size: 0x8, addend: 0x0, symName: __ZNSt3__17bind2ndB8ue170006INS_26pointer_to_binary_functionIcRKNS_6localeEcEES2_EENS_9binder2ndIT_EERKS7_RKT0_, symObjAddr: 0x13AF8, symBinAddr: 0x100018104, symSize: 0x38 }
  - { offsetInCU: 0x20416, offset: 0x20416, size: 0x8, addend: 0x0, symName: __ZNSt3__17ptr_funB8ue170006IcRKNS_6localeEcEENS_26pointer_to_binary_functionIT_T0_T1_EEPFS7_S5_S6_E, symObjAddr: 0x13B30, symBinAddr: 0x10001813C, symSize: 0x2C }
  - { offsetInCU: 0x2045D, offset: 0x2045D, size: 0x8, addend: 0x0, symName: __ZNSt3__17tolowerB8ue170006IcEET_S1_RKNS_6localeE, symObjAddr: 0x13B5C, symBinAddr: 0x100018168, symSize: 0x34 }
  - { offsetInCU: 0x204A3, offset: 0x204A3, size: 0x8, addend: 0x0, symName: __ZNSt3__18mismatchB8ue170006INS_11__wrap_iterIPKcEES4_EENS_4pairIT_T0_EES6_S6_S7_, symObjAddr: 0x13CB0, symBinAddr: 0x1000182BC, symSize: 0x5C }
  - { offsetInCU: 0x204FD, offset: 0x204FD, size: 0x8, addend: 0x0, symName: __ZNSt3__14endlB8ue170006IcNS_11char_traitsIcEEEERNS_13basic_ostreamIT_T0_EES7_, symObjAddr: 0x14378, symBinAddr: 0x100018984, symSize: 0x58 }
  - { offsetInCU: 0x2053D, offset: 0x2053D, size: 0x8, addend: 0x0, symName: __ZNSt3__17reverseB8ue170006INS_11__wrap_iterIPcEEEEvT_S4_, symObjAddr: 0x14E6C, symBinAddr: 0x100019478, symSize: 0x3C }
  - { offsetInCU: 0x206F2, offset: 0x206F2, size: 0x8, addend: 0x0, symName: __ZNSt3__16searchB8ue170006INS_11__wrap_iterIPKcEES4_EET_S5_S5_T0_S6_, symObjAddr: 0x156B0, symBinAddr: 0x100019CBC, symSize: 0x64 }
  - { offsetInCU: 0x2075A, offset: 0x2075A, size: 0x8, addend: 0x0, symName: __ZNSt3__17toupperB8ue170006IcEET_S1_RKNS_6localeE, symObjAddr: 0x15D28, symBinAddr: 0x10001A334, symSize: 0x34 }
  - { offsetInCU: 0x207A0, offset: 0x207A0, size: 0x8, addend: 0x0, symName: __ZNSt3__1lsB8ue170006INS_11char_traitsIcEEEERNS_13basic_ostreamIcT_EES6_PKc, symObjAddr: 0x1A28C, symBinAddr: 0x10001E898, symSize: 0x48 }
  - { offsetInCU: 0x20819, offset: 0x20819, size: 0x8, addend: 0x0, symName: __ZNSt3__1neB8ue170006ERKNS_14__map_iteratorINS_15__tree_iteratorINS_12__value_typeIKN8QStrings7QStringIcLm52EEEPN4Pika6ScriptI19QuickerScriptConfigE6NativeEEEPNS_11__tree_nodeISD_PvEElEEEESL_, symObjAddr: 0x1CDA8, symBinAddr: 0x1000213B4, symSize: 0x30 }
  - { offsetInCU: 0x20856, offset: 0x20856, size: 0x8, addend: 0x0, symName: __ZNSt3__1neB8ue170006ERKNS_15__tree_iteratorINS_12__value_typeIKN8QStrings7QStringIcLm52EEEPN4Pika6ScriptI19QuickerScriptConfigE6NativeEEEPNS_11__tree_nodeISC_PvEElEESJ_, symObjAddr: 0x1D344, symBinAddr: 0x100021950, symSize: 0x34 }
  - { offsetInCU: 0x20893, offset: 0x20893, size: 0x8, addend: 0x0, symName: __ZNSt3__1eqB8ue170006ERKNS_15__tree_iteratorINS_12__value_typeIKN8QStrings7QStringIcLm52EEEPN4Pika6ScriptI19QuickerScriptConfigE6NativeEEEPNS_11__tree_nodeISC_PvEElEESJ_, symObjAddr: 0x1D378, symBinAddr: 0x100021984, symSize: 0x30 }
  - { offsetInCU: 0x20936, offset: 0x20936, size: 0x8, addend: 0x0, symName: __ZNSt3__116__tree_next_iterB8ue170006IPNS_15__tree_end_nodeIPNS_16__tree_node_baseIPvEEEES5_EET_T0_, symObjAddr: 0x1D4E4, symBinAddr: 0x100021AF0, symSize: 0xA4 }
  - { offsetInCU: 0x20974, offset: 0x20974, size: 0x8, addend: 0x0, symName: __ZNSt3__110__tree_minB8ue170006IPNS_16__tree_node_baseIPvEEEET_S5_, symObjAddr: 0x1D588, symBinAddr: 0x100021B94, symSize: 0x40 }
  - { offsetInCU: 0x209A9, offset: 0x209A9, size: 0x8, addend: 0x0, symName: __ZNSt3__120__tree_is_left_childB8ue170006IPNS_16__tree_node_baseIPvEEEEbT_, symObjAddr: 0x1D5C8, symBinAddr: 0x100021BD4, symSize: 0x2C }
  - { offsetInCU: 0x209DE, offset: 0x209DE, size: 0x8, addend: 0x0, symName: __ZNSt3__130__libcpp_is_constant_evaluatedB8ue170006Ev, symObjAddr: 0x1D92C, symBinAddr: 0x100021F38, symSize: 0xC }
  - { offsetInCU: 0x209FB, offset: 0x209FB, size: 0x8, addend: 0x0, symName: __ZNSt3__119__libcpp_deallocateB8ue170006EPvmm, symObjAddr: 0x1D938, symBinAddr: 0x100021F44, symSize: 0x30 }
  - { offsetInCU: 0x20A43, offset: 0x20A43, size: 0x8, addend: 0x0, symName: __ZNSt3__127__do_deallocate_handle_sizeB8ue170006IJEEEvPvmDpT_, symObjAddr: 0x1D968, symBinAddr: 0x100021F74, symSize: 0x28 }
  - { offsetInCU: 0x20A81, offset: 0x20A81, size: 0x8, addend: 0x0, symName: __ZNSt3__124__libcpp_operator_deleteB8ue170006IJPvEEEvDpT_, symObjAddr: 0x1D990, symBinAddr: 0x100021F9C, symSize: 0x24 }
  - { offsetInCU: 0x20AB6, offset: 0x20AB6, size: 0x8, addend: 0x0, symName: __ZNSt3__1eqB8ue170006ERKNS_20__map_const_iteratorINS_21__tree_const_iteratorINS_12__value_typeIKN8QStrings7QStringIcLm52EEEN4Pika8STLValueIS5_EEEEPNS_11__tree_nodeISA_PvEElEEEESI_, symObjAddr: 0x1DE20, symBinAddr: 0x10002242C, symSize: 0x30 }
  - { offsetInCU: 0x20AF3, offset: 0x20AF3, size: 0x8, addend: 0x0, symName: __ZNSt3__1neB8ue170006ERKNS_15__tree_iteratorINS_12__value_typeIKN8QStrings7QStringIcLm52EEEN4Pika8STLValueIS4_EEEEPNS_11__tree_nodeIS9_PvEElEESG_, symObjAddr: 0x1E0E4, symBinAddr: 0x1000226F0, symSize: 0x34 }
  - { offsetInCU: 0x20B30, offset: 0x20B30, size: 0x8, addend: 0x0, symName: __ZNSt3__1eqB8ue170006ERKNS_15__tree_iteratorINS_12__value_typeIKN8QStrings7QStringIcLm52EEEN4Pika8STLValueIS4_EEEEPNS_11__tree_nodeIS9_PvEElEESG_, symObjAddr: 0x1E2F4, symBinAddr: 0x100022900, symSize: 0x30 }
  - { offsetInCU: 0x20B6D, offset: 0x20B6D, size: 0x8, addend: 0x0, symName: __ZNSt3__1eqB8ue170006ERKNS_21__tree_const_iteratorINS_12__value_typeIKN8QStrings7QStringIcLm52EEEN4Pika8STLValueIS4_EEEEPNS_11__tree_nodeIS9_PvEElEESG_, symObjAddr: 0x1E424, symBinAddr: 0x100022A30, symSize: 0x30 }
  - { offsetInCU: 0x20C2E, offset: 0x20C2E, size: 0x8, addend: 0x0, symName: __ZNSt3__117__libcpp_allocateB8ue170006Emm, symObjAddr: 0x1EC04, symBinAddr: 0x100023210, symSize: 0x28 }
  - { offsetInCU: 0x20C6B, offset: 0x20C6B, size: 0x8, addend: 0x0, symName: __ZNSt3__121__libcpp_operator_newB8ue170006IJmEEEPvDpT_, symObjAddr: 0x1EC44, symBinAddr: 0x100023250, symSize: 0x24 }
  - { offsetInCU: 0x20CA4, offset: 0x20CA4, size: 0x8, addend: 0x0, symName: __ZNSt3__127__tree_balance_after_insertB8ue170006IPNS_16__tree_node_baseIPvEEEEvT_S5_, symObjAddr: 0x1EE98, symBinAddr: 0x1000234A4, symSize: 0x27C }
  - { offsetInCU: 0x20D20, offset: 0x20D20, size: 0x8, addend: 0x0, symName: __ZNSt3__118__tree_left_rotateB8ue170006IPNS_16__tree_node_baseIPvEEEEvT_, symObjAddr: 0x1F13C, symBinAddr: 0x100023748, symSize: 0xEC }
  - { offsetInCU: 0x20D62, offset: 0x20D62, size: 0x8, addend: 0x0, symName: __ZNSt3__119__tree_right_rotateB8ue170006IPNS_16__tree_node_baseIPvEEEEvT_, symObjAddr: 0x1F228, symBinAddr: 0x100023834, symSize: 0xCC }
  - { offsetInCU: 0x20DA4, offset: 0x20DA4, size: 0x8, addend: 0x0, symName: __ZNSt3__113__tree_removeB8ue170006IPNS_16__tree_node_baseIPvEEEEvT_S5_, symObjAddr: 0x1F820, symBinAddr: 0x100023E2C, symSize: 0x6E0 }
  - { offsetInCU: 0x20E22, offset: 0x20E22, size: 0x8, addend: 0x0, symName: __ZNSt3__111__tree_nextB8ue170006IPNS_16__tree_node_baseIPvEEEET_S5_, symObjAddr: 0x1FF20, symBinAddr: 0x10002452C, symSize: 0x80 }
  - { offsetInCU: 0x20E57, offset: 0x20E57, size: 0x8, addend: 0x0, symName: __ZNSt3__1neB8ue170006ERKNS_20__map_const_iteratorINS_21__tree_const_iteratorINS_12__value_typeIKN8QStrings7QStringIcLm52EEEN4Pika8STLValueIS5_EEEEPNS_11__tree_nodeISA_PvEElEEEESI_, symObjAddr: 0x1FFE0, symBinAddr: 0x1000245EC, symSize: 0x30 }
  - { offsetInCU: 0x20E94, offset: 0x20E94, size: 0x8, addend: 0x0, symName: __ZNSt3__1neB8ue170006ERKNS_21__tree_const_iteratorINS_12__value_typeIKN8QStrings7QStringIcLm52EEEN4Pika8STLValueIS4_EEEEPNS_11__tree_nodeIS9_PvEElEESG_, symObjAddr: 0x20164, symBinAddr: 0x100024770, symSize: 0x34 }
  - { offsetInCU: 0x20ED1, offset: 0x20ED1, size: 0x8, addend: 0x0, symName: __ZNSt3__112__to_addressB8ue170006INS_4pairIN8QStrings7QStringIcLm52EEEN4Pika8STLValueIS4_EEEEEEPT_SA_, symObjAddr: 0x20408, symBinAddr: 0x100024A14, symSize: 0x14 }
  - { offsetInCU: 0x20F06, offset: 0x20F06, size: 0x8, addend: 0x0, symName: __ZNSt3__13maxB8ue170006ImEERKT_S3_S3_, symObjAddr: 0x209A8, symBinAddr: 0x100024FB4, symSize: 0x2C }
  - { offsetInCU: 0x20F49, offset: 0x20F49, size: 0x8, addend: 0x0, symName: __ZNSt3__13minB8ue170006ImEERKT_S3_S3_, symObjAddr: 0x209D4, symBinAddr: 0x100024FE0, symSize: 0x2C }
  - { offsetInCU: 0x2118D, offset: 0x2118D, size: 0x8, addend: 0x0, symName: __ZNSt3__13minB8ue170006ImNS_6__lessIvvEEEERKT_S5_S5_T0_, symObjAddr: 0x20A60, symBinAddr: 0x10002506C, symSize: 0x54 }
  - { offsetInCU: 0x2122C, offset: 0x2122C, size: 0x8, addend: 0x0, symName: __ZNSt3__120__throw_length_errorB8ue170006EPKc, symObjAddr: 0x20B40, symBinAddr: 0x10002514C, symSize: 0x64 }
  - { offsetInCU: 0x21256, offset: 0x21256, size: 0x8, addend: 0x0, symName: __ZNSt3__13maxB8ue170006ImNS_6__lessIvvEEEERKT_S5_S5_T0_, symObjAddr: 0x20C84, symBinAddr: 0x100025290, symSize: 0x54 }
  - { offsetInCU: 0x212B0, offset: 0x212B0, size: 0x8, addend: 0x0, symName: __ZNSt3__119__allocate_at_leastB8ue170006INS_9allocatorINS_4pairIN8QStrings7QStringIcLm52EEEN4Pika8STLValueIS5_EEEEEEEENS_19__allocation_resultINS_16allocator_traitsIT_E7pointerEEERSD_m, symObjAddr: 0x20DF4, symBinAddr: 0x100025400, symSize: 0x40 }
  - { offsetInCU: 0x212F3, offset: 0x212F3, size: 0x8, addend: 0x0, symName: __ZNSt3__142__uninitialized_allocator_move_if_noexceptB8ue170006INS_9allocatorINS_4pairIN8QStrings7QStringIcLm52EEEN4Pika8STLValueIS5_EEEEEENS_16reverse_iteratorIPS9_EESD_SD_EET2_RT_T0_T1_SE_, symObjAddr: 0x210CC, symBinAddr: 0x1000256D8, symSize: 0x134 }
  - { offsetInCU: 0x21393, offset: 0x21393, size: 0x8, addend: 0x0, symName: __ZNSt3__14swapB8ue170006IPNS_4pairIN8QStrings7QStringIcLm52EEEN4Pika8STLValueIS4_EEEEEEvRT_SB_, symObjAddr: 0x2124C, symBinAddr: 0x100025858, symSize: 0x3C }
  - { offsetInCU: 0x213E4, offset: 0x213E4, size: 0x8, addend: 0x0, symName: __ZNSt3__122__make_exception_guardB8ue170006INS_29_AllocatorDestroyRangeReverseINS_9allocatorINS_4pairIN8QStrings7QStringIcLm52EEEN4Pika8STLValueIS6_EEEEEENS_16reverse_iteratorIPSA_EEEEEENS_28__exception_guard_exceptionsIT_EESH_, symObjAddr: 0x21398, symBinAddr: 0x1000259A4, symSize: 0x4C }
  - { offsetInCU: 0x2141A, offset: 0x2141A, size: 0x8, addend: 0x0, symName: __ZNSt3__1neB8ue170006IPNS_4pairIN8QStrings7QStringIcLm52EEEN4Pika8STLValueIS4_EEEES9_EEbRKNS_16reverse_iteratorIT_EERKNSA_IT0_EE, symObjAddr: 0x21428, symBinAddr: 0x100025A34, symSize: 0x48 }
  - { offsetInCU: 0x21466, offset: 0x21466, size: 0x8, addend: 0x0, symName: __ZNSt3__112__to_addressB8ue170006INS_16reverse_iteratorIPNS_4pairIN8QStrings7QStringIcLm52EEEN4Pika8STLValueIS5_EEEEEEvEEu7__decayIDTclsr19__to_address_helperIT_EE6__callclsr3stdE7declvalIRKSC_EEEEESE_, symObjAddr: 0x214A4, symBinAddr: 0x100025AB0, symSize: 0x24 }
  - { offsetInCU: 0x214C5, offset: 0x214C5, size: 0x8, addend: 0x0, symName: __ZNSt3__119__allocator_destroyB8ue170006INS_9allocatorINS_4pairIN8QStrings7QStringIcLm52EEEN4Pika8STLValueIS5_EEEEEENS_16reverse_iteratorINSB_IPS9_EEEESE_EEvRT_T0_T1_, symObjAddr: 0x21834, symBinAddr: 0x100025E40, symSize: 0x70 }
  - { offsetInCU: 0x2152A, offset: 0x2152A, size: 0x8, addend: 0x0, symName: __ZNSt3__1neB8ue170006INS_16reverse_iteratorIPNS_4pairIN8QStrings7QStringIcLm52EEEN4Pika8STLValueIS5_EEEEEESB_EEbRKNS1_IT_EERKNS1_IT0_EE, symObjAddr: 0x218E0, symBinAddr: 0x100025EEC, symSize: 0x60 }
  - { offsetInCU: 0x21576, offset: 0x21576, size: 0x8, addend: 0x0, symName: __ZNSt3__112__to_addressB8ue170006INS_16reverse_iteratorINS1_IPNS_4pairIN8QStrings7QStringIcLm52EEEN4Pika8STLValueIS5_EEEEEEEEvEEu7__decayIDTclsr19__to_address_helperIT_EE6__callclsr3stdE7declvalIRKSD_EEEEESF_, symObjAddr: 0x2196C, symBinAddr: 0x100025F78, symSize: 0x24 }
  - { offsetInCU: 0x215D5, offset: 0x215D5, size: 0x8, addend: 0x0, symName: __ZNSt3__1eqB8ue170006ERKNS_14__map_iteratorINS_15__tree_iteratorINS_12__value_typeIKN8QStrings7QStringIcLm52EEEPN4Pika6ScriptI19QuickerScriptConfigE6NativeEEEPNS_11__tree_nodeISD_PvEElEEEESL_, symObjAddr: 0x22294, symBinAddr: 0x1000268A0, symSize: 0x30 }
  - { offsetInCU: 0x21654, offset: 0x21654, size: 0x8, addend: 0x0, symName: __ZNSt3__118__constexpr_strlenB8ue170006EPKc, symObjAddr: 0x23D8C, symBinAddr: 0x100028398, symSize: 0x24 }
  - { offsetInCU: 0x21680, offset: 0x21680, size: 0x8, addend: 0x0, symName: __ZNSt3__18__fill_nB8ue170006IPcicEET_S2_T0_RKT1_, symObjAddr: 0x24498, symBinAddr: 0x100028AA4, symSize: 0x64 }
  - { offsetInCU: 0x216E3, offset: 0x216E3, size: 0x8, addend: 0x0, symName: __ZNSt3__121__convert_to_integralB8ue170006Ei, symObjAddr: 0x244FC, symBinAddr: 0x100028B08, symSize: 0x14 }
  - { offsetInCU: 0x2170F, offset: 0x2170F, size: 0x8, addend: 0x0, symName: __ZNSt3__14findB8ue170006IPKccEET_S3_S3_RKT0_, symObjAddr: 0x24744, symBinAddr: 0x100028D50, symSize: 0x60 }
  - { offsetInCU: 0x21777, offset: 0x21777, size: 0x8, addend: 0x0, symName: __ZNSt3__113__rewrap_iterB8ue170006IPKcS2_NS_18__unwrap_iter_implIS2_Lb1EEEEET_S5_T0_, symObjAddr: 0x24C68, symBinAddr: 0x100029274, symSize: 0x50 }
  - { offsetInCU: 0x217CC, offset: 0x217CC, size: 0x8, addend: 0x0, symName: __ZNSt3__111__find_implB8ue170006IKccNS_10__identityELi0EEEPT_S4_S4_RKT0_RT1_, symObjAddr: 0x24CB8, symBinAddr: 0x1000292C4, symSize: 0x78 }
  - { offsetInCU: 0x21853, offset: 0x21853, size: 0x8, addend: 0x0, symName: __ZNSt3__113__unwrap_iterB8ue170006IPKcNS_18__unwrap_iter_implIS2_Lb1EEELi0EEEDTclsrT0_8__unwrapclsr3stdE7declvalIT_EEEES6_, symObjAddr: 0x24D30, symBinAddr: 0x10002933C, symSize: 0x24 }
  - { offsetInCU: 0x218EA, offset: 0x218EA, size: 0x8, addend: 0x0, symName: __ZNSt3__112__to_addressB8ue170006IKcEEPT_S3_, symObjAddr: 0x24D9C, symBinAddr: 0x1000293A8, symSize: 0x14 }
  - { offsetInCU: 0x2191F, offset: 0x2191F, size: 0x8, addend: 0x0, symName: __ZNSt3__118__constexpr_memchrB8ue170006IKccEEPT_S3_T0_m, symObjAddr: 0x24DB0, symBinAddr: 0x1000293BC, symSize: 0xC0 }
  - { offsetInCU: 0x21995, offset: 0x21995, size: 0x8, addend: 0x0, symName: __ZNSt3__112__to_addressB8ue170006IcEEPT_S2_, symObjAddr: 0x24F50, symBinAddr: 0x10002955C, symSize: 0x14 }
  - { offsetInCU: 0x21BFF, offset: 0x21BFF, size: 0x8, addend: 0x0, symName: __ZNSt3__14copyB8ue170006IPKcPcEET0_T_S5_S4_, symObjAddr: 0x25570, symBinAddr: 0x100029B7C, symSize: 0x40 }
  - { offsetInCU: 0x21C59, offset: 0x21C59, size: 0x8, addend: 0x0, symName: __ZNSt3__16__copyB8ue170006INS_17_ClassicAlgPolicyEPKcS3_PcEENS_4pairIT0_T2_EES6_T1_S7_, symObjAddr: 0x255B0, symBinAddr: 0x100029BBC, symSize: 0x44 }
  - { offsetInCU: 0x21CC5, offset: 0x21CC5, size: 0x8, addend: 0x0, symName: __ZNSt3__123__dispatch_copy_or_moveB8ue170006INS_17_ClassicAlgPolicyENS_11__copy_loopIS1_EENS_14__copy_trivialEPKcS6_PcEENS_4pairIT2_T4_EES9_T3_SA_, symObjAddr: 0x255F4, symBinAddr: 0x100029C00, symSize: 0x44 }
  - { offsetInCU: 0x21D43, offset: 0x21D43, size: 0x8, addend: 0x0, symName: __ZNSt3__121__unwrap_and_dispatchB8ue170006INS_10__overloadINS_11__copy_loopINS_17_ClassicAlgPolicyEEENS_14__copy_trivialEEEPKcS8_PcLi0EEENS_4pairIT0_T2_EESB_T1_SC_, symObjAddr: 0x25638, symBinAddr: 0x100029C44, symSize: 0xB4 }
  - { offsetInCU: 0x21DD1, offset: 0x21DD1, size: 0x8, addend: 0x0, symName: __ZNSt3__114__unwrap_rangeB8ue170006IPKcS2_EENS_4pairIT0_S4_EET_S6_, symObjAddr: 0x256EC, symBinAddr: 0x100029CF8, symSize: 0x60 }
  - { offsetInCU: 0x21F10, offset: 0x21F10, size: 0x8, addend: 0x0, symName: __ZNSt3__113__unwrap_iterB8ue170006IPcNS_18__unwrap_iter_implIS1_Lb1EEELi0EEEDTclsrT0_8__unwrapclsr3stdE7declvalIT_EEEES5_, symObjAddr: 0x25794, symBinAddr: 0x100029DA0, symSize: 0x24 }
  - { offsetInCU: 0x21F54, offset: 0x21F54, size: 0x8, addend: 0x0, symName: __ZNSt3__19make_pairB8ue170006IPKcPcEENS_4pairINS_18__unwrap_ref_decayIT_E4typeENS5_IT0_E4typeEEEOS6_OS9_, symObjAddr: 0x257B8, symBinAddr: 0x100029DC4, symSize: 0x38 }
  - { offsetInCU: 0x21FA3, offset: 0x21FA3, size: 0x8, addend: 0x0, symName: __ZNSt3__114__rewrap_rangeB8ue170006IPKcS2_EET_S3_T0_, symObjAddr: 0x257F0, symBinAddr: 0x100029DFC, symSize: 0x2C }
  - { offsetInCU: 0x21FEF, offset: 0x21FEF, size: 0x8, addend: 0x0, symName: __ZNSt3__113__rewrap_iterB8ue170006IPcS1_NS_18__unwrap_iter_implIS1_Lb1EEEEET_S4_T0_, symObjAddr: 0x2581C, symBinAddr: 0x100029E28, symSize: 0x50 }
  - { offsetInCU: 0x22044, offset: 0x22044, size: 0x8, addend: 0x0, symName: __ZNSt3__19make_pairB8ue170006IPKcS2_EENS_4pairINS_18__unwrap_ref_decayIT_E4typeENS4_IT0_E4typeEEEOS5_OS8_, symObjAddr: 0x2586C, symBinAddr: 0x100029E78, symSize: 0x38 }
  - { offsetInCU: 0x22140, offset: 0x22140, size: 0x8, addend: 0x0, symName: __ZNSt3__119__copy_trivial_implB8ue170006IKccEENS_4pairIPT_PT0_EES4_S4_S6_, symObjAddr: 0x25914, symBinAddr: 0x100029F20, symSize: 0x78 }
  - { offsetInCU: 0x221A8, offset: 0x221A8, size: 0x8, addend: 0x0, symName: __ZNSt3__119__constexpr_memmoveB8ue170006IcKcLi0EEEPT_S3_PT0_NS_15__element_countE, symObjAddr: 0x2598C, symBinAddr: 0x100029F98, symSize: 0xA0 }
  - { offsetInCU: 0x22216, offset: 0x22216, size: 0x8, addend: 0x0, symName: __ZNSt3__19make_pairB8ue170006IRPKcPcEENS_4pairINS_18__unwrap_ref_decayIT_E4typeENS6_IT0_E4typeEEEOS7_OSA_, symObjAddr: 0x25A2C, symBinAddr: 0x10002A038, symSize: 0x38 }
  - { offsetInCU: 0x222B8, offset: 0x222B8, size: 0x8, addend: 0x0, symName: __ZNSt3__16fill_nB8ue170006IPcmcEET_S2_T0_RKT1_, symObjAddr: 0x25B40, symBinAddr: 0x10002A14C, symSize: 0x44 }
  - { offsetInCU: 0x2231B, offset: 0x2231B, size: 0x8, addend: 0x0, symName: __ZNSt3__18__fill_nB8ue170006IPcmcEET_S2_T0_RKT1_, symObjAddr: 0x25B84, symBinAddr: 0x10002A190, symSize: 0x64 }
  - { offsetInCU: 0x2237E, offset: 0x2237E, size: 0x8, addend: 0x0, symName: __ZNSt3__121__convert_to_integralB8ue170006Em, symObjAddr: 0x25BE8, symBinAddr: 0x10002A1F4, symSize: 0x14 }
  - { offsetInCU: 0x223E8, offset: 0x223E8, size: 0x8, addend: 0x0, symName: __ZNSt3__18distanceB8ue170006INS_11__wrap_iterIPKcEEEENS_15iterator_traitsIT_E15difference_typeES6_S6_, symObjAddr: 0x25E50, symBinAddr: 0x10002A45C, symSize: 0x3C }
  - { offsetInCU: 0x2242B, offset: 0x2242B, size: 0x8, addend: 0x0, symName: __ZNSt3__110__distanceB8ue170006INS_11__wrap_iterIPKcEEEENS_15iterator_traitsIT_E15difference_typeES6_S6_NS_26random_access_iterator_tagE, symObjAddr: 0x26010, symBinAddr: 0x10002A61C, symSize: 0x30 }
  - { offsetInCU: 0x22478, offset: 0x22478, size: 0x8, addend: 0x0, symName: __ZNSt3__119__allocate_at_leastB8ue170006INS_9allocatorIcEEEENS_19__allocation_resultINS_16allocator_traitsIT_E7pointerEEERS5_m, symObjAddr: 0x26040, symBinAddr: 0x10002A64C, symSize: 0x40 }
  - { offsetInCU: 0x224BB, offset: 0x224BB, size: 0x8, addend: 0x0, symName: __ZNSt3__18distanceB8ue170006IPKcEENS_15iterator_traitsIT_E15difference_typeES4_S4_, symObjAddr: 0x26950, symBinAddr: 0x10002AF5C, symSize: 0x2C }
  - { offsetInCU: 0x224FE, offset: 0x224FE, size: 0x8, addend: 0x0, symName: __ZNSt3__110__distanceB8ue170006IPKcEENS_15iterator_traitsIT_E15difference_typeES4_S4_NS_26random_access_iterator_tagE, symObjAddr: 0x26AF8, symBinAddr: 0x10002B104, symSize: 0x20 }
  - { offsetInCU: 0x2254B, offset: 0x2254B, size: 0x8, addend: 0x0, symName: __ZNSt3__118__find_first_of_ceB8ue170006INS_11__wrap_iterIPKcEES3_NS_10__equal_toEEET_S6_S6_T0_S7_OT1_, symObjAddr: 0x26B4C, symBinAddr: 0x10002B158, symSize: 0xD0 }
  - { offsetInCU: 0x22621, offset: 0x22621, size: 0x8, addend: 0x0, symName: __ZNSt3__16searchB8ue170006INS_11__wrap_iterIPKcEES3_NS_10__equal_toEEET_S6_S6_T0_S7_T1_, symObjAddr: 0x26C50, symBinAddr: 0x10002B25C, symSize: 0x74 }
  - { offsetInCU: 0x226AE, offset: 0x226AE, size: 0x8, addend: 0x0, symName: __ZNSt3__113__search_implB8ue170006INS_11__wrap_iterIPKcEES4_S3_S3_NS_10__equal_toENS_10__identityES6_EENS_4pairIT_S8_EES8_T0_T1_T2_RT3_RT4_RT5_PNS_9enable_ifIXaasr37__has_random_access_iterator_categoryIS8_EE5valuesr37__has_random_access_iterator_categoryISB_EE5valueEvE4typeE, symObjAddr: 0x26CC4, symBinAddr: 0x10002B2D0, symSize: 0x108 }
  - { offsetInCU: 0x22794, offset: 0x22794, size: 0x8, addend: 0x0, symName: __ZNSt3__19make_pairB8ue170006IRNS_11__wrap_iterIPKcEES5_EENS_4pairINS_18__unwrap_ref_decayIT_E4typeENS7_IT0_E4typeEEEOS8_OSB_, symObjAddr: 0x26DCC, symBinAddr: 0x10002B3D8, symSize: 0x38 }
  - { offsetInCU: 0x227E3, offset: 0x227E3, size: 0x8, addend: 0x0, symName: __ZNSt3__127__search_random_access_implB8ue170006INS_17_ClassicAlgPolicyENS_11__wrap_iterIPKcEES5_S4_S4_NS_10__equal_toENS_10__identityES7_llEENS_4pairIT0_S9_EES9_T1_T2_T3_RT4_RT5_RT6_T7_T8_, symObjAddr: 0x26E04, symBinAddr: 0x10002B410, symSize: 0x1F0 }
  - { offsetInCU: 0x22A6E, offset: 0x22A6E, size: 0x8, addend: 0x0, symName: __ZNSt3__18__invokeB8ue170006IRNS_10__equal_toEJRKcS4_EEEDTclclsr3stdE7declvalIT_EEspclsr3stdE7declvalIT0_EEEEOS5_DpOS6_, symObjAddr: 0x27084, symBinAddr: 0x10002B690, symSize: 0x38 }
  - { offsetInCU: 0x22AD3, offset: 0x22AD3, size: 0x8, addend: 0x0, symName: __ZNSt3__18__invokeB8ue170006IRNS_10__identityEJRKcEEEDTclclsr3stdE7declvalIT_EEspclsr3stdE7declvalIT0_EEEEOS5_DpOS6_, symObjAddr: 0x270BC, symBinAddr: 0x10002B6C8, symSize: 0x2C }
  - { offsetInCU: 0x22B24, offset: 0x22B24, size: 0x8, addend: 0x0, symName: __ZNSt3__19make_pairB8ue170006IRNS_11__wrap_iterIPKcEES4_EENS_4pairINS_18__unwrap_ref_decayIT_E4typeENS7_IT0_E4typeEEEOS8_OSB_, symObjAddr: 0x270E8, symBinAddr: 0x10002B6F4, symSize: 0x38 }
  - { offsetInCU: 0x22BA0, offset: 0x22BA0, size: 0x8, addend: 0x0, symName: __ZNSt3__113__rewrap_iterB8ue170006INS_11__wrap_iterIPKcEES3_NS_18__unwrap_iter_implIS4_Lb1EEEEET_S7_T0_, symObjAddr: 0x27138, symBinAddr: 0x10002B744, symSize: 0x60 }
  - { offsetInCU: 0x22BF5, offset: 0x22BF5, size: 0x8, addend: 0x0, symName: __ZNSt3__113__unwrap_iterB8ue170006INS_11__wrap_iterIPKcEENS_18__unwrap_iter_implIS4_Lb1EEELi0EEEDTclsrT0_8__unwrapclsr3stdE7declvalIT_EEEES8_, symObjAddr: 0x27198, symBinAddr: 0x10002B7A4, symSize: 0x2C }
  - { offsetInCU: 0x22C8C, offset: 0x22C8C, size: 0x8, addend: 0x0, symName: __ZNSt3__112__to_addressB8ue170006INS_11__wrap_iterIPKcEEvEEu7__decayIDTclsr19__to_address_helperIT_EE6__callclsr3stdE7declvalIRKS5_EEEEES7_, symObjAddr: 0x27218, symBinAddr: 0x10002B824, symSize: 0x24 }
  - { offsetInCU: 0x22D29, offset: 0x22D29, size: 0x8, addend: 0x0, symName: __ZNSt3__1eqB8ue170006IcNS_11char_traitsIcEENS_9allocatorIcEEEEbRKNS_12basic_stringIT_T0_T1_EEPKS6_, symObjAddr: 0x272C0, symBinAddr: 0x10002B8CC, symSize: 0xC0 }
  - { offsetInCU: 0x22D90, offset: 0x22D90, size: 0x8, addend: 0x0, symName: __ZNSt3__15equalB8ue170006INS_11__wrap_iterIPKcEES3_EEbT_S5_T0_, symObjAddr: 0x27C80, symBinAddr: 0x10002C28C, symSize: 0x48 }
  - { offsetInCU: 0x231F5, offset: 0x231F5, size: 0x8, addend: 0x0, symName: __ZNSt3__15equalB8ue170006INS_11__wrap_iterIPKcEES3_NS_10__equal_toEEEbT_S6_T0_T1_, symObjAddr: 0x27F24, symBinAddr: 0x10002C530, symSize: 0x6C }
  - { offsetInCU: 0x23266, offset: 0x23266, size: 0x8, addend: 0x0, symName: __ZNSt3__117__equal_iter_implB8ue170006IKcS1_NS_10__equal_toELi0EEEbPT_S4_PT0_RT1_, symObjAddr: 0x27F90, symBinAddr: 0x10002C59C, symSize: 0x44 }
  - { offsetInCU: 0x232D9, offset: 0x232D9, size: 0x8, addend: 0x0, symName: __ZNSt3__124__constexpr_memcmp_equalB8ue170006IccEEbPKT_PKT0_NS_15__element_countE, symObjAddr: 0x27FD4, symBinAddr: 0x10002C5E0, symSize: 0x98 }
  - { offsetInCU: 0x23341, offset: 0x23341, size: 0x8, addend: 0x0, symName: __ZNSt3__1ltB8ue170006IcNS_11char_traitsIcEENS_9allocatorIcEEEEbRKNS_12basic_stringIT_T0_T1_EESB_, symObjAddr: 0x2AE78, symBinAddr: 0x10002F484, symSize: 0x38 }
  - { offsetInCU: 0x23399, offset: 0x23399, size: 0x8, addend: 0x0, symName: __ZNSt3__1gtB8ue170006IPKcEEbRKNS_11__wrap_iterIT_EES7_, symObjAddr: 0x2B900, symBinAddr: 0x10002FF0C, symSize: 0x30 }
  - { offsetInCU: 0x233DC, offset: 0x233DC, size: 0x8, addend: 0x0, symName: __ZNSt3__1plB8ue170006IcNS_11char_traitsIcEENS_9allocatorIcEEEENS_12basic_stringIT_T0_T1_EERKS9_S6_, symObjAddr: 0x2B930, symBinAddr: 0x10002FF3C, symSize: 0x110 }
  - { offsetInCU: 0x2346E, offset: 0x2346E, size: 0x8, addend: 0x0, symName: __ZNSt3__1neB8ue170006ERKNS_15__tree_iteratorINS_12__value_typeIKNS_12basic_stringIcNS_11char_traitsIcEENS_9allocatorIcEEEEN4Pika8STLValueIS7_EEEEPNS_11__tree_nodeISC_PvEElEESJ_, symObjAddr: 0x2BC98, symBinAddr: 0x1000302A4, symSize: 0x34 }
  - { offsetInCU: 0x234AB, offset: 0x234AB, size: 0x8, addend: 0x0, symName: __ZNSt3__1eqB8ue170006ERKNS_15__tree_iteratorINS_12__value_typeIKNS_12basic_stringIcNS_11char_traitsIcEENS_9allocatorIcEEEEN4Pika8STLValueIS7_EEEEPNS_11__tree_nodeISC_PvEElEESJ_, symObjAddr: 0x2BE84, symBinAddr: 0x100030490, symSize: 0x30 }
  - { offsetInCU: 0x234E8, offset: 0x234E8, size: 0x8, addend: 0x0, symName: __ZNSt3__1eqB8ue170006ERKNS_21__tree_const_iteratorINS_12__value_typeIKNS_12basic_stringIcNS_11char_traitsIcEENS_9allocatorIcEEEEN4Pika8STLValueIS7_EEEEPNS_11__tree_nodeISC_PvEElEESJ_, symObjAddr: 0x2BFB4, symBinAddr: 0x1000305C0, symSize: 0x30 }
  - { offsetInCU: 0x235A9, offset: 0x235A9, size: 0x8, addend: 0x0, symName: __ZNSt3__1neB8ue170006ERKNS_21__tree_const_iteratorINS_12__value_typeIKNS_12basic_stringIcNS_11char_traitsIcEENS_9allocatorIcEEEEN4Pika8STLValueIS7_EEEEPNS_11__tree_nodeISC_PvEElEESJ_, symObjAddr: 0x2CE40, symBinAddr: 0x10003144C, symSize: 0x34 }
  - { offsetInCU: 0x235E6, offset: 0x235E6, size: 0x8, addend: 0x0, symName: __ZNSt3__112__to_addressB8ue170006INS_4pairINS_12basic_stringIcNS_11char_traitsIcEENS_9allocatorIcEEEEN4Pika8STLValueIS7_EEEEEEPT_SD_, symObjAddr: 0x2D11C, symBinAddr: 0x100031728, symSize: 0x14 }
  - { offsetInCU: 0x2361B, offset: 0x2361B, size: 0x8, addend: 0x0, symName: __ZNSt3__119__allocate_at_leastB8ue170006INS_9allocatorINS_4pairINS_12basic_stringIcNS_11char_traitsIcEENS1_IcEEEEN4Pika8STLValueIS7_EEEEEEEENS_19__allocation_resultINS_16allocator_traitsIT_E7pointerEEERSF_m, symObjAddr: 0x2D820, symBinAddr: 0x100031E2C, symSize: 0x40 }
  - { offsetInCU: 0x2365E, offset: 0x2365E, size: 0x8, addend: 0x0, symName: __ZNSt3__142__uninitialized_allocator_move_if_noexceptB8ue170006INS_9allocatorINS_4pairINS_12basic_stringIcNS_11char_traitsIcEENS1_IcEEEEN4Pika8STLValueIS7_EEEEEENS_16reverse_iteratorIPSB_EESF_SF_EET2_RT_T0_T1_SG_, symObjAddr: 0x2DAF8, symBinAddr: 0x100032104, symSize: 0x134 }
  - { offsetInCU: 0x236FE, offset: 0x236FE, size: 0x8, addend: 0x0, symName: __ZNSt3__14swapB8ue170006IPNS_4pairINS_12basic_stringIcNS_11char_traitsIcEENS_9allocatorIcEEEEN4Pika8STLValueIS7_EEEEEEvRT_SE_, symObjAddr: 0x2DC78, symBinAddr: 0x100032284, symSize: 0x3C }
  - { offsetInCU: 0x2374F, offset: 0x2374F, size: 0x8, addend: 0x0, symName: __ZNSt3__122__make_exception_guardB8ue170006INS_29_AllocatorDestroyRangeReverseINS_9allocatorINS_4pairINS_12basic_stringIcNS_11char_traitsIcEENS2_IcEEEEN4Pika8STLValueIS8_EEEEEENS_16reverse_iteratorIPSC_EEEEEENS_28__exception_guard_exceptionsIT_EESJ_, symObjAddr: 0x2DDC4, symBinAddr: 0x1000323D0, symSize: 0x4C }
  - { offsetInCU: 0x23785, offset: 0x23785, size: 0x8, addend: 0x0, symName: __ZNSt3__1neB8ue170006IPNS_4pairINS_12basic_stringIcNS_11char_traitsIcEENS_9allocatorIcEEEEN4Pika8STLValueIS7_EEEESC_EEbRKNS_16reverse_iteratorIT_EERKNSD_IT0_EE, symObjAddr: 0x2DE54, symBinAddr: 0x100032460, symSize: 0x48 }
  - { offsetInCU: 0x237D1, offset: 0x237D1, size: 0x8, addend: 0x0, symName: __ZNSt3__112__to_addressB8ue170006INS_16reverse_iteratorIPNS_4pairINS_12basic_stringIcNS_11char_traitsIcEENS_9allocatorIcEEEEN4Pika8STLValueIS8_EEEEEEvEEu7__decayIDTclsr19__to_address_helperIT_EE6__callclsr3stdE7declvalIRKSF_EEEEESH_, symObjAddr: 0x2DED0, symBinAddr: 0x1000324DC, symSize: 0x24 }
  - { offsetInCU: 0x23830, offset: 0x23830, size: 0x8, addend: 0x0, symName: __ZNSt3__119__allocator_destroyB8ue170006INS_9allocatorINS_4pairINS_12basic_stringIcNS_11char_traitsIcEENS1_IcEEEEN4Pika8STLValueIS7_EEEEEENS_16reverse_iteratorINSD_IPSB_EEEESG_EEvRT_T0_T1_, symObjAddr: 0x2E268, symBinAddr: 0x100032874, symSize: 0x70 }
  - { offsetInCU: 0x23895, offset: 0x23895, size: 0x8, addend: 0x0, symName: __ZNSt3__1neB8ue170006INS_16reverse_iteratorIPNS_4pairINS_12basic_stringIcNS_11char_traitsIcEENS_9allocatorIcEEEEN4Pika8STLValueIS8_EEEEEESE_EEbRKNS1_IT_EERKNS1_IT0_EE, symObjAddr: 0x2E314, symBinAddr: 0x100032920, symSize: 0x60 }
  - { offsetInCU: 0x238E1, offset: 0x238E1, size: 0x8, addend: 0x0, symName: __ZNSt3__112__to_addressB8ue170006INS_16reverse_iteratorINS1_IPNS_4pairINS_12basic_stringIcNS_11char_traitsIcEENS_9allocatorIcEEEEN4Pika8STLValueIS8_EEEEEEEEvEEu7__decayIDTclsr19__to_address_helperIT_EE6__callclsr3stdE7declvalIRKSG_EEEEESI_, symObjAddr: 0x2E3A0, symBinAddr: 0x1000329AC, symSize: 0x24 }
  - { offsetInCU: 0x23940, offset: 0x23940, size: 0x8, addend: 0x0, symName: __ZNSt3__1neB8ue170006ERKNS_15__tree_iteratorINS_12__value_typeIKNS_12basic_stringIcNS_11char_traitsIcEENS_9allocatorIcEEEEPN4Pika6ScriptINS9_9StdConfigEE6NativeEEEPNS_11__tree_nodeISF_PvEElEESM_, symObjAddr: 0x2EA3C, symBinAddr: 0x100033048, symSize: 0x34 }
  - { offsetInCU: 0x2397D, offset: 0x2397D, size: 0x8, addend: 0x0, symName: __ZNSt3__1eqB8ue170006ERKNS_15__tree_iteratorINS_12__value_typeIKNS_12basic_stringIcNS_11char_traitsIcEENS_9allocatorIcEEEEPN4Pika6ScriptINS9_9StdConfigEE6NativeEEEPNS_11__tree_nodeISF_PvEElEESM_, symObjAddr: 0x2EBF4, symBinAddr: 0x100033200, symSize: 0x30 }
  - { offsetInCU: 0x23A62, offset: 0x23A62, size: 0x8, addend: 0x0, symName: __ZNSt3__113__rewrap_iterB8ue170006INS_16reverse_iteratorINS_11__wrap_iterIPKcEEEES6_NS_18__unwrap_iter_implIS6_Lb0EEEEET_S9_T0_, symObjAddr: 0x2FAF4, symBinAddr: 0x100034100, symSize: 0x88 }
  - { offsetInCU: 0x23AB7, offset: 0x23AB7, size: 0x8, addend: 0x0, symName: __ZNSt3__111__find_implB8ue170006INS_16reverse_iteratorINS_11__wrap_iterIPKcEEEES6_cNS_10__identityEEET_S8_T0_RKT1_RT2_, symObjAddr: 0x2FB7C, symBinAddr: 0x100034188, symSize: 0xA4 }
  - { offsetInCU: 0x23B31, offset: 0x23B31, size: 0x8, addend: 0x0, symName: __ZNSt3__113__unwrap_iterB8ue170006INS_16reverse_iteratorINS_11__wrap_iterIPKcEEEENS_18__unwrap_iter_implIS6_Lb0EEELi0EEEDTclsrT0_8__unwrapclsr3stdE7declvalIT_EEEESA_, symObjAddr: 0x2FC20, symBinAddr: 0x10003422C, symSize: 0x44 }
  - { offsetInCU: 0x23BBD, offset: 0x23BBD, size: 0x8, addend: 0x0, symName: __ZNSt3__1neB8ue170006INS_11__wrap_iterIPKcEES4_EEbRKNS_16reverse_iteratorIT_EERKNS5_IT0_EE, symObjAddr: 0x2FC90, symBinAddr: 0x10003429C, symSize: 0x54 }
  - { offsetInCU: 0x23C09, offset: 0x23C09, size: 0x8, addend: 0x0, symName: __ZNSt3__118__find_first_of_ceB8ue170006INS_11__wrap_iterIPKcEES4_NS_10__equal_toEEET_S6_S6_T0_S7_OT1_, symObjAddr: 0x2FE30, symBinAddr: 0x10003443C, symSize: 0xD4 }
  - { offsetInCU: 0x23CA4, offset: 0x23CA4, size: 0x8, addend: 0x0, symName: __ZNSt3__1eqB8ue170006IPKNS_4pairINS_12basic_stringIcNS_11char_traitsIcEENS_9allocatorIcEEEEN4Pika8STLValueIS7_EEEEPSB_EEbRKNS_11__wrap_iterIT_EERKNSF_IT0_EE, symObjAddr: 0x302F4, symBinAddr: 0x100034900, symSize: 0x48 }
  - { offsetInCU: 0x23CF0, offset: 0x23CF0, size: 0x8, addend: 0x0, symName: __ZNSt3__112__to_addressB8ue170006IKNS_4pairINS_12basic_stringIcNS_11char_traitsIcEENS_9allocatorIcEEEEN4Pika8STLValueIS7_EEEEEEPT_SE_, symObjAddr: 0x30354, symBinAddr: 0x100034960, symSize: 0x14 }
  - { offsetInCU: 0x23D25, offset: 0x23D25, size: 0x8, addend: 0x0, symName: __ZNSt3__116__pad_and_outputB8ue170006IcNS_11char_traitsIcEEEENS_19ostreambuf_iteratorIT_T0_EES6_PKS4_S8_S8_RNS_8ios_baseES4_, symObjAddr: 0x30578, symBinAddr: 0x100034B84, symSize: 0x248 }
  - { offsetInCU: 0x23DF4, offset: 0x23DF4, size: 0x8, addend: 0x0, symName: __ZNSt3__19use_facetB8ue170006INS_5ctypeIcEEEERKT_RKNS_6localeE, symObjAddr: 0x30A74, symBinAddr: 0x100035080, symSize: 0x2C }
  - { offsetInCU: 0x242C1, offset: 0x242C1, size: 0x8, addend: 0x0, symName: __ZNSt3__17getlineB8ue170006IcNS_11char_traitsIcEENS_9allocatorIcEEEERNS_13basic_istreamIT_T0_EES9_RNS_12basic_stringIS6_S7_T1_EES6_, symObjAddr: 0x30B20, symBinAddr: 0x10003512C, symSize: 0x238 }
  - { offsetInCU: 0x2437F, offset: 0x2437F, size: 0x8, addend: 0x0, symName: __ZNSt3__122__make_exception_guardB8ue170006INS_6vectorIN4Pika8STLValueINS_12basic_stringIcNS_11char_traitsIcEENS_9allocatorIcEEEEEENS7_ISA_EEE16__destroy_vectorEEENS_28__exception_guard_exceptionsIT_EESF_, symObjAddr: 0x30FF8, symBinAddr: 0x100035604, symSize: 0x40 }
  - { offsetInCU: 0x243B4, offset: 0x243B4, size: 0x8, addend: 0x0, symName: __ZNSt3__119__allocate_at_leastB8ue170006INS_9allocatorIN4Pika8STLValueINS_12basic_stringIcNS_11char_traitsIcEENS1_IcEEEEEEEEEENS_19__allocation_resultINS_16allocator_traitsIT_E7pointerEEERSD_m, symObjAddr: 0x31408, symBinAddr: 0x100035A14, symSize: 0x40 }
  - { offsetInCU: 0x243F7, offset: 0x243F7, size: 0x8, addend: 0x0, symName: __ZNSt3__112__to_addressB8ue170006IN4Pika8STLValueINS_12basic_stringIcNS_11char_traitsIcEENS_9allocatorIcEEEEEEEEPT_SB_, symObjAddr: 0x31780, symBinAddr: 0x100035D8C, symSize: 0x14 }
  - { offsetInCU: 0x244D5, offset: 0x244D5, size: 0x8, addend: 0x0, symName: __ZNSt3__1neB8ue170006IPcEEbRKNS_11__wrap_iterIT_EES6_, symObjAddr: 0x31F54, symBinAddr: 0x100036560, symSize: 0x34 }
  - { offsetInCU: 0x24518, offset: 0x24518, size: 0x8, addend: 0x0, symName: __ZNSt3__1eqB8ue170006IPcEEbRKNS_11__wrap_iterIT_EES6_, symObjAddr: 0x31FF8, symBinAddr: 0x100036604, symSize: 0x48 }
  - { offsetInCU: 0x2455B, offset: 0x2455B, size: 0x8, addend: 0x0, symName: __ZNSt3__18mismatchB8ue170006INS_11__wrap_iterIPKcEES4_NS_10__equal_toEEENS_4pairIT_T0_EES7_S7_S8_T1_, symObjAddr: 0x32094, symBinAddr: 0x1000366A0, symSize: 0x9C }
  - { offsetInCU: 0x245CC, offset: 0x245CC, size: 0x8, addend: 0x0, symName: __ZNSt3__19__reverseB8ue170006INS_17_ClassicAlgPolicyENS_11__wrap_iterIPcEES4_EEvT0_T1_, symObjAddr: 0x32130, symBinAddr: 0x10003673C, symSize: 0x3C }
  - { offsetInCU: 0x2461D, offset: 0x2461D, size: 0x8, addend: 0x0, symName: __ZNSt3__114__reverse_implB8ue170006INS_17_ClassicAlgPolicyENS_11__wrap_iterIPcEEEEvT0_S5_NS_26random_access_iterator_tagE, symObjAddr: 0x3216C, symBinAddr: 0x100036778, symSize: 0x7C }
  - { offsetInCU: 0x2466F, offset: 0x2466F, size: 0x8, addend: 0x0, symName: __ZNSt3__1ltB8ue170006IPcEEbRKNS_11__wrap_iterIT_EES6_, symObjAddr: 0x321E8, symBinAddr: 0x1000367F4, symSize: 0x48 }
  - { offsetInCU: 0x246B2, offset: 0x246B2, size: 0x8, addend: 0x0, symName: __ZNSt3__19iter_swapB8ue170006INS_11__wrap_iterIPcEES3_EEvT_T0_, symObjAddr: 0x32294, symBinAddr: 0x1000368A0, symSize: 0x50 }
  - { offsetInCU: 0x246FA, offset: 0x246FA, size: 0x8, addend: 0x0, symName: __ZNSt3__14swapB8ue170006IcEEvRT_S2_, symObjAddr: 0x322E4, symBinAddr: 0x1000368F0, symSize: 0x3C }
  - { offsetInCU: 0x2474B, offset: 0x2474B, size: 0x8, addend: 0x0, symName: __ZNSt3__16searchB8ue170006INS_11__wrap_iterIPKcEES4_NS_10__equal_toEEET_S6_S6_T0_S7_T1_, symObjAddr: 0x32380, symBinAddr: 0x10003698C, symSize: 0x84 }
  - { offsetInCU: 0x247D8, offset: 0x247D8, size: 0x8, addend: 0x0, symName: __ZNSt3__113__search_implB8ue170006INS_11__wrap_iterIPKcEES4_S4_S4_NS_10__equal_toENS_10__identityES6_EENS_4pairIT_S8_EES8_T0_T1_T2_RT3_RT4_RT5_PNS_9enable_ifIXaasr37__has_random_access_iterator_categoryIS8_EE5valuesr37__has_random_access_iterator_categoryISB_EE5valueEvE4typeE, symObjAddr: 0x32404, symBinAddr: 0x100036A10, symSize: 0x118 }
  - { offsetInCU: 0x248BF, offset: 0x248BF, size: 0x8, addend: 0x0, symName: __ZNSt3__127__search_random_access_implB8ue170006INS_17_ClassicAlgPolicyENS_11__wrap_iterIPKcEES5_S5_S5_NS_10__equal_toENS_10__identityES7_llEENS_4pairIT0_S9_EES9_T1_T2_T3_RT4_RT5_RT6_T7_T8_, symObjAddr: 0x3251C, symBinAddr: 0x100036B28, symSize: 0x204 }
  - { offsetInCU: 0x249F3, offset: 0x249F3, size: 0x8, addend: 0x0, symName: __ZNSt3__17ptr_funB8ue170006IddEENS_25pointer_to_unary_functionIT_T0_EEPFS3_S2_E, symObjAddr: 0x32834, symBinAddr: 0x100036E40, symSize: 0x2C }
  - { offsetInCU: 0x24A31, offset: 0x24A31, size: 0x8, addend: 0x0, symName: __ZNSt3__17ptr_funB8ue170006IdddEENS_26pointer_to_binary_functionIT_T0_T1_EEPFS4_S2_S3_E, symObjAddr: 0x32C0C, symBinAddr: 0x100037218, symSize: 0x2C }
  - { offsetInCU: 0x24A78, offset: 0x24A78, size: 0x8, addend: 0x0, symName: __ZNSt3__17ptr_funB8ue170006IdNS_12basic_stringIcNS_11char_traitsIcEENS_9allocatorIcEEEEEENS_25pointer_to_unary_functionIT_T0_EEPFS9_S8_E, symObjAddr: 0x33030, symBinAddr: 0x10003763C, symSize: 0x2C }
  - { offsetInCU: 0x24AB6, offset: 0x24AB6, size: 0x8, addend: 0x0, symName: __ZNSt3__17ptr_funB8ue170006IRKN4Pika6ScriptINS1_9StdConfigEE5FrameEbEENS_25pointer_to_unary_functionIT_T0_EEPFSA_S9_E, symObjAddr: 0x3342C, symBinAddr: 0x100037A38, symSize: 0x2C }
  - { offsetInCU: 0x24AF4, offset: 0x24AF4, size: 0x8, addend: 0x0, symName: __ZNSt3__17ptr_funB8ue170006IRKNS_12basic_stringIcNS_11char_traitsIcEENS_9allocatorIcEEEES6_EENS_25pointer_to_unary_functionIT_T0_EEPFSB_SA_E, symObjAddr: 0x3372C, symBinAddr: 0x100037D38, symSize: 0x2C }
  - { offsetInCU: 0x24B32, offset: 0x24B32, size: 0x8, addend: 0x0, symName: __ZNSt3__17ptr_funB8ue170006IRN4Pika6ScriptINS1_9StdConfigEE5FrameENS1_8STLValueINS_12basic_stringIcNS_11char_traitsIcEENS_9allocatorIcEEEEEEEENS_25pointer_to_unary_functionIT_T0_EEPFSH_SG_E, symObjAddr: 0x33B1C, symBinAddr: 0x100038128, symSize: 0x2C }
  - { offsetInCU: 0x24B70, offset: 0x24B70, size: 0x8, addend: 0x0, symName: __ZNSt3__17ptr_funB8ue170006IRKN4Pika6ScriptINS1_9StdConfigEE5FrameENS1_8STLValueINS_12basic_stringIcNS_11char_traitsIcEENS_9allocatorIcEEEEEEEENS_25pointer_to_unary_functionIT_T0_EEPFSI_SH_E, symObjAddr: 0x33E10, symBinAddr: 0x10003841C, symSize: 0x2C }
  - { offsetInCU: 0x24BAE, offset: 0x24BAE, size: 0x8, addend: 0x0, symName: __ZNSt3__17ptr_funB8ue170006IRKNS_12basic_stringIcNS_11char_traitsIcEENS_9allocatorIcEEEES8_mEENS_26pointer_to_binary_functionIT_T0_T1_EEPFSC_SA_SB_E, symObjAddr: 0x34104, symBinAddr: 0x100038710, symSize: 0x2C }
  - { offsetInCU: 0x24BF5, offset: 0x24BF5, size: 0x8, addend: 0x0, symName: __ZNSt3__17ptr_funB8ue170006IRN4Pika6ScriptINS1_9StdConfigEE5FrameEvEENS_25pointer_to_unary_functionIT_T0_EEPFS9_S8_E, symObjAddr: 0x34510, symBinAddr: 0x100038B1C, symSize: 0x2C }
  - { offsetInCU: 0x24C2F, offset: 0x24C2F, size: 0x8, addend: 0x0, symName: __ZNSt3__17ptr_funB8ue170006IRKNS_12basic_stringIcNS_11char_traitsIcEENS_9allocatorIcEEEEmEENS_25pointer_to_unary_functionIT_T0_EEPFSB_SA_E, symObjAddr: 0x34838, symBinAddr: 0x100038E44, symSize: 0x2C }
  - { offsetInCU: 0x24C6D, offset: 0x24C6D, size: 0x8, addend: 0x0, symName: __ZNSt3__17ptr_funB8ue170006INS_12basic_stringIcNS_11char_traitsIcEENS_9allocatorIcEEEES6_EENS_25pointer_to_unary_functionIT_T0_EEPFS9_S8_E, symObjAddr: 0x34BE4, symBinAddr: 0x1000391F0, symSize: 0x2C }
  - { offsetInCU: 0x24CAB, offset: 0x24CAB, size: 0x8, addend: 0x0, symName: __ZNSt3__17ptr_funB8ue170006IRKNS_12basic_stringIcNS_11char_traitsIcEENS_9allocatorIcEEEEjEENS_25pointer_to_unary_functionIT_T0_EEPFSB_SA_E, symObjAddr: 0x35068, symBinAddr: 0x100039674, symSize: 0x2C }
  - { offsetInCU: 0x24CE9, offset: 0x24CE9, size: 0x8, addend: 0x0, symName: __ZNSt3__17ptr_funB8ue170006IRN4Pika6ScriptINS1_9StdConfigEE5FrameEmEENS_25pointer_to_unary_functionIT_T0_EEPFS9_S8_E, symObjAddr: 0x354D0, symBinAddr: 0x100039ADC, symSize: 0x2C }
  - { offsetInCU: 0x24D27, offset: 0x24D27, size: 0x8, addend: 0x0, symName: __ZNSt3__17ptr_funB8ue170006IRKN4Pika6ScriptINS1_9StdConfigEE5FrameENS_12basic_stringIcNS_11char_traitsIcEENS_9allocatorIcEEEEEENS_25pointer_to_unary_functionIT_T0_EEPFSG_SF_E, symObjAddr: 0x357C8, symBinAddr: 0x100039DD4, symSize: 0x2C }
  - { offsetInCU: 0x24D65, offset: 0x24D65, size: 0x8, addend: 0x0, symName: __ZNSt3__17ptr_funB8ue170006IRKNS_12basic_stringIcNS_11char_traitsIcEENS_9allocatorIcEEEEvEENS_25pointer_to_unary_functionIT_T0_EEPFSB_SA_E, symObjAddr: 0x35B04, symBinAddr: 0x10003A110, symSize: 0x2C }
  - { offsetInCU: 0x24D9F, offset: 0x24D9F, size: 0x8, addend: 0x0, symName: __ZNSt3__17ptr_funB8ue170006IRKNS_12basic_stringIcNS_11char_traitsIcEENS_9allocatorIcEEEES8_vEENS_26pointer_to_binary_functionIT_T0_T1_EEPFSC_SA_SB_E, symObjAddr: 0x35EAC, symBinAddr: 0x10003A4B8, symSize: 0x2C }
  - { offsetInCU: 0x24DE2, offset: 0x24DE2, size: 0x8, addend: 0x0, symName: __ZNSt3__17ptr_funB8ue170006IRKNS_12basic_stringIcNS_11char_traitsIcEENS_9allocatorIcEEEEiEENS_25pointer_to_unary_functionIT_T0_EEPFSB_SA_E, symObjAddr: 0x362B4, symBinAddr: 0x10003A8C0, symSize: 0x2C }
  - { offsetInCU: 0x24E20, offset: 0x24E20, size: 0x8, addend: 0x0, symName: __ZNSt3__17ptr_funB8ue170006IRKN4Pika6ScriptINS1_9StdConfigEE5FrameEvEENS_25pointer_to_unary_functionIT_T0_EEPFSA_S9_E, symObjAddr: 0x36660, symBinAddr: 0x10003AC6C, symSize: 0x2C }
  - { offsetInCU: 0x24E5A, offset: 0x24E5A, size: 0x8, addend: 0x0, symName: __ZNSt3__18distanceB8ue170006IN8QStrings7QStringIcLm52EE9_iteratorIKcKS3_EEEENS_15iterator_traitsIT_E15difference_typeES9_S9_, symObjAddr: 0x37BCC, symBinAddr: 0x10003C1D8, symSize: 0x4C }
  - { offsetInCU: 0x24E9D, offset: 0x24E9D, size: 0x8, addend: 0x0, symName: __ZNSt3__110__distanceB8ue170006IN8QStrings7QStringIcLm52EE9_iteratorIKcKS3_EEEENS_15iterator_traitsIT_E15difference_typeES9_S9_NS_26random_access_iterator_tagE, symObjAddr: 0x37E44, symBinAddr: 0x10003C450, symSize: 0x38 }
  - { offsetInCU: 0x24EEA, offset: 0x24EEA, size: 0x8, addend: 0x0, symName: __ZNSt3__118__str_find_last_ofB8ue170006IcmNS_11char_traitsIcEELm18446744073709551615EEET0_PKT_S3_S6_S3_S3_, symObjAddr: 0x3853C, symBinAddr: 0x10003CB48, symSize: 0xFC }
  - { offsetInCU: 0x24FBC, offset: 0x24FBC, size: 0x8, addend: 0x0, symName: __ZNSt3__14findB8ue170006IN8QStrings7QStringIcLm52EE9_iteratorIKcKS3_EEcEET_S8_S8_RKT0_, symObjAddr: 0x3E914, symBinAddr: 0x100042F20, symSize: 0xB4 }
  - { offsetInCU: 0x25024, offset: 0x25024, size: 0x8, addend: 0x0, symName: __ZNSt3__113__rewrap_iterB8ue170006IN8QStrings7QStringIcLm52EE9_iteratorIKcKS3_EES7_NS_18__unwrap_iter_implIS7_Lb0EEEEET_SA_T0_, symObjAddr: 0x3EA30, symBinAddr: 0x10004303C, symSize: 0x88 }
  - { offsetInCU: 0x25079, offset: 0x25079, size: 0x8, addend: 0x0, symName: __ZNSt3__111__find_implB8ue170006IN8QStrings7QStringIcLm52EE9_iteratorIKcKS3_EES7_cNS_10__identityEEET_S9_T0_RKT1_RT2_, symObjAddr: 0x3EAB8, symBinAddr: 0x1000430C4, symSize: 0xA4 }
  - { offsetInCU: 0x250F3, offset: 0x250F3, size: 0x8, addend: 0x0, symName: __ZNSt3__113__unwrap_iterB8ue170006IN8QStrings7QStringIcLm52EE9_iteratorIKcKS3_EENS_18__unwrap_iter_implIS7_Lb0EEELi0EEEDTclsrT0_8__unwrapclsr3stdE7declvalIT_EEEESB_, symObjAddr: 0x3EB5C, symBinAddr: 0x100043168, symSize: 0x44 }
  - { offsetInCU: 0x2517F, offset: 0x2517F, size: 0x8, addend: 0x0, symName: __ZNSt3__15equalB8ue170006IN8QStrings7QStringIcLm52EE9_iteratorIKcKS3_EEPS5_EEbT_S9_T0_, symObjAddr: 0x3FDC8, symBinAddr: 0x1000443D4, symSize: 0x58 }
  - { offsetInCU: 0x251D9, offset: 0x251D9, size: 0x8, addend: 0x0, symName: __ZNSt3__15equalB8ue170006IN8QStrings7QStringIcLm52EE9_iteratorIKcKS3_EEPS5_NS_10__equal_toEEEbT_SA_T0_T1_, symObjAddr: 0x4009C, symBinAddr: 0x1000446A8, symSize: 0x8C }
  - { offsetInCU: 0x2524A, offset: 0x2524A, size: 0x8, addend: 0x0, symName: __ZNSt3__117__equal_iter_implB8ue170006IN8QStrings7QStringIcLm52EE9_iteratorIKcKS3_EEPS5_NS_10__equal_toEEEbT_SA_T0_RT1_, symObjAddr: 0x40128, symBinAddr: 0x100044734, symSize: 0xBC }
  - { offsetInCU: 0x252BB, offset: 0x252BB, size: 0x8, addend: 0x0, symName: __ZNSt3__17ptr_funB8ue170006IdN8QStrings7QStringIcLm52EEEEENS_25pointer_to_unary_functionIT_T0_EEPFS6_S5_E, symObjAddr: 0x41308, symBinAddr: 0x100045914, symSize: 0x2C }
  - { offsetInCU: 0x252F9, offset: 0x252F9, size: 0x8, addend: 0x0, symName: __ZNSt3__17ptr_funB8ue170006IRKN4Pika6ScriptI19QuickerScriptConfigE5FrameEbEENS_25pointer_to_unary_functionIT_T0_EEPFSA_S9_E, symObjAddr: 0x4178C, symBinAddr: 0x100045D98, symSize: 0x2C }
  - { offsetInCU: 0x25337, offset: 0x25337, size: 0x8, addend: 0x0, symName: __ZNSt3__17ptr_funB8ue170006IRN4Pika6ScriptI19QuickerScriptConfigE5FrameENS1_8STLValueIN8QStrings7QStringIcLm52EEEEEEENS_25pointer_to_unary_functionIT_T0_EEPFSE_SD_E, symObjAddr: 0x41B28, symBinAddr: 0x100046134, symSize: 0x2C }
  - { offsetInCU: 0x25375, offset: 0x25375, size: 0x8, addend: 0x0, symName: __ZNSt3__113find_first_ofB8ue170006IN8QStrings7QStringIcLm52EE9_iteratorIKcKS3_EEPS5_EET_S9_S9_T0_SA_, symObjAddr: 0x47E00, symBinAddr: 0x10004C40C, symSize: 0x70 }
  - { offsetInCU: 0x253DD, offset: 0x253DD, size: 0x8, addend: 0x0, symName: __ZNSt3__16searchB8ue170006IN8QStrings7QStringIcLm52EE9_iteratorIKcKS3_EEPS5_EET_S9_S9_T0_SA_, symObjAddr: 0x47E70, symBinAddr: 0x10004C47C, symSize: 0x6C }
  - { offsetInCU: 0x25445, offset: 0x25445, size: 0x8, addend: 0x0, symName: __ZNSt3__118__find_first_of_ceB8ue170006IN8QStrings7QStringIcLm52EE9_iteratorIKcKS3_EEPS5_NS_10__equal_toEEET_SA_SA_T0_SB_OT1_, symObjAddr: 0x47EDC, symBinAddr: 0x10004C4E8, symSize: 0xDC }
  - { offsetInCU: 0x254E0, offset: 0x254E0, size: 0x8, addend: 0x0, symName: __ZNSt3__16searchB8ue170006IN8QStrings7QStringIcLm52EE9_iteratorIKcKS3_EEPS5_NS_10__equal_toEEET_SA_SA_T0_SB_T1_, symObjAddr: 0x47FB8, symBinAddr: 0x10004C5C4, symSize: 0x8C }
  - { offsetInCU: 0x2556F, offset: 0x2556F, size: 0x8, addend: 0x0, symName: __ZNSt3__113__search_implB8ue170006IN8QStrings7QStringIcLm52EE9_iteratorIKcKS3_EES7_PS5_S8_NS_10__equal_toENS_10__identityESA_EENS_4pairIT_SC_EESC_T0_T1_T2_RT3_RT4_RT5_PNS_9enable_ifIXaasr37__has_random_access_iterator_categoryISC_EE5valuesr37__has_random_access_iterator_categoryISF_EE5valueEvE4typeE, symObjAddr: 0x48044, symBinAddr: 0x10004C650, symSize: 0x118 }
  - { offsetInCU: 0x25658, offset: 0x25658, size: 0x8, addend: 0x0, symName: __ZNSt3__19make_pairB8ue170006IRN8QStrings7QStringIcLm52EE9_iteratorIKcKS3_EES8_EENS_4pairINS_18__unwrap_ref_decayIT_E4typeENSA_IT0_E4typeEEEOSB_OSE_, symObjAddr: 0x4815C, symBinAddr: 0x10004C768, symSize: 0x38 }
  - { offsetInCU: 0x256A7, offset: 0x256A7, size: 0x8, addend: 0x0, symName: __ZNSt3__127__search_random_access_implB8ue170006INS_17_ClassicAlgPolicyEN8QStrings7QStringIcLm52EE9_iteratorIKcKS4_EES8_PS6_S9_NS_10__equal_toENS_10__identityESB_llEENS_4pairIT0_SD_EESD_T1_T2_T3_RT4_RT5_RT6_T7_T8_, symObjAddr: 0x48194, symBinAddr: 0x10004C7A0, symSize: 0x220 }
  - { offsetInCU: 0x2588A, offset: 0x2588A, size: 0x8, addend: 0x0, symName: __ZNSt3__19make_pairB8ue170006IRN8QStrings7QStringIcLm52EE9_iteratorIKcKS3_EES7_EENS_4pairINS_18__unwrap_ref_decayIT_E4typeENSA_IT0_E4typeEEEOSB_OSE_, symObjAddr: 0x48448, symBinAddr: 0x10004CA54, symSize: 0x38 }
  - { offsetInCU: 0x25B71, offset: 0x25B71, size: 0x8, addend: 0x0, symName: __ZNSt3__14findB8ue170006INS_16reverse_iteratorIN8QStrings7QStringIcLm52EE9_iteratorIKcKS4_EEEEcEET_SA_SA_RKT0_, symObjAddr: 0x50948, symBinAddr: 0x100054F54, symSize: 0x100 }
  - { offsetInCU: 0x25BDF, offset: 0x25BDF, size: 0x8, addend: 0x0, symName: __ZNSt3__113__rewrap_iterB8ue170006INS_16reverse_iteratorIN8QStrings7QStringIcLm52EE9_iteratorIKcKS4_EEEES9_NS_18__unwrap_iter_implIS9_Lb0EEEEET_SC_T0_, symObjAddr: 0x50B30, symBinAddr: 0x10005513C, symSize: 0xC0 }
  - { offsetInCU: 0x25C38, offset: 0x25C38, size: 0x8, addend: 0x0, symName: __ZNSt3__111__find_implB8ue170006INS_16reverse_iteratorIN8QStrings7QStringIcLm52EE9_iteratorIKcKS4_EEEES9_cNS_10__identityEEET_SB_T0_RKT1_RT2_, symObjAddr: 0x50BF0, symBinAddr: 0x1000551FC, symSize: 0xA8 }
  - { offsetInCU: 0x25CB4, offset: 0x25CB4, size: 0x8, addend: 0x0, symName: __ZNSt3__113__unwrap_iterB8ue170006INS_16reverse_iteratorIN8QStrings7QStringIcLm52EE9_iteratorIKcKS4_EEEENS_18__unwrap_iter_implIS9_Lb0EEELi0EEEDTclsrT0_8__unwrapclsr3stdE7declvalIT_EEEESD_, symObjAddr: 0x50C98, symBinAddr: 0x1000552A4, symSize: 0x78 }
  - { offsetInCU: 0x25D41, offset: 0x25D41, size: 0x8, addend: 0x0, symName: __ZNSt3__1neB8ue170006IN8QStrings7QStringIcLm52EE9_iteratorIKcKS3_EES7_EEbRKNS_16reverse_iteratorIT_EERKNS8_IT0_EE, symObjAddr: 0x50D48, symBinAddr: 0x100055354, symSize: 0x60 }
  - { offsetInCU: 0x25D8D, offset: 0x25D8D, size: 0x8, addend: 0x0, symName: __ZNSt3__17ptr_funB8ue170006IRKN4Pika6ScriptI19QuickerScriptConfigE5FrameENS1_8STLValueIN8QStrings7QStringIcLm52EEEEEEENS_25pointer_to_unary_functionIT_T0_EEPFSF_SE_E, symObjAddr: 0x50F84, symBinAddr: 0x100055590, symSize: 0x2C }
  - { offsetInCU: 0x25DCB, offset: 0x25DCB, size: 0x8, addend: 0x0, symName: __ZNSt3__17ptr_funB8ue170006IRKN8QStrings7QStringIcLm52EEES5_mEENS_26pointer_to_binary_functionIT_T0_T1_EEPFS9_S7_S8_E, symObjAddr: 0x51278, symBinAddr: 0x100055884, symSize: 0x2C }
  - { offsetInCU: 0x25E12, offset: 0x25E12, size: 0x8, addend: 0x0, symName: __ZNSt3__113find_first_ofB8ue170006IN8QStrings7QStringIcLm52EE9_iteratorIKcKS3_EES7_EET_S8_S8_T0_S9_, symObjAddr: 0x51608, symBinAddr: 0x100055C14, symSize: 0xA4 }
  - { offsetInCU: 0x25E7B, offset: 0x25E7B, size: 0x8, addend: 0x0, symName: __ZNSt3__118__find_first_of_ceB8ue170006IN8QStrings7QStringIcLm52EE9_iteratorIKcKS3_EES7_NS_10__equal_toEEET_S9_S9_T0_SA_OT1_, symObjAddr: 0x516AC, symBinAddr: 0x100055CB8, symSize: 0xEC }
  - { offsetInCU: 0x25F17, offset: 0x25F17, size: 0x8, addend: 0x0, symName: __ZNSt3__17ptr_funB8ue170006IRN4Pika6ScriptI19QuickerScriptConfigE5FrameEvEENS_25pointer_to_unary_functionIT_T0_EEPFS9_S8_E, symObjAddr: 0x517F4, symBinAddr: 0x100055E00, symSize: 0x2C }
  - { offsetInCU: 0x25F51, offset: 0x25F51, size: 0x8, addend: 0x0, symName: __ZNSt3__1neB8ue170006IPKNS_4pairIN8QStrings7QStringIcLm52EEEN4Pika8STLValueIS4_EEEEPS8_EEbRKNS_11__wrap_iterIT_EERKNSC_IT0_EE, symObjAddr: 0x51B24, symBinAddr: 0x100056130, symSize: 0x34 }
  - { offsetInCU: 0x25F9D, offset: 0x25F9D, size: 0x8, addend: 0x0, symName: __ZNSt3__1eqB8ue170006IPKNS_4pairIN8QStrings7QStringIcLm52EEEN4Pika8STLValueIS4_EEEEPS8_EEbRKNS_11__wrap_iterIT_EERKNSC_IT0_EE, symObjAddr: 0x51E04, symBinAddr: 0x100056410, symSize: 0x48 }
  - { offsetInCU: 0x25FE9, offset: 0x25FE9, size: 0x8, addend: 0x0, symName: __ZNSt3__112__to_addressB8ue170006IKNS_4pairIN8QStrings7QStringIcLm52EEEN4Pika8STLValueIS4_EEEEEEPT_SB_, symObjAddr: 0x51E64, symBinAddr: 0x100056470, symSize: 0x14 }
  - { offsetInCU: 0x2601E, offset: 0x2601E, size: 0x8, addend: 0x0, symName: __ZNSt3__122__make_exception_guardB8ue170006INS_6vectorIN4Pika8STLValueIN8QStrings7QStringIcLm52EEEEENS_9allocatorIS7_EEE16__destroy_vectorEEENS_28__exception_guard_exceptionsIT_EESD_, symObjAddr: 0x5235C, symBinAddr: 0x100056968, symSize: 0x40 }
  - { offsetInCU: 0x26053, offset: 0x26053, size: 0x8, addend: 0x0, symName: __ZNSt3__119__allocate_at_leastB8ue170006INS_9allocatorIN4Pika8STLValueIN8QStrings7QStringIcLm52EEEEEEEEENS_19__allocation_resultINS_16allocator_traitsIT_E7pointerEEERSB_m, symObjAddr: 0x5276C, symBinAddr: 0x100056D78, symSize: 0x40 }
  - { offsetInCU: 0x26096, offset: 0x26096, size: 0x8, addend: 0x0, symName: __ZNSt3__112__to_addressB8ue170006IN4Pika8STLValueIN8QStrings7QStringIcLm52EEEEEEEPT_S8_, symObjAddr: 0x52AE4, symBinAddr: 0x1000570F0, symSize: 0x14 }
  - { offsetInCU: 0x260CB, offset: 0x260CB, size: 0x8, addend: 0x0, symName: __ZNSt3__17ptr_funB8ue170006IRKN8QStrings7QStringIcLm52EEEmEENS_25pointer_to_unary_functionIT_T0_EEPFS8_S7_E, symObjAddr: 0x5304C, symBinAddr: 0x100057658, symSize: 0x2C }
  - { offsetInCU: 0x26109, offset: 0x26109, size: 0x8, addend: 0x0, symName: __ZNSt3__17ptr_funB8ue170006IN8QStrings7QStringIcLm52EEES3_EENS_25pointer_to_unary_functionIT_T0_EEPFS6_S5_E, symObjAddr: 0x533E8, symBinAddr: 0x1000579F4, symSize: 0x2C }
  - { offsetInCU: 0x26147, offset: 0x26147, size: 0x8, addend: 0x0, symName: __ZNSt3__19transformB8ue170006IN8QStrings7QStringIcLm52EE9_iteratorIcS3_EES5_NS_9binder2ndINS_26pointer_to_binary_functionIcRKNS_6localeEcEEEEEET0_T_SE_SD_T1_, symObjAddr: 0x537E8, symBinAddr: 0x100057DF4, symSize: 0xA4 }
  - { offsetInCU: 0x261B8, offset: 0x261B8, size: 0x8, addend: 0x0, symName: __ZNSt3__18mismatchB8ue170006IN8QStrings7QStringIcLm52EE9_iteratorIKcKS3_EES7_EENS_4pairIT_T0_EES9_S9_SA_, symObjAddr: 0x538DC, symBinAddr: 0x100057EE8, symSize: 0x64 }
  - { offsetInCU: 0x26212, offset: 0x26212, size: 0x8, addend: 0x0, symName: __ZNSt3__18mismatchB8ue170006IN8QStrings7QStringIcLm52EE9_iteratorIKcKS3_EES7_NS_10__equal_toEEENS_4pairIT_T0_EESA_SA_SB_T1_, symObjAddr: 0x53940, symBinAddr: 0x100057F4C, symSize: 0xA4 }
  - { offsetInCU: 0x26283, offset: 0x26283, size: 0x8, addend: 0x0, symName: __ZNSt3__17ptr_funB8ue170006IRKN8QStrings7QStringIcLm52EEEjEENS_25pointer_to_unary_functionIT_T0_EEPFS8_S7_E, symObjAddr: 0x53A40, symBinAddr: 0x10005804C, symSize: 0x2C }
  - { offsetInCU: 0x262C1, offset: 0x262C1, size: 0x8, addend: 0x0, symName: __ZNSt3__17ptr_funB8ue170006IRN4Pika6ScriptI19QuickerScriptConfigE5FrameEmEENS_25pointer_to_unary_functionIT_T0_EEPFS9_S8_E, symObjAddr: 0x53EF0, symBinAddr: 0x1000584FC, symSize: 0x2C }
  - { offsetInCU: 0x262FF, offset: 0x262FF, size: 0x8, addend: 0x0, symName: __ZNSt3__17ptr_funB8ue170006IRKN4Pika6ScriptI19QuickerScriptConfigE5FrameEN8QStrings7QStringIcLm52EEEEENS_25pointer_to_unary_functionIT_T0_EEPFSD_SC_E, symObjAddr: 0x546A0, symBinAddr: 0x100058CAC, symSize: 0x2C }
  - { offsetInCU: 0x2633D, offset: 0x2633D, size: 0x8, addend: 0x0, symName: __ZNSt3__17ptr_funB8ue170006IRKN8QStrings7QStringIcLm52EEEvEENS_25pointer_to_unary_functionIT_T0_EEPFS8_S7_E, symObjAddr: 0x549D4, symBinAddr: 0x100058FE0, symSize: 0x2C }
  - { offsetInCU: 0x26377, offset: 0x26377, size: 0x8, addend: 0x0, symName: __ZNSt3__17reverseB8ue170006IN8QStrings7QStringIcLm52EE9_iteratorIcS3_EEEEvT_S6_, symObjAddr: 0x54D94, symBinAddr: 0x1000593A0, symSize: 0x4C }
  - { offsetInCU: 0x263B6, offset: 0x263B6, size: 0x8, addend: 0x0, symName: __ZNSt3__19__reverseB8ue170006INS_17_ClassicAlgPolicyEN8QStrings7QStringIcLm52EE9_iteratorIcS4_EES6_EEvT0_T1_, symObjAddr: 0x54DE0, symBinAddr: 0x1000593EC, symSize: 0x4C }
  - { offsetInCU: 0x26407, offset: 0x26407, size: 0x8, addend: 0x0, symName: __ZNSt3__114__reverse_implB8ue170006INS_17_ClassicAlgPolicyEN8QStrings7QStringIcLm52EE9_iteratorIcS4_EEEEvT0_S7_NS_26random_access_iterator_tagE, symObjAddr: 0x54E2C, symBinAddr: 0x100059438, symSize: 0x80 }
  - { offsetInCU: 0x26459, offset: 0x26459, size: 0x8, addend: 0x0, symName: __ZNSt3__19iter_swapB8ue170006IN8QStrings7QStringIcLm52EE9_iteratorIcS3_EES5_EEvT_T0_, symObjAddr: 0x54F9C, symBinAddr: 0x1000595A8, symSize: 0x58 }
  - { offsetInCU: 0x264A1, offset: 0x264A1, size: 0x8, addend: 0x0, symName: __ZNSt3__17ptr_funB8ue170006IRKN8QStrings7QStringIcLm52EEES5_vEENS_26pointer_to_binary_functionIT_T0_T1_EEPFS9_S7_S8_E, symObjAddr: 0x55050, symBinAddr: 0x10005965C, symSize: 0x2C }
  - { offsetInCU: 0x264E4, offset: 0x264E4, size: 0x8, addend: 0x0, symName: __ZNSt3__16searchB8ue170006IN8QStrings7QStringIcLm52EE9_iteratorIKcKS3_EES7_EET_S8_S8_T0_S9_, symObjAddr: 0x55460, symBinAddr: 0x100059A6C, symSize: 0x98 }
  - { offsetInCU: 0x2654D, offset: 0x2654D, size: 0x8, addend: 0x0, symName: __ZNSt3__16searchB8ue170006IN8QStrings7QStringIcLm52EE9_iteratorIKcKS3_EES7_NS_10__equal_toEEET_S9_S9_T0_SA_T1_, symObjAddr: 0x554F8, symBinAddr: 0x100059B04, symSize: 0xB4 }
  - { offsetInCU: 0x265DD, offset: 0x265DD, size: 0x8, addend: 0x0, symName: __ZNSt3__113__search_implB8ue170006IN8QStrings7QStringIcLm52EE9_iteratorIKcKS3_EES7_S7_S7_NS_10__equal_toENS_10__identityES9_EENS_4pairIT_SB_EESB_T0_T1_T2_RT3_RT4_RT5_PNS_9enable_ifIXaasr37__has_random_access_iterator_categoryISB_EE5valuesr37__has_random_access_iterator_categoryISE_EE5valueEvE4typeE, symObjAddr: 0x555AC, symBinAddr: 0x100059BB8, symSize: 0x150 }
  - { offsetInCU: 0x266C9, offset: 0x266C9, size: 0x8, addend: 0x0, symName: __ZNSt3__127__search_random_access_implB8ue170006INS_17_ClassicAlgPolicyEN8QStrings7QStringIcLm52EE9_iteratorIKcKS4_EES8_S8_S8_NS_10__equal_toENS_10__identityESA_llEENS_4pairIT0_SC_EESC_T1_T2_T3_RT4_RT5_RT6_T7_T8_, symObjAddr: 0x556FC, symBinAddr: 0x100059D08, symSize: 0x234 }
  - { offsetInCU: 0x26800, offset: 0x26800, size: 0x8, addend: 0x0, symName: __ZNSt3__17ptr_funB8ue170006IRKN8QStrings7QStringIcLm52EEEiEENS_25pointer_to_unary_functionIT_T0_EEPFS8_S7_E, symObjAddr: 0x559D4, symBinAddr: 0x100059FE0, symSize: 0x2C }
  - { offsetInCU: 0x2683E, offset: 0x2683E, size: 0x8, addend: 0x0, symName: __ZNSt3__17ptr_funB8ue170006IRKN4Pika6ScriptI19QuickerScriptConfigE5FrameEvEENS_25pointer_to_unary_functionIT_T0_EEPFSA_S9_E, symObjAddr: 0x55DF4, symBinAddr: 0x10005A400, symSize: 0x2C }
  - { offsetInCU: 0x26878, offset: 0x26878, size: 0x8, addend: 0x0, symName: __ZNSt3__17ptr_funB8ue170006IRKN8QStrings7QStringIcLm52EEES3_EENS_25pointer_to_unary_functionIT_T0_EEPFS8_S7_E, symObjAddr: 0x56100, symBinAddr: 0x10005A70C, symSize: 0x2C }
  - { offsetInCU: 0x268B6, offset: 0x268B6, size: 0x8, addend: 0x0, symName: __ZNSt3__142__uninitialized_allocator_move_if_noexceptB8ue170006INS_9allocatorIN4Pika8STLValueIN8QStrings7QStringIcLm52EEEEEEENS_16reverse_iteratorIPS7_EESB_SB_EET2_RT_T0_T1_SC_, symObjAddr: 0x56E4C, symBinAddr: 0x10005B458, symSize: 0x134 }
  - { offsetInCU: 0x26956, offset: 0x26956, size: 0x8, addend: 0x0, symName: __ZNSt3__14swapB8ue170006IPN4Pika8STLValueIN8QStrings7QStringIcLm52EEEEEEEvRT_S9_, symObjAddr: 0x56FCC, symBinAddr: 0x10005B5D8, symSize: 0x3C }
  - { offsetInCU: 0x269A7, offset: 0x269A7, size: 0x8, addend: 0x0, symName: __ZNSt3__122__make_exception_guardB8ue170006INS_29_AllocatorDestroyRangeReverseINS_9allocatorIN4Pika8STLValueIN8QStrings7QStringIcLm52EEEEEEENS_16reverse_iteratorIPS8_EEEEEENS_28__exception_guard_exceptionsIT_EESF_, symObjAddr: 0x57008, symBinAddr: 0x10005B614, symSize: 0x4C }
  - { offsetInCU: 0x269DD, offset: 0x269DD, size: 0x8, addend: 0x0, symName: __ZNSt3__1neB8ue170006IPN4Pika8STLValueIN8QStrings7QStringIcLm52EEEEES7_EEbRKNS_16reverse_iteratorIT_EERKNS8_IT0_EE, symObjAddr: 0x57098, symBinAddr: 0x10005B6A4, symSize: 0x48 }
  - { offsetInCU: 0x26A29, offset: 0x26A29, size: 0x8, addend: 0x0, symName: __ZNSt3__112__to_addressB8ue170006INS_16reverse_iteratorIPN4Pika8STLValueIN8QStrings7QStringIcLm52EEEEEEEvEEu7__decayIDTclsr19__to_address_helperIT_EE6__callclsr3stdE7declvalIRKSA_EEEEESC_, symObjAddr: 0x570E0, symBinAddr: 0x10005B6EC, symSize: 0x24 }
  - { offsetInCU: 0x26A88, offset: 0x26A88, size: 0x8, addend: 0x0, symName: __ZNSt3__119__allocator_destroyB8ue170006INS_9allocatorIN4Pika8STLValueIN8QStrings7QStringIcLm52EEEEEEENS_16reverse_iteratorINS9_IPS7_EEEESC_EEvRT_T0_T1_, symObjAddr: 0x5739C, symBinAddr: 0x10005B9A8, symSize: 0x70 }
  - { offsetInCU: 0x26AED, offset: 0x26AED, size: 0x8, addend: 0x0, symName: __ZNSt3__1neB8ue170006INS_16reverse_iteratorIPN4Pika8STLValueIN8QStrings7QStringIcLm52EEEEEEES9_EEbRKNS1_IT_EERKNS1_IT0_EE, symObjAddr: 0x57448, symBinAddr: 0x10005BA54, symSize: 0x60 }
  - { offsetInCU: 0x26B39, offset: 0x26B39, size: 0x8, addend: 0x0, symName: __ZNSt3__112__to_addressB8ue170006INS_16reverse_iteratorINS1_IPN4Pika8STLValueIN8QStrings7QStringIcLm52EEEEEEEEEvEEu7__decayIDTclsr19__to_address_helperIT_EE6__callclsr3stdE7declvalIRKSB_EEEEESD_, symObjAddr: 0x574A8, symBinAddr: 0x10005BAB4, symSize: 0x24 }
  - { offsetInCU: 0x26E65, offset: 0x26E65, size: 0x8, addend: 0x0, symName: __ZSt28__throw_bad_array_new_lengthB8ue170006v, symObjAddr: 0x1EBD0, symBinAddr: 0x1000231DC, symSize: 0x34 }
  - { offsetInCU: 0x27347, offset: 0x27347, size: 0x8, addend: 0x0, symName: __ZN4Pika6ScriptINS_9StdConfigEE5Frame5whiteERNSt3__111__wrap_iterIPKcEERKS8_, symObjAddr: 0x7088, symBinAddr: 0x10000B694, symSize: 0x2EC }
  - { offsetInCU: 0x2736D, offset: 0x2736D, size: 0x8, addend: 0x0, symName: __ZZN4Pika6ScriptINS_9StdConfigEE5Frame5whiteERNSt3__111__wrap_iterIPKcEERKS8_E9END_CHARS, symObjAddr: 0x73ECD, symBinAddr: 0x10006229C, symSize: 0x0 }
  - { offsetInCU: 0x27383, offset: 0x27383, size: 0x8, addend: 0x0, symName: __ZZN4Pika6ScriptINS_9StdConfigEE5Frame5whiteERNSt3__111__wrap_iterIPKcEERKS8_E9END_CHARS_0, symObjAddr: 0x73ECF, symBinAddr: 0x10006229E, symSize: 0x0 }
  - { offsetInCU: 0x274C1, offset: 0x274C1, size: 0x8, addend: 0x0, symName: _BUILT_IN_DEBUG, symObjAddr: 0x76260, symBinAddr: 0x100080000, symSize: 0x0 }
  - { offsetInCU: 0x274D7, offset: 0x274D7, size: 0x8, addend: 0x0, symName: _BUILT_IN_HELP, symObjAddr: 0x76268, symBinAddr: 0x100080008, symSize: 0x0 }
  - { offsetInCU: 0x274ED, offset: 0x274ED, size: 0x8, addend: 0x0, symName: _BUILT_IN_INTERACTIVE, symObjAddr: 0x76270, symBinAddr: 0x100080010, symSize: 0x0 }
  - { offsetInCU: 0x27503, offset: 0x27503, size: 0x8, addend: 0x0, symName: _BUILT_IN_STDLIB, symObjAddr: 0x76278, symBinAddr: 0x100080018, symSize: 0x0 }
  - { offsetInCU: 0x27519, offset: 0x27519, size: 0x8, addend: 0x0, symName: _BUILT_IN_USAGE, symObjAddr: 0x76280, symBinAddr: 0x100080020, symSize: 0x0 }
  - { offsetInCU: 0x2752F, offset: 0x2752F, size: 0x8, addend: 0x0, symName: _BUILT_IN_DEFAULT, symObjAddr: 0x76288, symBinAddr: 0x100080028, symSize: 0x0 }
  - { offsetInCU: 0x27545, offset: 0x27545, size: 0x8, addend: 0x0, symName: _BUILT_IN_DIRECT, symObjAddr: 0x76290, symBinAddr: 0x100080030, symSize: 0x0 }
  - { offsetInCU: 0x2755B, offset: 0x2755B, size: 0x8, addend: 0x0, symName: _BUILT_IN_FILES, symObjAddr: 0x1C6588, symBinAddr: 0x100080090, symSize: 0x0 }
  - { offsetInCU: 0x28462, offset: 0x28462, size: 0x8, addend: 0x0, symName: __ZN8QStrings8unitTestEv, symObjAddr: 0x16470, symBinAddr: 0x10001AA7C, symSize: 0x11A0 }
  - { offsetInCU: 0x2850C, offset: 0x2850C, size: 0x8, addend: 0x0, symName: __ZN8QStringsmiERKNS_7QStringIcLm52EE9_iteratorIKcKS1_EES7_, symObjAddr: 0x17E94, symBinAddr: 0x10001C4A0, symSize: 0x78 }
  - { offsetInCU: 0x28549, offset: 0x28549, size: 0x8, addend: 0x0, symName: __ZN8QStringsmiERKNS_7QStringIcLm52EE9_iteratorIKcKS1_EEl, symObjAddr: 0x17F24, symBinAddr: 0x10001C530, symSize: 0x48 }
  - { offsetInCU: 0x28586, offset: 0x28586, size: 0x8, addend: 0x0, symName: __ZN8QStringsplERKNS_7QStringIcLm52EE9_iteratorIKcKS1_EEl, symObjAddr: 0x17F9C, symBinAddr: 0x10001C5A8, symSize: 0x48 }
  - { offsetInCU: 0x28673, offset: 0x28673, size: 0x8, addend: 0x0, symName: _pikaCmdDir, symObjAddr: 0x1C66A8, symBinAddr: 0x1000801B0, symSize: 0x0 }
  - { offsetInCU: 0x2867D, offset: 0x2867D, size: 0x8, addend: 0x0, symName: __ZN8QStrings7QStringIcLm52EE17obtainDummyBufferEv, symObjAddr: 0x1BDBC, symBinAddr: 0x1000203C8, symSize: 0xC0 }
  - { offsetInCU: 0x2869F, offset: 0x2869F, size: 0x8, addend: 0x0, symName: __ZZN8QStrings7QStringIcLm52EE17obtainDummyBufferEvE5dummy, symObjAddr: 0x76298, symBinAddr: 0x100080038, symSize: 0x0 }
  - { offsetInCU: 0x286AA, offset: 0x286AA, size: 0x8, addend: 0x0, symName: __ZN8QStrings7QStringIcLm52EE6Buffer14obtainPoolHeadEv, symObjAddr: 0x1C27C, symBinAddr: 0x100020888, symSize: 0xC }
  - { offsetInCU: 0x286CA, offset: 0x286CA, size: 0x8, addend: 0x0, symName: __ZZN8QStrings7QStringIcLm52EE6Buffer14obtainPoolHeadEvE8poolHead, symObjAddr: 0x762E8, symBinAddr: 0x100080088, symSize: 0x0 }
  - { offsetInCU: 0x289EB, offset: 0x289EB, size: 0x8, addend: 0x0, symName: __ZN4Pika6ScriptI19QuickerScriptConfigE5Frame5whiteERN8QStrings7QStringIcLm52EE9_iteratorIKcKS6_EERKSA_, symObjAddr: 0x4342C, symBinAddr: 0x100047A38, symSize: 0x33C }
  - { offsetInCU: 0x28A11, offset: 0x28A11, size: 0x8, addend: 0x0, symName: __ZZN4Pika6ScriptI19QuickerScriptConfigE5Frame5whiteERN8QStrings7QStringIcLm52EE9_iteratorIKcKS6_EERKSA_E9END_CHARS, symObjAddr: 0x74D89, symBinAddr: 0x100063158, symSize: 0x0 }
  - { offsetInCU: 0x28A27, offset: 0x28A27, size: 0x8, addend: 0x0, symName: __ZZN4Pika6ScriptI19QuickerScriptConfigE5Frame5whiteERN8QStrings7QStringIcLm52EE9_iteratorIKcKS6_EERKSA_E9END_CHARS_0, symObjAddr: 0x74D8B, symBinAddr: 0x10006315A, symSize: 0x0 }
  - { offsetInCU: 0x29920, offset: 0x29920, size: 0x8, addend: 0x0, symName: __ZNSt3__16vectorINS_4pairIN8QStrings7QStringIcLm52EEEN4Pika8STLValueIS4_EEEENS_9allocatorIS8_EEE26__swap_out_circular_bufferERNS_14__split_bufferIS8_RSA_EE, symObjAddr: 0x2079C, symBinAddr: 0x100024DA8, symSize: 0x110 }
  - { offsetInCU: 0x299B2, offset: 0x299B2, size: 0x8, addend: 0x0, symName: __Z3powB8ue170006IidENSt3__19enable_ifIXaasr3std13is_arithmeticIT_EE5valuesr3std13is_arithmeticIT0_EE5valueENS0_9__promoteIS2_S3_vEEE4type4typeES2_S3_, symObjAddr: 0x27CDC, symBinAddr: 0x10002C2E8, symSize: 0x38 }
  - { offsetInCU: 0x29A0E, offset: 0x29A0E, size: 0x8, addend: 0x0, symName: __ZNSt3__16vectorINS_4pairINS_12basic_stringIcNS_11char_traitsIcEENS_9allocatorIcEEEEN4Pika8STLValueIS7_EEEENS5_ISB_EEE26__swap_out_circular_bufferERNS_14__split_bufferISB_RSC_EE, symObjAddr: 0x2D3FC, symBinAddr: 0x100031A08, symSize: 0x110 }
  - { offsetInCU: 0x2A331, offset: 0x2A331, size: 0x8, addend: 0x0, symName: __ZNSt3__16vectorIN4Pika8STLValueIN8QStrings7QStringIcLm52EEEEENS_9allocatorIS6_EEE26__swap_out_circular_bufferERNS_14__split_bufferIS6_RS8_EE, symObjAddr: 0x56AD8, symBinAddr: 0x10005B0E4, symSize: 0x110 }
  - { offsetInCU: 0x2C6E6, offset: 0x2C6E6, size: 0x8, addend: 0x0, symName: __ZN4Pika6ScriptINS_9StdConfigEE6Native8pikaCallERNS2_5FrameE, symObjAddr: 0x0, symBinAddr: 0x10000460C, symSize: 0xDC }
  - { offsetInCU: 0x2C71D, offset: 0x2C71D, size: 0x8, addend: 0x0, symName: __ZNSt3__112basic_stringIcNS_11char_traitsIcEENS_9allocatorIcEEEC1B8ue170006ILi0EEEPKc, symObjAddr: 0xDC, symBinAddr: 0x1000046E8, symSize: 0x34 }
  - { offsetInCU: 0x2C75C, offset: 0x2C75C, size: 0x8, addend: 0x0, symName: __ZN4Pika9ExceptionINSt3__112basic_stringIcNS1_11char_traitsIcEENS1_9allocatorIcEEEEEC1ERKS7_, symObjAddr: 0x110, symBinAddr: 0x10000471C, symSize: 0x34 }
  - { offsetInCU: 0x2C794, offset: 0x2C794, size: 0x8, addend: 0x0, symName: __ZN4Pika9ExceptionINSt3__112basic_stringIcNS1_11char_traitsIcEENS1_9allocatorIcEEEEED1Ev, symObjAddr: 0x144, symBinAddr: 0x100004750, symSize: 0x2C }
  - { offsetInCU: 0x2C7BE, offset: 0x2C7BE, size: 0x8, addend: 0x0, symName: __ZN4Pika6ScriptINS_9StdConfigEE6NativeD2Ev, symObjAddr: 0x17C, symBinAddr: 0x100004788, symSize: 0x14 }
  - { offsetInCU: 0x2C7EA, offset: 0x2C7EA, size: 0x8, addend: 0x0, symName: __ZN4Pika6ScriptINS_9StdConfigEE6NativeD1Ev, symObjAddr: 0x190, symBinAddr: 0x10000479C, symSize: 0x2C }
  - { offsetInCU: 0x2C816, offset: 0x2C816, size: 0x8, addend: 0x0, symName: __ZN4Pika6ScriptINS_9StdConfigEE6NativeD0Ev, symObjAddr: 0x1BC, symBinAddr: 0x1000047C8, symSize: 0x30 }
  - { offsetInCU: 0x2C842, offset: 0x2C842, size: 0x8, addend: 0x0, symName: __ZN4Pika6ScriptINS_9StdConfigEE4RootC2ERNS2_9VariablesE, symObjAddr: 0x1EC, symBinAddr: 0x1000047F8, symSize: 0xE8 }
  - { offsetInCU: 0x2C87D, offset: 0x2C87D, size: 0x8, addend: 0x0, symName: __ZN4Pika6ScriptINS_9StdConfigEE5FrameC2ERNS2_9VariablesERNS2_4RootEPS3_, symObjAddr: 0x2D4, symBinAddr: 0x1000048E0, symSize: 0xAC }
  - { offsetInCU: 0x2C8D6, offset: 0x2C8D6, size: 0x8, addend: 0x0, symName: __ZN4Pika8STLValueINSt3__112basic_stringIcNS1_11char_traitsIcEENS1_9allocatorIcEEEEEC1Ev, symObjAddr: 0x380, symBinAddr: 0x10000498C, symSize: 0x2C }
  - { offsetInCU: 0x2C900, offset: 0x2C900, size: 0x8, addend: 0x0, symName: __ZN4Pika8STLValueINSt3__112basic_stringIcNS1_11char_traitsIcEENS1_9allocatorIcEEEEED1Ev, symObjAddr: 0x3F0, symBinAddr: 0x1000049FC, symSize: 0x2C }
  - { offsetInCU: 0x2C92C, offset: 0x2C92C, size: 0x8, addend: 0x0, symName: __ZN4Pika6ScriptINS_9StdConfigEE5FrameD2Ev, symObjAddr: 0x41C, symBinAddr: 0x100004A28, symSize: 0x40 }
  - { offsetInCU: 0x2C956, offset: 0x2C956, size: 0x8, addend: 0x0, symName: __ZN4Pika6ScriptINS_9StdConfigEE4RootC1ERNS2_9VariablesE, symObjAddr: 0x45C, symBinAddr: 0x100004A68, symSize: 0x34 }
  - { offsetInCU: 0x2C991, offset: 0x2C991, size: 0x8, addend: 0x0, symName: __ZN4Pika6ScriptINS_9StdConfigEE4Root5traceERNS2_5FrameERKNSt3__112basic_stringIcNS6_11char_traitsIcEENS6_9allocatorIcEEEEmbRKNS_8STLValueISC_EENS_10PrecedenceEb, symObjAddr: 0x490, symBinAddr: 0x100004A9C, symSize: 0x39C }
  - { offsetInCU: 0x2CA40, offset: 0x2CA40, size: 0x8, addend: 0x0, symName: __ZNK4Pika8STLValueINSt3__112basic_stringIcNS1_11char_traitsIcEENS1_9allocatorIcEEEEE6isVoidEv, symObjAddr: 0x82C, symBinAddr: 0x100004E38, symSize: 0x28 }
  - { offsetInCU: 0x2CA66, offset: 0x2CA66, size: 0x8, addend: 0x0, symName: __ZN4Pika8STLValueINSt3__112basic_stringIcNS1_11char_traitsIcEENS1_9allocatorIcEEEEEC1IS7_EERKT_, symObjAddr: 0x854, symBinAddr: 0x100004E60, symSize: 0x34 }
  - { offsetInCU: 0x2CAA7, offset: 0x2CAA7, size: 0x8, addend: 0x0, symName: __ZN4Pika8STLValueINSt3__112basic_stringIcNS1_11char_traitsIcEENS1_9allocatorIcEEEEEC1Em, symObjAddr: 0x888, symBinAddr: 0x100004E94, symSize: 0x34 }
  - { offsetInCU: 0x2CADF, offset: 0x2CADF, size: 0x8, addend: 0x0, symName: __ZN4Pika8STLValueINSt3__112basic_stringIcNS1_11char_traitsIcEENS1_9allocatorIcEEEEEC1Eb, symObjAddr: 0x8BC, symBinAddr: 0x100004EC8, symSize: 0x40 }
  - { offsetInCU: 0x2CB17, offset: 0x2CB17, size: 0x8, addend: 0x0, symName: __ZN4Pika8STLValueINSt3__112basic_stringIcNS1_11char_traitsIcEENS1_9allocatorIcEEEEEC1ERKS8_, symObjAddr: 0x8FC, symBinAddr: 0x100004F08, symSize: 0x34 }
  - { offsetInCU: 0x2CB4C, offset: 0x2CB4C, size: 0x8, addend: 0x0, symName: __ZN4Pika8STLValueINSt3__112basic_stringIcNS1_11char_traitsIcEENS1_9allocatorIcEEEEEC1Ei, symObjAddr: 0x930, symBinAddr: 0x100004F3C, symSize: 0x34 }
  - { offsetInCU: 0x2CB84, offset: 0x2CB84, size: 0x8, addend: 0x0, symName: __ZN4Pika6ScriptINS_9StdConfigEE5Frame4callERKNSt3__112basic_stringIcNS4_11char_traitsIcEENS4_9allocatorIcEEEERKNS_8STLValueISA_EElPSF_, symObjAddr: 0x964, symBinAddr: 0x100004F70, symSize: 0x398 }
  - { offsetInCU: 0x2CC1E, offset: 0x2CC1E, size: 0x8, addend: 0x0, symName: __ZNSt3__112basic_stringIcNS_11char_traitsIcEENS_9allocatorIcEEEC1B8ue170006Ev, symObjAddr: 0xCFC, symBinAddr: 0x100005308, symSize: 0x2C }
  - { offsetInCU: 0x2CC48, offset: 0x2CC48, size: 0x8, addend: 0x0, symName: __ZN4Pika6ScriptINS_9StdConfigEE4Root9setTracerENS_10PrecedenceERKNS_8STLValueINSt3__112basic_stringIcNS6_11char_traitsIcEENS6_9allocatorIcEEEEEE, symObjAddr: 0xD28, symBinAddr: 0x100005334, symSize: 0x58 }
  - { offsetInCU: 0x2CC8E, offset: 0x2CC8E, size: 0x8, addend: 0x0, symName: __ZN4Pika8STLValueINSt3__112basic_stringIcNS1_11char_traitsIcEENS1_9allocatorIcEEEEEaSERKS8_, symObjAddr: 0xD80, symBinAddr: 0x10000538C, symSize: 0x34 }
  - { offsetInCU: 0x2CCBF, offset: 0x2CCBF, size: 0x8, addend: 0x0, symName: __ZNK4Pika6ScriptINS_9StdConfigEE4Root7doTraceENS_10PrecedenceE, symObjAddr: 0xDB4, symBinAddr: 0x1000053C0, symSize: 0x2C }
  - { offsetInCU: 0x2CCF4, offset: 0x2CCF4, size: 0x8, addend: 0x0, symName: __ZN4Pika6ScriptINS_9StdConfigEE4Root13generateLabelEv, symObjAddr: 0xDE0, symBinAddr: 0x1000053EC, symSize: 0x174 }
  - { offsetInCU: 0x2CD3A, offset: 0x2CD3A, size: 0x8, addend: 0x0, symName: __ZNSt3__112basic_stringIcNS_11char_traitsIcEENS_9allocatorIcEEEC1B8ue170006EPKcm, symObjAddr: 0xF54, symBinAddr: 0x100005560, symSize: 0x3C }
  - { offsetInCU: 0x2CD82, offset: 0x2CD82, size: 0x8, addend: 0x0, symName: __ZN4Pika6ScriptINS_9StdConfigEE9VariablesD2Ev, symObjAddr: 0xF90, symBinAddr: 0x10000559C, symSize: 0x14 }
  - { offsetInCU: 0x2CDAE, offset: 0x2CDAE, size: 0x8, addend: 0x0, symName: __ZN4Pika6ScriptINS_9StdConfigEE9VariablesD1Ev, symObjAddr: 0xFA4, symBinAddr: 0x1000055B0, symSize: 0x14 }
  - { offsetInCU: 0x2CDDA, offset: 0x2CDDA, size: 0x8, addend: 0x0, symName: __ZN4Pika6ScriptINS_9StdConfigEE9VariablesD0Ev, symObjAddr: 0xFB8, symBinAddr: 0x1000055C4, symSize: 0xC }
  - { offsetInCU: 0x2CE06, offset: 0x2CE06, size: 0x8, addend: 0x0, symName: __ZN4Pika6ScriptINS_9StdConfigEE5FrameC1ERNS2_9VariablesERNS2_4RootEPS3_, symObjAddr: 0xFC4, symBinAddr: 0x1000055D0, symSize: 0x44 }
  - { offsetInCU: 0x2CE5F, offset: 0x2CE5F, size: 0x8, addend: 0x0, symName: __ZNK4Pika6ScriptINS_9StdConfigEE5Frame12getVariablesEv, symObjAddr: 0x1008, symBinAddr: 0x100005614, symSize: 0x18 }
  - { offsetInCU: 0x2CE85, offset: 0x2CE85, size: 0x8, addend: 0x0, symName: __ZNK4Pika6ScriptINS_9StdConfigEE5Frame7getRootEv, symObjAddr: 0x1020, symBinAddr: 0x10000562C, symSize: 0x18 }
  - { offsetInCU: 0x2CEAB, offset: 0x2CEAB, size: 0x8, addend: 0x0, symName: __ZNK4Pika6ScriptINS_9StdConfigEE5Frame11getPreviousEv, symObjAddr: 0x1038, symBinAddr: 0x100005644, symSize: 0x84 }
  - { offsetInCU: 0x2CED1, offset: 0x2CED1, size: 0x8, addend: 0x0, symName: __ZNK4Pika6ScriptINS_9StdConfigEE5Frame3getERKNSt3__112basic_stringIcNS4_11char_traitsIcEENS4_9allocatorIcEEEEb, symObjAddr: 0x10BC, symBinAddr: 0x1000056C8, symSize: 0x2D4 }
  - { offsetInCU: 0x2CF36, offset: 0x2CF36, size: 0x8, addend: 0x0, symName: __ZNK4Pika6ScriptINS_9StdConfigEE5Frame12resolveFrameERKNSt3__112basic_stringIcNS4_11char_traitsIcEENS4_9allocatorIcEEEE, symObjAddr: 0x1390, symBinAddr: 0x10000599C, symSize: 0x15C }
  - { offsetInCU: 0x2CFA0, offset: 0x2CFA0, size: 0x8, addend: 0x0, symName: __ZNKSt3__112basic_stringIcNS_11char_traitsIcEENS_9allocatorIcEEEixB8ue170006Em, symObjAddr: 0x14EC, symBinAddr: 0x100005AF8, symSize: 0x30 }
  - { offsetInCU: 0x2CFD5, offset: 0x2CFD5, size: 0x8, addend: 0x0, symName: __ZNSt3__112basic_stringIcNS_11char_traitsIcEENS_9allocatorIcEEEpLB8ue170006ERKS5_, symObjAddr: 0x1C6C, symBinAddr: 0x100006278, symSize: 0x2C }
  - { offsetInCU: 0x2D00A, offset: 0x2D00A, size: 0x8, addend: 0x0, symName: __ZNSt3__14pairIPN4Pika6ScriptINS1_9StdConfigEE5FrameENS_12basic_stringIcNS_11char_traitsIcEENS_9allocatorIcEEEEED1Ev, symObjAddr: 0x1C98, symBinAddr: 0x1000062A4, symSize: 0x2C }
  - { offsetInCU: 0x2D036, offset: 0x2D036, size: 0x8, addend: 0x0, symName: __ZNK4Pika6ScriptINS_9StdConfigEE5Frame11getOptionalERKNSt3__112basic_stringIcNS4_11char_traitsIcEENS4_9allocatorIcEEEERKNS_8STLValueISA_EE, symObjAddr: 0x1CC4, symBinAddr: 0x1000062D0, symSize: 0x100 }
  - { offsetInCU: 0x2D09B, offset: 0x2D09B, size: 0x8, addend: 0x0, symName: __ZN4Pika6ScriptINS_9StdConfigEE5Frame3setERKNSt3__112basic_stringIcNS4_11char_traitsIcEENS4_9allocatorIcEEEERKNS_8STLValueISA_EE, symObjAddr: 0x1DC4, symBinAddr: 0x1000063D0, symSize: 0x1A8 }
  - { offsetInCU: 0x2D0F0, offset: 0x2D0F0, size: 0x8, addend: 0x0, symName: __ZNK4Pika6ScriptINS_9StdConfigEE5Frame9referenceERKNSt3__112basic_stringIcNS4_11char_traitsIcEENS4_9allocatorIcEEEE, symObjAddr: 0x1F6C, symBinAddr: 0x100006578, symSize: 0xC4 }
  - { offsetInCU: 0x2D136, offset: 0x2D136, size: 0x8, addend: 0x0, symName: __ZNSt3__14pairIPN4Pika6ScriptINS1_9StdConfigEE5FrameENS_12basic_stringIcNS_11char_traitsIcEENS_9allocatorIcEEEEEC1B8ue170006ERKS6_RKSC_, symObjAddr: 0x2164, symBinAddr: 0x100006770, symSize: 0x3C }
  - { offsetInCU: 0x2D17C, offset: 0x2D17C, size: 0x8, addend: 0x0, symName: __ZNKSt3__112basic_stringIcNS_11char_traitsIcEENS_9allocatorIcEEE5beginB8ue170006Ev, symObjAddr: 0x21A0, symBinAddr: 0x1000067AC, symSize: 0x60 }
  - { offsetInCU: 0x2D1A2, offset: 0x2D1A2, size: 0x8, addend: 0x0, symName: __ZNKSt3__112basic_stringIcNS_11char_traitsIcEENS_9allocatorIcEEE3endB8ue170006Ev, symObjAddr: 0x2200, symBinAddr: 0x10000680C, symSize: 0x54 }
  - { offsetInCU: 0x2D1C8, offset: 0x2D1C8, size: 0x8, addend: 0x0, symName: __ZNK4Pika6ScriptINS_9StdConfigEE5Frame12resolveFrameERNSt3__111__wrap_iterIPKcEERKS8_, symObjAddr: 0x2254, symBinAddr: 0x100006860, symSize: 0x600 }
  - { offsetInCU: 0x2D248, offset: 0x2D248, size: 0x8, addend: 0x0, symName: __ZNSt3__112basic_stringIcNS_11char_traitsIcEENS_9allocatorIcEEEC1B8ue170006INS_11__wrap_iterIPKcEELi0EEET_SB_, symObjAddr: 0x2854, symBinAddr: 0x100006E60, symSize: 0x3C }
  - { offsetInCU: 0x2D29F, offset: 0x2D29F, size: 0x8, addend: 0x0, symName: __ZN4Pika6ScriptINS_9StdConfigEE12STLVariablesC1Ev, symObjAddr: 0x2890, symBinAddr: 0x100006E9C, symSize: 0x2C }
  - { offsetInCU: 0x2D2CC, offset: 0x2D2CC, size: 0x8, addend: 0x0, symName: __ZN4Pika6ScriptINS_9StdConfigEE12STLVariables6assignERKNSt3__112basic_stringIcNS4_11char_traitsIcEENS4_9allocatorIcEEEERKNS_8STLValueISA_EE, symObjAddr: 0x28BC, symBinAddr: 0x100006EC8, symSize: 0x4C }
  - { offsetInCU: 0x2D310, offset: 0x2D310, size: 0x8, addend: 0x0, symName: __ZN4Pika8STLValueINSt3__112basic_stringIcNS1_11char_traitsIcEENS1_9allocatorIcEEEEEC1El, symObjAddr: 0x2908, symBinAddr: 0x100006F14, symSize: 0x34 }
  - { offsetInCU: 0x2D348, offset: 0x2D348, size: 0x8, addend: 0x0, symName: __ZNKSt3__112basic_stringIcNS_11char_traitsIcEENS_9allocatorIcEEE5emptyB8ue170006Ev, symObjAddr: 0x2BAC, symBinAddr: 0x1000071B8, symSize: 0x30 }
  - { offsetInCU: 0x2D36E, offset: 0x2D36E, size: 0x8, addend: 0x0, symName: __ZN4Pika6ScriptINS_9StdConfigEE5Frame7executeERKNSt3__112basic_stringIcNS4_11char_traitsIcEENS4_9allocatorIcEEEE, symObjAddr: 0x2BDC, symBinAddr: 0x1000071E8, symSize: 0x544 }
  - { offsetInCU: 0x2D3F1, offset: 0x2D3F1, size: 0x8, addend: 0x0, symName: __ZN4Pika6ScriptINS_9StdConfigEE5FrameD1Ev, symObjAddr: 0x3120, symBinAddr: 0x10000772C, symSize: 0x2C }
  - { offsetInCU: 0x2D41B, offset: 0x2D41B, size: 0x8, addend: 0x0, symName: __ZN4Pika6ScriptINS_9StdConfigEE12STLVariablesD1Ev, symObjAddr: 0x314C, symBinAddr: 0x100007758, symSize: 0x2C }
  - { offsetInCU: 0x2D447, offset: 0x2D447, size: 0x8, addend: 0x0, symName: __ZNKSt3__111__wrap_iterIPKcEdeB8ue170006Ev, symObjAddr: 0x31C0, symBinAddr: 0x1000077CC, symSize: 0x18 }
  - { offsetInCU: 0x2D46D, offset: 0x2D46D, size: 0x8, addend: 0x0, symName: __ZN4Pika6ScriptINS_9StdConfigEE5Frame8evaluateENSt3__112basic_stringIcNS4_11char_traitsIcEENS4_9allocatorIcEEEE, symObjAddr: 0x31D8, symBinAddr: 0x1000077E4, symSize: 0x794 }
  - { offsetInCU: 0x2D537, offset: 0x2D537, size: 0x8, addend: 0x0, symName: __ZNSt3__111__wrap_iterIPKcEppB8ue170006Ev, symObjAddr: 0x396C, symBinAddr: 0x100007F78, symSize: 0x20 }
  - { offsetInCU: 0x2D55D, offset: 0x2D55D, size: 0x8, addend: 0x0, symName: __ZNSt3__111__wrap_iterIPKcEmmB8ue170006Ev, symObjAddr: 0x39CC, symBinAddr: 0x100007FD8, symSize: 0x20 }
  - { offsetInCU: 0x2D583, offset: 0x2D583, size: 0x8, addend: 0x0, symName: __ZNSt3__14pairIbN4Pika8STLValueINS_12basic_stringIcNS_11char_traitsIcEENS_9allocatorIcEEEEEEEC1B8ue170006Ev, symObjAddr: 0x39EC, symBinAddr: 0x100007FF8, symSize: 0x2C }
  - { offsetInCU: 0x2D5AD, offset: 0x2D5AD, size: 0x8, addend: 0x0, symName: __ZN4Pika6ScriptINS_9StdConfigEE5Frame4tickERKNSt3__111__wrap_iterIPKcEERKNS4_4pairIbNS_8STLValueINS4_12basic_stringIcNS4_11char_traitsIcEENS4_9allocatorIcEEEEEEEENS_10PrecedenceEb, symObjAddr: 0x3A18, symBinAddr: 0x100008024, symSize: 0xAC }
  - { offsetInCU: 0x2D611, offset: 0x2D611, size: 0x8, addend: 0x0, symName: __ZN4Pika6ScriptINS_9StdConfigEE5Frame4exprERNSt3__111__wrap_iterIPKcEERKS8_RNS4_4pairIbNS_8STLValueINS4_12basic_stringIcNS4_11char_traitsIcEENS4_9allocatorIcEEEEEEEEbbNS_10PrecedenceE, symObjAddr: 0x3AC4, symBinAddr: 0x1000080D0, symSize: 0x2A0 }
  - { offsetInCU: 0x2D693, offset: 0x2D693, size: 0x8, addend: 0x0, symName: __ZN4Pika6ScriptINS_9StdConfigEE5Frame6rvalueERKNSt3__14pairIbNS_8STLValueINS4_12basic_stringIcNS4_11char_traitsIcEENS4_9allocatorIcEEEEEEEEb, symObjAddr: 0x3D64, symBinAddr: 0x100008370, symSize: 0x80 }
  - { offsetInCU: 0x2D6D9, offset: 0x2D6D9, size: 0x8, addend: 0x0, symName: __ZNSt3__14pairIbN4Pika8STLValueINS_12basic_stringIcNS_11char_traitsIcEENS_9allocatorIcEEEEEEEC1B8ue170006ERKbRKS9_, symObjAddr: 0x3DE4, symBinAddr: 0x1000083F0, symSize: 0x3C }
  - { offsetInCU: 0x2D71F, offset: 0x2D71F, size: 0x8, addend: 0x0, symName: __ZNSt3__14pairIbN4Pika8STLValueINS_12basic_stringIcNS_11char_traitsIcEENS_9allocatorIcEEEEEEEaSB8ue170006ERKSA_, symObjAddr: 0x3E20, symBinAddr: 0x10000842C, symSize: 0x4C }
  - { offsetInCU: 0x2D753, offset: 0x2D753, size: 0x8, addend: 0x0, symName: __ZNSt3__14pairIbN4Pika8STLValueINS_12basic_stringIcNS_11char_traitsIcEENS_9allocatorIcEEEEEEED1Ev, symObjAddr: 0x3E6C, symBinAddr: 0x100008478, symSize: 0x2C }
  - { offsetInCU: 0x2D795, offset: 0x2D795, size: 0x8, addend: 0x0, symName: __ZN4Pika8STLValueINSt3__112basic_stringIcNS1_11char_traitsIcEENS1_9allocatorIcEEEEEC1IA18_cEERKT_, symObjAddr: 0x3E98, symBinAddr: 0x1000084A4, symSize: 0x34 }
  - { offsetInCU: 0x2D7D6, offset: 0x2D7D6, size: 0x8, addend: 0x0, symName: __ZNSt3__112basic_stringIcNS_11char_traitsIcEENS_9allocatorIcEEEC1B8ue170006IPKcLi0EEET_S9_, symObjAddr: 0x3ECC, symBinAddr: 0x1000084D8, symSize: 0x3C }
  - { offsetInCU: 0x2D82D, offset: 0x2D82D, size: 0x8, addend: 0x0, symName: __ZN4Pika6ScriptINS_9StdConfigEE5Frame5parseERKNSt3__111__wrap_iterIPKcEESA_b, symObjAddr: 0x3F08, symBinAddr: 0x100008514, symSize: 0x318 }
  - { offsetInCU: 0x2D8B0, offset: 0x2D8B0, size: 0x8, addend: 0x0, symName: __ZN4Pika6ScriptINS_9StdConfigEE5Frame5tokenERNSt3__111__wrap_iterIPKcEERKS8_S7_, symObjAddr: 0x43A8, symBinAddr: 0x1000089B4, symSize: 0x1BC }
  - { offsetInCU: 0x2D914, offset: 0x2D914, size: 0x8, addend: 0x0, symName: __ZN4Pika6ScriptINS_9StdConfigEE5Frame3preERNSt3__111__wrap_iterIPKcEERKS8_RNS4_4pairIbNS_8STLValueINS4_12basic_stringIcNS4_11char_traitsIcEENS4_9allocatorIcEEEEEEEEb, symObjAddr: 0x4564, symBinAddr: 0x100008B70, symSize: 0x23D4 }
  - { offsetInCU: 0x2DA84, offset: 0x2DA84, size: 0x8, addend: 0x0, symName: __ZNKSt3__111__wrap_iterIPKcEplB8ue170006El, symObjAddr: 0x6B68, symBinAddr: 0x10000B174, symSize: 0x3C }
  - { offsetInCU: 0x2DAC6, offset: 0x2DAC6, size: 0x8, addend: 0x0, symName: __ZNKSt3__111__wrap_iterIPKcEixB8ue170006El, symObjAddr: 0x6BA4, symBinAddr: 0x10000B1B0, symSize: 0x24 }
  - { offsetInCU: 0x2DAFA, offset: 0x2DAFA, size: 0x8, addend: 0x0, symName: __ZN4Pika6ScriptINS_9StdConfigEE5Frame14registerNativeERKNSt3__112basic_stringIcNS4_11char_traitsIcEENS4_9allocatorIcEEEEPNS2_6NativeE, symObjAddr: 0x6BC8, symBinAddr: 0x10000B1D4, symSize: 0x308 }
  - { offsetInCU: 0x2DB50, offset: 0x2DB50, size: 0x8, addend: 0x0, symName: __ZNSt3__112basic_stringIcNS_11char_traitsIcEENS_9allocatorIcEEEpLB8ue170006Ec, symObjAddr: 0x6ED0, symBinAddr: 0x10000B4DC, symSize: 0x34 }
  - { offsetInCU: 0x2DB85, offset: 0x2DB85, size: 0x8, addend: 0x0, symName: __ZN4Pika6ScriptINS_9StdConfigEE5Frame16unregisterNativeERKNSt3__112basic_stringIcNS4_11char_traitsIcEENS4_9allocatorIcEEEE, symObjAddr: 0x6F04, symBinAddr: 0x10000B510, symSize: 0x30 }
  - { offsetInCU: 0x2DBBA, offset: 0x2DBBA, size: 0x8, addend: 0x0, symName: __ZN4Pika6ScriptINS_9StdConfigEE5FrameD0Ev, symObjAddr: 0x6F34, symBinAddr: 0x10000B540, symSize: 0x58 }
  - { offsetInCU: 0x2DBE4, offset: 0x2DBE4, size: 0x8, addend: 0x0, symName: __ZN4Pika6ScriptINS_9StdConfigEE5Frame6lvalueERKNSt3__14pairIbNS_8STLValueINS4_12basic_stringIcNS4_11char_traitsIcEENS4_9allocatorIcEEEEEEEE, symObjAddr: 0x6F8C, symBinAddr: 0x10000B598, symSize: 0xFC }
  - { offsetInCU: 0x2DC1B, offset: 0x2DC1B, size: 0x8, addend: 0x0, symName: __ZNSt3__111__wrap_iterIPKcEpLB8ue170006El, symObjAddr: 0x73CC, symBinAddr: 0x10000B9D8, symSize: 0x28 }
  - { offsetInCU: 0x2DC4F, offset: 0x2DC4F, size: 0x8, addend: 0x0, symName: __ZNK4Pika8STLValueINSt3__112basic_stringIcNS1_11char_traitsIcEENS1_9allocatorIcEEEEEcvbEv, symObjAddr: 0x7590, symBinAddr: 0x10000BB9C, symSize: 0x204 }
  - { offsetInCU: 0x2DC77, offset: 0x2DC77, size: 0x8, addend: 0x0, symName: __ZNK4Pika8STLValueINSt3__112basic_stringIcNS1_11char_traitsIcEENS1_9allocatorIcEEEEEcvmEv, symObjAddr: 0x7794, symBinAddr: 0x10000BDA0, symSize: 0x24 }
  - { offsetInCU: 0x2DC9D, offset: 0x2DC9D, size: 0x8, addend: 0x0, symName: __ZN4Pika6ScriptINS_9StdConfigEE5Frame8termExprERNSt3__111__wrap_iterIPKcEERKS8_RNS4_4pairIbNS_8STLValueINS4_12basic_stringIcNS4_11char_traitsIcEENS4_9allocatorIcEEEEEEEEbbNS_10PrecedenceEc, symObjAddr: 0x77B8, symBinAddr: 0x10000BDC4, symSize: 0x224 }
  - { offsetInCU: 0x2DD3D, offset: 0x2DD3D, size: 0x8, addend: 0x0, symName: __ZNK4Pika8STLValueINSt3__112basic_stringIcNS1_11char_traitsIcEENS1_9allocatorIcEEEEEcvlEv, symObjAddr: 0x826C, symBinAddr: 0x10000C878, symSize: 0x1F4 }
  - { offsetInCU: 0x2DD83, offset: 0x2DD83, size: 0x8, addend: 0x0, symName: __ZNK4Pika8STLValueINSt3__112basic_stringIcNS1_11char_traitsIcEENS1_9allocatorIcEEEEEcvdEv, symObjAddr: 0x8460, symBinAddr: 0x10000CA6C, symSize: 0x170 }
  - { offsetInCU: 0x2DDBA, offset: 0x2DDBA, size: 0x8, addend: 0x0, symName: __ZN4Pika8STLValueINSt3__112basic_stringIcNS1_11char_traitsIcEENS1_9allocatorIcEEEEEC1Ed, symObjAddr: 0x85D0, symBinAddr: 0x10000CBDC, symSize: 0x34 }
  - { offsetInCU: 0x2DDF2, offset: 0x2DDF2, size: 0x8, addend: 0x0, symName: __ZN4Pika6ScriptINS_9StdConfigEE5Frame4postERNSt3__111__wrap_iterIPKcEERKS8_RNS4_4pairIbNS_8STLValueINS4_12basic_stringIcNS4_11char_traitsIcEENS4_9allocatorIcEEEEEEEEbNS_10PrecedenceE, symObjAddr: 0x8D24, symBinAddr: 0x10000D330, symSize: 0x20BC }
  - { offsetInCU: 0x2E029, offset: 0x2E029, size: 0x8, addend: 0x0, symName: __ZN4Pika6ScriptINS_9StdConfigEE5Frame12assignableOpINSt3__17dividesIdEEEEbRNS5_11__wrap_iterIPKcEERKSB_RNS5_4pairIbNS_8STLValueINS5_12basic_stringIcNS5_11char_traitsIcEENS5_9allocatorIcEEEEEEEEbNS_10PrecedenceEiSQ_T_, symObjAddr: 0xAFD4, symBinAddr: 0x10000F5E0, symSize: 0x3BC }
  - { offsetInCU: 0x2E0F3, offset: 0x2E0F3, size: 0x8, addend: 0x0, symName: __ZN4Pika6ScriptINS_9StdConfigEE5Frame8addSubOpINSt3__14plusIdEEEEbRNS5_11__wrap_iterIPKcEERKSB_RNS5_4pairIbNS_8STLValueINS5_12basic_stringIcNS5_11char_traitsIcEENS5_9allocatorIcEEEEEEEEbNS_10PrecedenceERKT_, symObjAddr: 0xB390, symBinAddr: 0x10000F99C, symSize: 0x308 }
  - { offsetInCU: 0x2E1A4, offset: 0x2E1A4, size: 0x8, addend: 0x0, symName: __ZN4Pika6ScriptINS_9StdConfigEE5Frame8addSubOpINSt3__15minusIdEEEEbRNS5_11__wrap_iterIPKcEERKSB_RNS5_4pairIbNS_8STLValueINS5_12basic_stringIcNS5_11char_traitsIcEENS5_9allocatorIcEEEEEEEEbNS_10PrecedenceERKT_, symObjAddr: 0xB698, symBinAddr: 0x10000FCA4, symSize: 0x308 }
  - { offsetInCU: 0x2E250, offset: 0x2E250, size: 0x8, addend: 0x0, symName: __ZN4Pika6ScriptINS_9StdConfigEE5Frame12assignableOpINSt3__14plusINS5_12basic_stringIcNS5_11char_traitsIcEENS5_9allocatorIcEEEEEEEEbRNS5_11__wrap_iterIPKcEERKSH_RNS5_4pairIbNS_8STLValueISC_EEEEbNS_10PrecedenceEiSQ_T_, symObjAddr: 0xB9A0, symBinAddr: 0x10000FFAC, symSize: 0x3B8 }
  - { offsetInCU: 0x2E315, offset: 0x2E315, size: 0x8, addend: 0x0, symName: __ZN4Pika6ScriptINS_9StdConfigEE5Frame12assignableOpINSt3__110multipliesIdEEEEbRNS5_11__wrap_iterIPKcEERKSB_RNS5_4pairIbNS_8STLValueINS5_12basic_stringIcNS5_11char_traitsIcEENS5_9allocatorIcEEEEEEEEbNS_10PrecedenceEiSQ_T_, symObjAddr: 0xBD58, symBinAddr: 0x100010364, symSize: 0x3BC }
  - { offsetInCU: 0x2E3E6, offset: 0x2E3E6, size: 0x8, addend: 0x0, symName: __ZN4Pika6ScriptINS_9StdConfigEE5Frame12assignableOpIPFlllEEEbRNSt3__111__wrap_iterIPKcEERKSB_RNS7_4pairIbNS_8STLValueINS7_12basic_stringIcNS7_11char_traitsIcEENS7_9allocatorIcEEEEEEEEbNS_10PrecedenceEiSQ_T_, symObjAddr: 0xC114, symBinAddr: 0x100010720, symSize: 0x3C8 }
  - { offsetInCU: 0x2E4A2, offset: 0x2E4A2, size: 0x8, addend: 0x0, symName: __ZN4Pika6ScriptINS_9StdConfigEE5Frame6intDivEll, symObjAddr: 0xC4DC, symBinAddr: 0x100010AE8, symSize: 0x104 }
  - { offsetInCU: 0x2E4D7, offset: 0x2E4D7, size: 0x8, addend: 0x0, symName: __ZN4Pika6ScriptINS_9StdConfigEE5Frame12assignableOpIPFdddEEEbRNSt3__111__wrap_iterIPKcEERKSB_RNS7_4pairIbNS_8STLValueINS7_12basic_stringIcNS7_11char_traitsIcEENS7_9allocatorIcEEEEEEEEbNS_10PrecedenceEiSQ_T_, symObjAddr: 0xC5E0, symBinAddr: 0x100010BEC, symSize: 0x3C8 }
  - { offsetInCU: 0x2E5A9, offset: 0x2E5A9, size: 0x8, addend: 0x0, symName: __ZN4Pika6ScriptINS_9StdConfigEE5Frame12assignableOpIPFmmmEEEbRNSt3__111__wrap_iterIPKcEERKSB_RNS7_4pairIbNS_8STLValueINS7_12basic_stringIcNS7_11char_traitsIcEENS7_9allocatorIcEEEEEEEEbNS_10PrecedenceEiSQ_T_, symObjAddr: 0xC9D4, symBinAddr: 0x100010FE0, symSize: 0x3C8 }
  - { offsetInCU: 0x2E699, offset: 0x2E699, size: 0x8, addend: 0x0, symName: __ZN4Pika6ScriptINS_9StdConfigEE5Frame5lgtOpINSt3__14lessINS_8STLValueINS5_12basic_stringIcNS5_11char_traitsIcEENS5_9allocatorIcEEEEEEEENS5_10less_equalISE_EEPFmmiEEEbRNS5_11__wrap_iterIPKcEERKSN_RNS5_4pairIbSE_EEbNS_10PrecedenceERKT_RKT0_T1_, symObjAddr: 0xCDBC, symBinAddr: 0x1000113C8, symSize: 0x1D0 }
  - { offsetInCU: 0x2E772, offset: 0x2E772, size: 0x8, addend: 0x0, symName: __ZN4Pika6ScriptINS_9StdConfigEE5Frame5lgtOpINSt3__17greaterINS_8STLValueINS5_12basic_stringIcNS5_11char_traitsIcEENS5_9allocatorIcEEEEEEEENS5_13greater_equalISE_EEPFmmiEEEbRNS5_11__wrap_iterIPKcEERKSN_RNS5_4pairIbSE_EEbNS_10PrecedenceERKT_RKT0_T1_, symObjAddr: 0xCFAC, symBinAddr: 0x1000115B8, symSize: 0x1D0 }
  - { offsetInCU: 0x2E837, offset: 0x2E837, size: 0x8, addend: 0x0, symName: __ZN4Pika6ScriptINS_9StdConfigEE5Frame8binaryOpINSt3__112not_equal_toINS5_12basic_stringIcNS5_11char_traitsIcEENS5_9allocatorIcEEEEEEEEbRNS5_11__wrap_iterIPKcEERKSH_RNS5_4pairIbNS_8STLValueISC_EEEEbNS_10PrecedenceEiSQ_T_, symObjAddr: 0xD19C, symBinAddr: 0x1000117A8, symSize: 0x2C8 }
  - { offsetInCU: 0x2E8FC, offset: 0x2E8FC, size: 0x8, addend: 0x0, symName: __ZN4Pika6ScriptINS_9StdConfigEE5Frame8binaryOpINSt3__112not_equal_toINS_8STLValueINS5_12basic_stringIcNS5_11char_traitsIcEENS5_9allocatorIcEEEEEEEEEEbRNS5_11__wrap_iterIPKcEERKSJ_RNS5_4pairIbSE_EEbNS_10PrecedenceEiSQ_T_, symObjAddr: 0xD464, symBinAddr: 0x100011A70, symSize: 0x2C8 }
  - { offsetInCU: 0x2E9C1, offset: 0x2E9C1, size: 0x8, addend: 0x0, symName: __ZN4Pika6ScriptINS_9StdConfigEE5Frame8binaryOpINSt3__18equal_toINS5_12basic_stringIcNS5_11char_traitsIcEENS5_9allocatorIcEEEEEEEEbRNS5_11__wrap_iterIPKcEERKSH_RNS5_4pairIbNS_8STLValueISC_EEEEbNS_10PrecedenceEiSQ_T_, symObjAddr: 0xD72C, symBinAddr: 0x100011D38, symSize: 0x2C8 }
  - { offsetInCU: 0x2EA86, offset: 0x2EA86, size: 0x8, addend: 0x0, symName: __ZN4Pika6ScriptINS_9StdConfigEE5Frame8binaryOpINSt3__18equal_toINS_8STLValueINS5_12basic_stringIcNS5_11char_traitsIcEENS5_9allocatorIcEEEEEEEEEEbRNS5_11__wrap_iterIPKcEERKSJ_RNS5_4pairIbSE_EEbNS_10PrecedenceEiSQ_T_, symObjAddr: 0xD9F4, symBinAddr: 0x100012000, symSize: 0x2C8 }
  - { offsetInCU: 0x2EB41, offset: 0x2EB41, size: 0x8, addend: 0x0, symName: __ZNK4Pika8STLValueINSt3__112basic_stringIcNS1_11char_traitsIcEENS1_9allocatorIcEEEEEixIS7_EEKS8_RKT_, symObjAddr: 0xDCFC, symBinAddr: 0x100012308, symSize: 0x84 }
  - { offsetInCU: 0x2EB7E, offset: 0x2EB7E, size: 0x8, addend: 0x0, symName: __ZNK4Pika8STLValueINSt3__112basic_stringIcNS1_11char_traitsIcEENS1_9allocatorIcEEEEEixERKS8_, symObjAddr: 0xDD80, symBinAddr: 0x10001238C, symSize: 0x5C4 }
  - { offsetInCU: 0x2EBD2, offset: 0x2EBD2, size: 0x8, addend: 0x0, symName: __ZNSt3__111__wrap_iterIPKcEppB8ue170006Ei, symObjAddr: 0xE344, symBinAddr: 0x100012950, symSize: 0x34 }
  - { offsetInCU: 0x2EC10, offset: 0x2EC10, size: 0x8, addend: 0x0, symName: __ZNKSt3__112basic_stringIcNS_11char_traitsIcEENS_9allocatorIcEEE4sizeB8ue170006Ev, symObjAddr: 0xE3C0, symBinAddr: 0x1000129CC, symSize: 0x54 }
  - { offsetInCU: 0x2EC36, offset: 0x2EC36, size: 0x8, addend: 0x0, symName: __ZNKSt3__112basic_stringIcNS_11char_traitsIcEENS_9allocatorIcEEE6substrB8ue170006Emm, symObjAddr: 0xE414, symBinAddr: 0x100012A20, symSize: 0x68 }
  - { offsetInCU: 0x2EC7F, offset: 0x2EC7F, size: 0x8, addend: 0x0, symName: __ZN4Pika6ScriptINS_9StdConfigEE8FullRootC2Eb, symObjAddr: 0xE4C4, symBinAddr: 0x100012AD0, symSize: 0xDC }
  - { offsetInCU: 0x2ECB8, offset: 0x2ECB8, size: 0x8, addend: 0x0, symName: __ZN4Pika6ScriptINS_9StdConfigEE12STLVariablesC2Ev, symObjAddr: 0xE5A0, symBinAddr: 0x100012BAC, symSize: 0xB0 }
  - { offsetInCU: 0x2ECE5, offset: 0x2ECE5, size: 0x8, addend: 0x0, symName: __ZN4Pika6ScriptINS_9StdConfigEE17addLibraryNativesERNS2_5FrameEb, symObjAddr: 0xE650, symBinAddr: 0x100012C5C, symSize: 0x12B8 }
  - { offsetInCU: 0x2ED1A, offset: 0x2ED1A, size: 0x8, addend: 0x0, symName: __ZN4Pika6ScriptINS_9StdConfigEE12STLVariablesD2Ev, symObjAddr: 0xF908, symBinAddr: 0x100013F14, symSize: 0x16C }
  - { offsetInCU: 0x2ED63, offset: 0x2ED63, size: 0x8, addend: 0x0, symName: __ZN4Pika6ScriptINS_9StdConfigEE4RootD2Ev, symObjAddr: 0xFA74, symBinAddr: 0x100014080, symSize: 0x78 }
  - { offsetInCU: 0x2ED90, offset: 0x2ED90, size: 0x8, addend: 0x0, symName: __ZN4Pika6ScriptINS_9StdConfigEE8FullRootC1Eb, symObjAddr: 0xFAEC, symBinAddr: 0x1000140F8, symSize: 0x40 }
  - { offsetInCU: 0x2EDC9, offset: 0x2EDC9, size: 0x8, addend: 0x0, symName: __ZN4Pika6ScriptINS_9StdConfigEE12STLVariables6lookupERKNSt3__112basic_stringIcNS4_11char_traitsIcEENS4_9allocatorIcEEEERNS_8STLValueISA_EE, symObjAddr: 0xFB2C, symBinAddr: 0x100014138, symSize: 0xC4 }
  - { offsetInCU: 0x2EE1E, offset: 0x2EE1E, size: 0x8, addend: 0x0, symName: __ZNSt3__13mapIKNS_12basic_stringIcNS_11char_traitsIcEENS_9allocatorIcEEEEN4Pika8STLValueIS6_EENS_4lessIS7_EENS4_INS_4pairIS7_SA_EEEEE4findB8ue170006ERS7_, symObjAddr: 0xFBF0, symBinAddr: 0x1000141FC, symSize: 0x40 }
  - { offsetInCU: 0x2EE53, offset: 0x2EE53, size: 0x8, addend: 0x0, symName: __ZNSt3__120__map_const_iteratorINS_21__tree_const_iteratorINS_12__value_typeIKNS_12basic_stringIcNS_11char_traitsIcEENS_9allocatorIcEEEEN4Pika8STLValueIS8_EEEEPNS_11__tree_nodeISD_PvEElEEEC1B8ue170006ENS_14__map_iteratorINS_15__tree_iteratorISD_SH_lEEEE, symObjAddr: 0xFC30, symBinAddr: 0x10001423C, symSize: 0x34 }
  - { offsetInCU: 0x2EE8C, offset: 0x2EE8C, size: 0x8, addend: 0x0, symName: __ZNSt3__13mapIKNS_12basic_stringIcNS_11char_traitsIcEENS_9allocatorIcEEEEN4Pika8STLValueIS6_EENS_4lessIS7_EENS4_INS_4pairIS7_SA_EEEEE3endB8ue170006Ev, symObjAddr: 0xFC94, symBinAddr: 0x1000142A0, symSize: 0x38 }
  - { offsetInCU: 0x2EEB2, offset: 0x2EEB2, size: 0x8, addend: 0x0, symName: __ZNKSt3__120__map_const_iteratorINS_21__tree_const_iteratorINS_12__value_typeIKNS_12basic_stringIcNS_11char_traitsIcEENS_9allocatorIcEEEEN4Pika8STLValueIS8_EEEEPNS_11__tree_nodeISD_PvEElEEEptB8ue170006Ev, symObjAddr: 0xFCCC, symBinAddr: 0x1000142D8, symSize: 0x2C }
  - { offsetInCU: 0x2EED8, offset: 0x2EED8, size: 0x8, addend: 0x0, symName: __ZNSt3__13mapIKNS_12basic_stringIcNS_11char_traitsIcEENS_9allocatorIcEEEEN4Pika8STLValueIS6_EENS_4lessIS7_EENS4_INS_4pairIS7_SA_EEEEEixERS7_, symObjAddr: 0xFCF8, symBinAddr: 0x100014304, symSize: 0xC8 }
  - { offsetInCU: 0x2EF51, offset: 0x2EF51, size: 0x8, addend: 0x0, symName: __ZN4Pika6ScriptINS_9StdConfigEE12STLVariables5eraseERKNSt3__112basic_stringIcNS4_11char_traitsIcEENS4_9allocatorIcEEEE, symObjAddr: 0xFDC0, symBinAddr: 0x1000143CC, symSize: 0x3C }
  - { offsetInCU: 0x2EF86, offset: 0x2EF86, size: 0x8, addend: 0x0, symName: __ZNSt3__13mapIKNS_12basic_stringIcNS_11char_traitsIcEENS_9allocatorIcEEEEN4Pika8STLValueIS6_EENS_4lessIS7_EENS4_INS_4pairIS7_SA_EEEEE5eraseB8ue170006ERS7_, symObjAddr: 0xFDFC, symBinAddr: 0x100014408, symSize: 0x2C }
  - { offsetInCU: 0x2EFBB, offset: 0x2EFBB, size: 0x8, addend: 0x0, symName: __ZN4Pika6ScriptINS_9StdConfigEE12STLVariables4listERKNSt3__112basic_stringIcNS4_11char_traitsIcEENS4_9allocatorIcEEEERNS4_6vectorINS4_4pairISA_NS_8STLValueISA_EEEENS8_ISH_EEEE, symObjAddr: 0xFE28, symBinAddr: 0x100014434, symSize: 0x194 }
  - { offsetInCU: 0x2F016, offset: 0x2F016, size: 0x8, addend: 0x0, symName: __ZNSt3__13mapIKNS_12basic_stringIcNS_11char_traitsIcEENS_9allocatorIcEEEEN4Pika8STLValueIS6_EENS_4lessIS7_EENS4_INS_4pairIS7_SA_EEEEE11lower_boundB8ue170006ERS7_, symObjAddr: 0xFFBC, symBinAddr: 0x1000145C8, symSize: 0x40 }
  - { offsetInCU: 0x2F04B, offset: 0x2F04B, size: 0x8, addend: 0x0, symName: __ZNSt3__16vectorINS_4pairINS_12basic_stringIcNS_11char_traitsIcEENS_9allocatorIcEEEEN4Pika8STLValueIS7_EEEENS5_ISB_EEE9push_backB8ue170006EOSB_, symObjAddr: 0x10174, symBinAddr: 0x100014780, symSize: 0x6C }
  - { offsetInCU: 0x2F082, offset: 0x2F082, size: 0x8, addend: 0x0, symName: __ZNKSt3__120__map_const_iteratorINS_21__tree_const_iteratorINS_12__value_typeIKNS_12basic_stringIcNS_11char_traitsIcEENS_9allocatorIcEEEEN4Pika8STLValueIS8_EEEEPNS_11__tree_nodeISD_PvEElEEEdeB8ue170006Ev, symObjAddr: 0x101E0, symBinAddr: 0x1000147EC, symSize: 0x28 }
  - { offsetInCU: 0x2F0A8, offset: 0x2F0A8, size: 0x8, addend: 0x0, symName: __ZNSt3__14pairINS_12basic_stringIcNS_11char_traitsIcEENS_9allocatorIcEEEEN4Pika8STLValueIS6_EEEC1B8ue170006IKS6_S9_EERKNS0_IT_T0_EE, symObjAddr: 0x10208, symBinAddr: 0x100014814, symSize: 0x34 }
  - { offsetInCU: 0x2F0F2, offset: 0x2F0F2, size: 0x8, addend: 0x0, symName: __ZNSt3__14pairINS_12basic_stringIcNS_11char_traitsIcEENS_9allocatorIcEEEEN4Pika8STLValueIS6_EEED1Ev, symObjAddr: 0x1023C, symBinAddr: 0x100014848, symSize: 0x2C }
  - { offsetInCU: 0x2F11E, offset: 0x2F11E, size: 0x8, addend: 0x0, symName: __ZNSt3__120__map_const_iteratorINS_21__tree_const_iteratorINS_12__value_typeIKNS_12basic_stringIcNS_11char_traitsIcEENS_9allocatorIcEEEEN4Pika8STLValueIS8_EEEEPNS_11__tree_nodeISD_PvEElEEEppB8ue170006Ev, symObjAddr: 0x10268, symBinAddr: 0x100014874, symSize: 0x2C }
  - { offsetInCU: 0x2F144, offset: 0x2F144, size: 0x8, addend: 0x0, symName: __ZN4Pika6ScriptINS_9StdConfigEE12STLVariables12lookupNativeERKNSt3__112basic_stringIcNS4_11char_traitsIcEENS4_9allocatorIcEEEE, symObjAddr: 0x10294, symBinAddr: 0x1000148A0, symSize: 0x8C }
  - { offsetInCU: 0x2F18A, offset: 0x2F18A, size: 0x8, addend: 0x0, symName: __ZNSt3__13mapIKNS_12basic_stringIcNS_11char_traitsIcEENS_9allocatorIcEEEEPN4Pika6ScriptINS8_9StdConfigEE6NativeENS_4lessIS7_EENS4_INS_4pairIS7_SD_EEEEE4findB8ue170006ERS7_, symObjAddr: 0x10320, symBinAddr: 0x10001492C, symSize: 0x40 }
  - { offsetInCU: 0x2F1BF, offset: 0x2F1BF, size: 0x8, addend: 0x0, symName: __ZNSt3__13mapIKNS_12basic_stringIcNS_11char_traitsIcEENS_9allocatorIcEEEEPN4Pika6ScriptINS8_9StdConfigEE6NativeENS_4lessIS7_EENS4_INS_4pairIS7_SD_EEEEE3endB8ue170006Ev, symObjAddr: 0x10390, symBinAddr: 0x10001499C, symSize: 0x38 }
  - { offsetInCU: 0x2F1E5, offset: 0x2F1E5, size: 0x8, addend: 0x0, symName: __ZNKSt3__114__map_iteratorINS_15__tree_iteratorINS_12__value_typeIKNS_12basic_stringIcNS_11char_traitsIcEENS_9allocatorIcEEEEPN4Pika6ScriptINSA_9StdConfigEE6NativeEEEPNS_11__tree_nodeISG_PvEElEEEptB8ue170006Ev, symObjAddr: 0x103C8, symBinAddr: 0x1000149D4, symSize: 0x2C }
  - { offsetInCU: 0x2F20B, offset: 0x2F20B, size: 0x8, addend: 0x0, symName: __ZN4Pika6ScriptINS_9StdConfigEE12STLVariables12assignNativeERKNSt3__112basic_stringIcNS4_11char_traitsIcEENS4_9allocatorIcEEEEPNS2_6NativeE, symObjAddr: 0x103F4, symBinAddr: 0x100014A00, symSize: 0x128 }
  - { offsetInCU: 0x2F260, offset: 0x2F260, size: 0x8, addend: 0x0, symName: __ZNSt3__13mapIKNS_12basic_stringIcNS_11char_traitsIcEENS_9allocatorIcEEEEPN4Pika6ScriptINS8_9StdConfigEE6NativeENS_4lessIS7_EENS4_INS_4pairIS7_SD_EEEEE6insertB8ue170006ERKSH_, symObjAddr: 0x1051C, symBinAddr: 0x100014B28, symSize: 0x4C }
  - { offsetInCU: 0x2F295, offset: 0x2F295, size: 0x8, addend: 0x0, symName: __ZNSt3__14pairIKNS_12basic_stringIcNS_11char_traitsIcEENS_9allocatorIcEEEEPN4Pika6ScriptINS8_9StdConfigEE6NativeEEC1B8ue170006ERS7_RKSD_, symObjAddr: 0x10568, symBinAddr: 0x100014B74, symSize: 0x3C }
  - { offsetInCU: 0x2F2DB, offset: 0x2F2DB, size: 0x8, addend: 0x0, symName: __ZNSt3__14pairIKNS_12basic_stringIcNS_11char_traitsIcEENS_9allocatorIcEEEEPN4Pika6ScriptINS8_9StdConfigEE6NativeEED1Ev, symObjAddr: 0x105A4, symBinAddr: 0x100014BB0, symSize: 0x2C }
  - { offsetInCU: 0x2F307, offset: 0x2F307, size: 0x8, addend: 0x0, symName: __ZNSt3__13mapIKNS_12basic_stringIcNS_11char_traitsIcEENS_9allocatorIcEEEEPN4Pika6ScriptINS8_9StdConfigEE6NativeENS_4lessIS7_EENS4_INS_4pairIS7_SD_EEEEE5beginB8ue170006Ev, symObjAddr: 0x105D0, symBinAddr: 0x100014BDC, symSize: 0x38 }
  - { offsetInCU: 0x2F32D, offset: 0x2F32D, size: 0x8, addend: 0x0, symName: __ZNSt3__114__map_iteratorINS_15__tree_iteratorINS_12__value_typeIKNS_12basic_stringIcNS_11char_traitsIcEENS_9allocatorIcEEEEPN4Pika6ScriptINSA_9StdConfigEE6NativeEEEPNS_11__tree_nodeISG_PvEElEEEppB8ue170006Ev, symObjAddr: 0x10638, symBinAddr: 0x100014C44, symSize: 0x2C }
  - { offsetInCU: 0x2F353, offset: 0x2F353, size: 0x8, addend: 0x0, symName: __ZNSt3__13mapIKNS_12basic_stringIcNS_11char_traitsIcEENS_9allocatorIcEEEEPN4Pika6ScriptINS8_9StdConfigEE6NativeENS_4lessIS7_EENS4_INS_4pairIS7_SD_EEEEED1B8ue170006Ev, symObjAddr: 0x10664, symBinAddr: 0x100014C70, symSize: 0x2C }
  - { offsetInCU: 0x2F37D, offset: 0x2F37D, size: 0x8, addend: 0x0, symName: __ZNSt3__13mapIKNS_12basic_stringIcNS_11char_traitsIcEENS_9allocatorIcEEEEN4Pika8STLValueIS6_EENS_4lessIS7_EENS4_INS_4pairIS7_SA_EEEEED1B8ue170006Ev, symObjAddr: 0x10690, symBinAddr: 0x100014C9C, symSize: 0x2C }
  - { offsetInCU: 0x2F3A7, offset: 0x2F3A7, size: 0x8, addend: 0x0, symName: __ZN4Pika6ScriptINS_9StdConfigEE12STLVariablesD0Ev, symObjAddr: 0x106BC, symBinAddr: 0x100014CC8, symSize: 0x58 }
  - { offsetInCU: 0x2F3D3, offset: 0x2F3D3, size: 0x8, addend: 0x0, symName: __ZN4Pika6ScriptINS_9StdConfigEE16getThisAndMethodERNS2_5FrameE, symObjAddr: 0x10714, symBinAddr: 0x100014D20, symSize: 0x364 }
  - { offsetInCU: 0x2F418, offset: 0x2F418, size: 0x8, addend: 0x0, symName: __ZNKSt3__112basic_stringIcNS_11char_traitsIcEENS_9allocatorIcEEE6rbeginB8ue170006Ev, symObjAddr: 0x10B2C, symBinAddr: 0x100015138, symSize: 0x58 }
  - { offsetInCU: 0x2F43E, offset: 0x2F43E, size: 0x8, addend: 0x0, symName: __ZNKSt3__112basic_stringIcNS_11char_traitsIcEENS_9allocatorIcEEE4rendB8ue170006Ev, symObjAddr: 0x10B84, symBinAddr: 0x100015190, symSize: 0x58 }
  - { offsetInCU: 0x2F464, offset: 0x2F464, size: 0x8, addend: 0x0, symName: __ZNKSt3__116reverse_iteratorINS_11__wrap_iterIPKcEEE4baseB8ue170006Ev, symObjAddr: 0x10BDC, symBinAddr: 0x1000151E8, symSize: 0x20 }
  - { offsetInCU: 0x2F48A, offset: 0x2F48A, size: 0x8, addend: 0x0, symName: __ZNKSt3__111__wrap_iterIPKcEmiB8ue170006El, symObjAddr: 0x10BFC, symBinAddr: 0x100015208, symSize: 0x3C }
  - { offsetInCU: 0x2F4BE, offset: 0x2F4BE, size: 0x8, addend: 0x0, symName: __ZNSt3__14pairIN4Pika8STLValueINS_12basic_stringIcNS_11char_traitsIcEENS_9allocatorIcEEEEEES8_EC1B8ue170006ERKS9_RKS8_, symObjAddr: 0x10C38, symBinAddr: 0x100015244, symSize: 0x3C }
  - { offsetInCU: 0x2F504, offset: 0x2F504, size: 0x8, addend: 0x0, symName: __ZN4Pika6ScriptINS_9StdConfigEE7getThisERNS2_5FrameE, symObjAddr: 0x10C74, symBinAddr: 0x100015280, symSize: 0x74 }
  - { offsetInCU: 0x2F528, offset: 0x2F528, size: 0x8, addend: 0x0, symName: __ZNSt3__14pairIN4Pika8STLValueINS_12basic_stringIcNS_11char_traitsIcEENS_9allocatorIcEEEEEES8_ED1Ev, symObjAddr: 0x10CE8, symBinAddr: 0x1000152F4, symSize: 0x2C }
  - { offsetInCU: 0x2F554, offset: 0x2F554, size: 0x8, addend: 0x0, symName: __ZN4Pika6ScriptINS_9StdConfigEE9getMethodERNS2_5FrameE, symObjAddr: 0x10D14, symBinAddr: 0x100015320, symSize: 0x78 }
  - { offsetInCU: 0x2F578, offset: 0x2F578, size: 0x8, addend: 0x0, symName: __ZN4Pika6ScriptINS_9StdConfigEE3lib7elevateERNS2_5FrameE, symObjAddr: 0x10D8C, symBinAddr: 0x100015398, symSize: 0xD0 }
  - { offsetInCU: 0x2F59E, offset: 0x2F59E, size: 0x8, addend: 0x0, symName: __ZN4Pika6ScriptINS_9StdConfigEE3lib9characterEd, symObjAddr: 0x10E5C, symBinAddr: 0x100015468, symSize: 0x174 }
  - { offsetInCU: 0x2F5C4, offset: 0x2F5C4, size: 0x8, addend: 0x0, symName: __ZNSt3__112basic_stringIcNS_11char_traitsIcEENS_9allocatorIcEEEC1B8ue170006Emc, symObjAddr: 0x117C8, symBinAddr: 0x100015DD4, symSize: 0x3C }
  - { offsetInCU: 0x2F60C, offset: 0x2F60C, size: 0x8, addend: 0x0, symName: __ZN4Pika6ScriptINS_9StdConfigEE3lib7deleterERKNS2_5FrameE, symObjAddr: 0x11804, symBinAddr: 0x100015E10, symSize: 0x120 }
  - { offsetInCU: 0x2F650, offset: 0x2F650, size: 0x8, addend: 0x0, symName: __ZN4Pika6ScriptINS_9StdConfigEE3lib8evaluateERKNS2_5FrameE, symObjAddr: 0x11924, symBinAddr: 0x100015F30, symSize: 0x220 }
  - { offsetInCU: 0x2F676, offset: 0x2F676, size: 0x8, addend: 0x0, symName: __ZN4Pika6ScriptINS_9StdConfigEE3lib6existsERKNS2_5FrameE, symObjAddr: 0x11B44, symBinAddr: 0x100016150, symSize: 0x15C }
  - { offsetInCU: 0x2F6CA, offset: 0x2F6CA, size: 0x8, addend: 0x0, symName: __ZN4Pika6ScriptINS_9StdConfigEE3lib4findERKNSt3__112basic_stringIcNS4_11char_traitsIcEENS4_9allocatorIcEEEESC_, symObjAddr: 0x11CA0, symBinAddr: 0x1000162AC, symSize: 0x8C }
  - { offsetInCU: 0x2F6FF, offset: 0x2F6FF, size: 0x8, addend: 0x0, symName: __ZN4Pika6ScriptINS_9StdConfigEE3lib7foreachERNS2_5FrameE, symObjAddr: 0x11D94, symBinAddr: 0x1000163A0, symSize: 0x5A8 }
  - { offsetInCU: 0x2F782, offset: 0x2F782, size: 0x8, addend: 0x0, symName: __ZNSt3__16vectorINS_4pairINS_12basic_stringIcNS_11char_traitsIcEENS_9allocatorIcEEEEN4Pika8STLValueIS7_EEEENS5_ISB_EEEC1B8ue170006Ev, symObjAddr: 0x1233C, symBinAddr: 0x100016948, symSize: 0x2C }
  - { offsetInCU: 0x2F7AC, offset: 0x2F7AC, size: 0x8, addend: 0x0, symName: __ZNSt3__16vectorINS_4pairINS_12basic_stringIcNS_11char_traitsIcEENS_9allocatorIcEEEEN4Pika8STLValueIS7_EEEENS5_ISB_EEE5beginB8ue170006Ev, symObjAddr: 0x12368, symBinAddr: 0x100016974, symSize: 0x30 }
  - { offsetInCU: 0x2F7DE, offset: 0x2F7DE, size: 0x8, addend: 0x0, symName: __ZNSt3__111__wrap_iterIPKNS_4pairINS_12basic_stringIcNS_11char_traitsIcEENS_9allocatorIcEEEEN4Pika8STLValueIS7_EEEEEC1B8ue170006IPSB_EERKNS0_IT_EEPNS_9enable_ifIXsr14is_convertibleISH_SD_EE5valueEvE4typeE, symObjAddr: 0x12398, symBinAddr: 0x1000169A4, symSize: 0x3C }
  - { offsetInCU: 0x2F829, offset: 0x2F829, size: 0x8, addend: 0x0, symName: __ZNSt3__16vectorINS_4pairINS_12basic_stringIcNS_11char_traitsIcEENS_9allocatorIcEEEEN4Pika8STLValueIS7_EEEENS5_ISB_EEE3endB8ue170006Ev, symObjAddr: 0x12408, symBinAddr: 0x100016A14, symSize: 0x30 }
  - { offsetInCU: 0x2F851, offset: 0x2F851, size: 0x8, addend: 0x0, symName: __ZNKSt3__111__wrap_iterIPKNS_4pairINS_12basic_stringIcNS_11char_traitsIcEENS_9allocatorIcEEEEN4Pika8STLValueIS7_EEEEEptB8ue170006Ev, symObjAddr: 0x12438, symBinAddr: 0x100016A44, symSize: 0x28 }
  - { offsetInCU: 0x2F877, offset: 0x2F877, size: 0x8, addend: 0x0, symName: __ZNSt3__111__wrap_iterIPKNS_4pairINS_12basic_stringIcNS_11char_traitsIcEENS_9allocatorIcEEEEN4Pika8STLValueIS7_EEEEEppB8ue170006Ev, symObjAddr: 0x12460, symBinAddr: 0x100016A6C, symSize: 0x20 }
  - { offsetInCU: 0x2F89D, offset: 0x2F89D, size: 0x8, addend: 0x0, symName: __ZNSt3__16vectorINS_4pairINS_12basic_stringIcNS_11char_traitsIcEENS_9allocatorIcEEEEN4Pika8STLValueIS7_EEEENS5_ISB_EEED1B8ue170006Ev, symObjAddr: 0x12480, symBinAddr: 0x100016A8C, symSize: 0x2C }
  - { offsetInCU: 0x2F8C7, offset: 0x2F8C7, size: 0x8, addend: 0x0, symName: __ZN4Pika6ScriptINS_9StdConfigEE3lib5inputERKNSt3__112basic_stringIcNS4_11char_traitsIcEENS4_9allocatorIcEEEE, symObjAddr: 0x124AC, symBinAddr: 0x100016AB8, symSize: 0x2BC }
  - { offsetInCU: 0x2F90C, offset: 0x2F90C, size: 0x8, addend: 0x0, symName: __ZNKSt3__19basic_iosIcNS_11char_traitsIcEEE3eofB8ue170006Ev, symObjAddr: 0x127CC, symBinAddr: 0x100016DD8, symSize: 0x28 }
  - { offsetInCU: 0x2F932, offset: 0x2F932, size: 0x8, addend: 0x0, symName: __ZNKSt3__19basic_iosIcNS_11char_traitsIcEEE4goodB8ue170006Ev, symObjAddr: 0x127F4, symBinAddr: 0x100016E00, symSize: 0x28 }
  - { offsetInCU: 0x2F958, offset: 0x2F958, size: 0x8, addend: 0x0, symName: __ZN4Pika6ScriptINS_9StdConfigEE3lib6invokeERNS2_5FrameE, symObjAddr: 0x12878, symBinAddr: 0x100016E84, symSize: 0x838 }
  - { offsetInCU: 0x2F9EB, offset: 0x2F9EB, size: 0x8, addend: 0x0, symName: __ZNSt3__16vectorIN4Pika8STLValueINS_12basic_stringIcNS_11char_traitsIcEENS_9allocatorIcEEEEEENS6_IS9_EEEC1Em, symObjAddr: 0x130B0, symBinAddr: 0x1000176BC, symSize: 0x34 }
  - { offsetInCU: 0x2FA26, offset: 0x2FA26, size: 0x8, addend: 0x0, symName: __ZNKSt3__16vectorIN4Pika8STLValueINS_12basic_stringIcNS_11char_traitsIcEENS_9allocatorIcEEEEEENS6_IS9_EEE4sizeB8ue170006Ev, symObjAddr: 0x130E4, symBinAddr: 0x1000176F0, symSize: 0x28 }
  - { offsetInCU: 0x2FA56, offset: 0x2FA56, size: 0x8, addend: 0x0, symName: __ZNK4Pika8STLValueINSt3__112basic_stringIcNS1_11char_traitsIcEENS1_9allocatorIcEEEEEixIlEEKS8_RKT_, symObjAddr: 0x1310C, symBinAddr: 0x100017718, symSize: 0x88 }
  - { offsetInCU: 0x2FA93, offset: 0x2FA93, size: 0x8, addend: 0x0, symName: __ZNSt3__16vectorIN4Pika8STLValueINS_12basic_stringIcNS_11char_traitsIcEENS_9allocatorIcEEEEEENS6_IS9_EEEixB8ue170006Em, symObjAddr: 0x13194, symBinAddr: 0x1000177A0, symSize: 0x2C }
  - { offsetInCU: 0x2FACA, offset: 0x2FACA, size: 0x8, addend: 0x0, symName: __ZNKSt3__16vectorIN4Pika8STLValueINS_12basic_stringIcNS_11char_traitsIcEENS_9allocatorIcEEEEEENS6_IS9_EEE5emptyB8ue170006Ev, symObjAddr: 0x131C0, symBinAddr: 0x1000177CC, symSize: 0x28 }
  - { offsetInCU: 0x2FAF0, offset: 0x2FAF0, size: 0x8, addend: 0x0, symName: __ZNSt3__16vectorIN4Pika8STLValueINS_12basic_stringIcNS_11char_traitsIcEENS_9allocatorIcEEEEEENS6_IS9_EEED1B8ue170006Ev, symObjAddr: 0x131E8, symBinAddr: 0x1000177F4, symSize: 0x2C }
  - { offsetInCU: 0x2FB1A, offset: 0x2FB1A, size: 0x8, addend: 0x0, symName: __ZN4Pika6ScriptINS_9StdConfigEE3lib6lengthERKNSt3__112basic_stringIcNS4_11char_traitsIcEENS4_9allocatorIcEEEE, symObjAddr: 0x13214, symBinAddr: 0x100017820, symSize: 0x24 }
  - { offsetInCU: 0x2FB40, offset: 0x2FB40, size: 0x8, addend: 0x0, symName: __ZN4Pika6ScriptINS_9StdConfigEE3lib4loadERKNSt3__112basic_stringIcNS4_11char_traitsIcEENS4_9allocatorIcEEEE, symObjAddr: 0x13238, symBinAddr: 0x100017844, symSize: 0x468 }
  - { offsetInCU: 0x2FB9E, offset: 0x2FB9E, size: 0x8, addend: 0x0, symName: __ZNKSt3__112basic_stringIcNS_11char_traitsIcEENS_9allocatorIcEEE5c_strB8ue170006Ev, symObjAddr: 0x136D8, symBinAddr: 0x100017CE4, symSize: 0x24 }
  - { offsetInCU: 0x2FCE2, offset: 0x2FCE2, size: 0x8, addend: 0x0, symName: __ZNSt3__114basic_ifstreamIcNS_11char_traitsIcEEEC1EPKcj, symObjAddr: 0x136FC, symBinAddr: 0x100017D08, symSize: 0x17C }
  - { offsetInCU: 0x2FD2C, offset: 0x2FD2C, size: 0x8, addend: 0x0, symName: __ZNKSt3__113basic_istreamIcNS_11char_traitsIcEEE6gcountB8ue170006Ev, symObjAddr: 0x13878, symBinAddr: 0x100017E84, symSize: 0x18 }
  - { offsetInCU: 0x2FD57, offset: 0x2FD57, size: 0x8, addend: 0x0, symName: __ZNSt3__114basic_ifstreamIcNS_11char_traitsIcEEED1Ev, symObjAddr: 0x13890, symBinAddr: 0x100017E9C, symSize: 0x70 }
  - { offsetInCU: 0x2FD84, offset: 0x2FD84, size: 0x8, addend: 0x0, symName: __ZN4Pika6ScriptINS_9StdConfigEE3lib5lowerENSt3__112basic_stringIcNS4_11char_traitsIcEENS4_9allocatorIcEEEE, symObjAddr: 0x13900, symBinAddr: 0x100017F0C, symSize: 0xB0 }
  - { offsetInCU: 0x2FDAB, offset: 0x2FDAB, size: 0x8, addend: 0x0, symName: __ZNSt3__112basic_stringIcNS_11char_traitsIcEENS_9allocatorIcEEE5beginB8ue170006Ev, symObjAddr: 0x13A44, symBinAddr: 0x100018050, symSize: 0x60 }
  - { offsetInCU: 0x2FDD1, offset: 0x2FDD1, size: 0x8, addend: 0x0, symName: __ZNSt3__112basic_stringIcNS_11char_traitsIcEENS_9allocatorIcEEE3endB8ue170006Ev, symObjAddr: 0x13AA4, symBinAddr: 0x1000180B0, symSize: 0x54 }
  - { offsetInCU: 0x2FDF7, offset: 0x2FDF7, size: 0x8, addend: 0x0, symName: __ZN4Pika6ScriptINS_9StdConfigEE3lib8mismatchERKNSt3__112basic_stringIcNS4_11char_traitsIcEENS4_9allocatorIcEEEESC_, symObjAddr: 0x13B90, symBinAddr: 0x10001819C, symSize: 0x120 }
  - { offsetInCU: 0x2FE2C, offset: 0x2FE2C, size: 0x8, addend: 0x0, symName: __ZN4Pika6ScriptINS_9StdConfigEE3lib7ordinalERKNSt3__112basic_stringIcNS4_11char_traitsIcEENS4_9allocatorIcEEEE, symObjAddr: 0x13D0C, symBinAddr: 0x100018318, symSize: 0x154 }
  - { offsetInCU: 0x2FE52, offset: 0x2FE52, size: 0x8, addend: 0x0, symName: __ZN4Pika6ScriptINS_9StdConfigEE3lib5parseERNS2_5FrameE, symObjAddr: 0x13E60, symBinAddr: 0x10001846C, symSize: 0x208 }
  - { offsetInCU: 0x2FE87, offset: 0x2FE87, size: 0x8, addend: 0x0, symName: __ZN4Pika6ScriptINS_9StdConfigEE3lib9precisionERKNS2_5FrameE, symObjAddr: 0x14068, symBinAddr: 0x100018674, symSize: 0x1A4 }
  - { offsetInCU: 0x2FEAD, offset: 0x2FEAD, size: 0x8, addend: 0x0, symName: __ZNK4Pika8STLValueINSt3__112basic_stringIcNS1_11char_traitsIcEENS1_9allocatorIcEEEEEcviEv, symObjAddr: 0x1429C, symBinAddr: 0x1000188A8, symSize: 0x24 }
  - { offsetInCU: 0x2FED3, offset: 0x2FED3, size: 0x8, addend: 0x0, symName: __ZN4Pika6ScriptINS_9StdConfigEE3lib5printERKNSt3__112basic_stringIcNS4_11char_traitsIcEENS4_9allocatorIcEEEE, symObjAddr: 0x142C0, symBinAddr: 0x1000188CC, symSize: 0x8C }
  - { offsetInCU: 0x2FEF9, offset: 0x2FEF9, size: 0x8, addend: 0x0, symName: __ZNSt3__113basic_ostreamIcNS_11char_traitsIcEEElsB8ue170006EPFRS3_S4_E, symObjAddr: 0x1434C, symBinAddr: 0x100018958, symSize: 0x2C }
  - { offsetInCU: 0x2FF2D, offset: 0x2FF2D, size: 0x8, addend: 0x0, symName: __ZN4Pika6ScriptINS_9StdConfigEE3lib5radixERKNS2_5FrameE, symObjAddr: 0x143D0, symBinAddr: 0x1000189DC, symSize: 0x550 }
  - { offsetInCU: 0x2FF72, offset: 0x2FF72, size: 0x8, addend: 0x0, symName: __ZN4Pika6ScriptINS_9StdConfigEE3lib6randomEd, symObjAddr: 0x14DD0, symBinAddr: 0x1000193DC, symSize: 0x40 }
  - { offsetInCU: 0x2FF98, offset: 0x2FF98, size: 0x8, addend: 0x0, symName: __ZN4Pika6ScriptINS_9StdConfigEE3lib7reverseENSt3__112basic_stringIcNS4_11char_traitsIcEENS4_9allocatorIcEEEE, symObjAddr: 0x14E10, symBinAddr: 0x10001941C, symSize: 0x5C }
  - { offsetInCU: 0x2FFBF, offset: 0x2FFBF, size: 0x8, addend: 0x0, symName: __ZN4Pika6ScriptINS_9StdConfigEE3lib4saveERKNSt3__112basic_stringIcNS4_11char_traitsIcEENS4_9allocatorIcEEEESC_, symObjAddr: 0x14EA8, symBinAddr: 0x1000194B4, symSize: 0x36C }
  - { offsetInCU: 0x3001F, offset: 0x3001F, size: 0x8, addend: 0x0, symName: __ZNSt3__114basic_ofstreamIcNS_11char_traitsIcEEEC1EPKcj, symObjAddr: 0x15214, symBinAddr: 0x100019820, symSize: 0x17C }
  - { offsetInCU: 0x30069, offset: 0x30069, size: 0x8, addend: 0x0, symName: __ZNKSt3__112basic_stringIcNS_11char_traitsIcEENS_9allocatorIcEEE4dataB8ue170006Ev, symObjAddr: 0x15390, symBinAddr: 0x10001999C, symSize: 0x28 }
  - { offsetInCU: 0x30094, offset: 0x30094, size: 0x8, addend: 0x0, symName: __ZNSt3__114basic_ofstreamIcNS_11char_traitsIcEEED1Ev, symObjAddr: 0x153B8, symBinAddr: 0x1000199C4, symSize: 0x70 }
  - { offsetInCU: 0x300C1, offset: 0x300C1, size: 0x8, addend: 0x0, symName: __ZN4Pika6ScriptINS_9StdConfigEE3lib6systemERKNSt3__112basic_stringIcNS4_11char_traitsIcEENS4_9allocatorIcEEEE, symObjAddr: 0x15428, symBinAddr: 0x100019A34, symSize: 0x1FC }
  - { offsetInCU: 0x300F6, offset: 0x300F6, size: 0x8, addend: 0x0, symName: __ZN4Pika6ScriptINS_9StdConfigEE3lib6searchERKNSt3__112basic_stringIcNS4_11char_traitsIcEENS4_9allocatorIcEEEESC_, symObjAddr: 0x15624, symBinAddr: 0x100019C30, symSize: 0x8C }
  - { offsetInCU: 0x3012B, offset: 0x3012B, size: 0x8, addend: 0x0, symName: __ZN4Pika6ScriptINS_9StdConfigEE3lib4spanERKNSt3__112basic_stringIcNS4_11char_traitsIcEENS4_9allocatorIcEEEESC_, symObjAddr: 0x15714, symBinAddr: 0x100019D20, symSize: 0xFC }
  - { offsetInCU: 0x3016F, offset: 0x3016F, size: 0x8, addend: 0x0, symName: __ZNSt3__111__wrap_iterIPKcEC1B8ue170006Ev, symObjAddr: 0x15810, symBinAddr: 0x100019E1C, symSize: 0x2C }
  - { offsetInCU: 0x30199, offset: 0x30199, size: 0x8, addend: 0x0, symName: __ZN4Pika6ScriptINS_9StdConfigEE3lib7throwerERKNSt3__112basic_stringIcNS4_11char_traitsIcEENS4_9allocatorIcEEEE, symObjAddr: 0x1583C, symBinAddr: 0x100019E48, symSize: 0x64 }
  - { offsetInCU: 0x301BF, offset: 0x301BF, size: 0x8, addend: 0x0, symName: __ZN4Pika6ScriptINS_9StdConfigEE3lib4timeERKNS2_5FrameE, symObjAddr: 0x158A0, symBinAddr: 0x100019EAC, symSize: 0x3C }
  - { offsetInCU: 0x301E2, offset: 0x301E2, size: 0x8, addend: 0x0, symName: __ZN4Pika6ScriptINS_9StdConfigEE3lib5traceERKNS2_5FrameE, symObjAddr: 0x158DC, symBinAddr: 0x100019EE8, symSize: 0x1C0 }
  - { offsetInCU: 0x30208, offset: 0x30208, size: 0x8, addend: 0x0, symName: __ZN4Pika6ScriptINS_9StdConfigEE3lib5tryerERNS2_5FrameE, symObjAddr: 0x15A9C, symBinAddr: 0x10001A0A8, symSize: 0x1DC }
  - { offsetInCU: 0x3023D, offset: 0x3023D, size: 0x8, addend: 0x0, symName: __ZN4Pika6ScriptINS_9StdConfigEE3lib5upperENSt3__112basic_stringIcNS4_11char_traitsIcEENS4_9allocatorIcEEEE, symObjAddr: 0x15C78, symBinAddr: 0x10001A284, symSize: 0xB0 }
  - { offsetInCU: 0x3027A, offset: 0x3027A, size: 0x8, addend: 0x0, symName: __ZN4Pika8STLValueINSt3__112basic_stringIcNS1_11char_traitsIcEENS1_9allocatorIcEEEEEC1IA5_cEERKT_, symObjAddr: 0x15D5C, symBinAddr: 0x10001A368, symSize: 0x34 }
  - { offsetInCU: 0x302D1, offset: 0x302D1, size: 0x8, addend: 0x0, symName: __ZN4Pika8STLValueINSt3__112basic_stringIcNS1_11char_traitsIcEENS1_9allocatorIcEEEEEC1IA83_cEERKT_, symObjAddr: 0x15D90, symBinAddr: 0x10001A39C, symSize: 0x34 }
  - { offsetInCU: 0x30312, offset: 0x30312, size: 0x8, addend: 0x0, symName: __ZN4Pika6ScriptINS_9StdConfigEE5Frame14registerNativeIddEEvRKNSt3__112basic_stringIcNS5_11char_traitsIcEENS5_9allocatorIcEEEEPFT0_T_E, symObjAddr: 0x15DC4, symBinAddr: 0x10001A3D0, symSize: 0x5C }
  - { offsetInCU: 0x30368, offset: 0x30368, size: 0x8, addend: 0x0, symName: __ZN4Pika6ScriptINS_9StdConfigEE5Frame14registerNativeIdddEEvRKNSt3__112basic_stringIcNS5_11char_traitsIcEENS5_9allocatorIcEEEEPFT1_T_T0_E, symObjAddr: 0x15E20, symBinAddr: 0x10001A42C, symSize: 0x5C }
  - { offsetInCU: 0x303C7, offset: 0x303C7, size: 0x8, addend: 0x0, symName: __ZN4Pika6ScriptINS_9StdConfigEE5Frame14registerNativeIdNSt3__112basic_stringIcNS5_11char_traitsIcEENS5_9allocatorIcEEEEEEvRKSB_PFT0_T_E, symObjAddr: 0x15E7C, symBinAddr: 0x10001A488, symSize: 0x5C }
  - { offsetInCU: 0x3041D, offset: 0x3041D, size: 0x8, addend: 0x0, symName: __ZN4Pika6ScriptINS_9StdConfigEE5Frame14registerNativeIRKS3_bEEvRKNSt3__112basic_stringIcNS7_11char_traitsIcEENS7_9allocatorIcEEEEPFT0_T_E, symObjAddr: 0x15ED8, symBinAddr: 0x10001A4E4, symSize: 0x5C }
  - { offsetInCU: 0x30473, offset: 0x30473, size: 0x8, addend: 0x0, symName: __ZN4Pika6ScriptINS_9StdConfigEE5Frame14registerNativeIRKNSt3__112basic_stringIcNS5_11char_traitsIcEENS5_9allocatorIcEEEESB_EEvSD_PFT0_T_E, symObjAddr: 0x15F34, symBinAddr: 0x10001A540, symSize: 0x5C }
  - { offsetInCU: 0x304C9, offset: 0x304C9, size: 0x8, addend: 0x0, symName: __ZN4Pika6ScriptINS_9StdConfigEE5Frame14registerNativeIRS3_NS_8STLValueINSt3__112basic_stringIcNS7_11char_traitsIcEENS7_9allocatorIcEEEEEEEEvRKSD_PFT0_T_E, symObjAddr: 0x15F90, symBinAddr: 0x10001A59C, symSize: 0x5C }
  - { offsetInCU: 0x3051F, offset: 0x3051F, size: 0x8, addend: 0x0, symName: __ZN4Pika6ScriptINS_9StdConfigEE5Frame14registerNativeIRKS3_NS_8STLValueINSt3__112basic_stringIcNS8_11char_traitsIcEENS8_9allocatorIcEEEEEEEEvRKSE_PFT0_T_E, symObjAddr: 0x15FEC, symBinAddr: 0x10001A5F8, symSize: 0x5C }
  - { offsetInCU: 0x30575, offset: 0x30575, size: 0x8, addend: 0x0, symName: __ZN4Pika6ScriptINS_9StdConfigEE5Frame14registerNativeIRKNSt3__112basic_stringIcNS5_11char_traitsIcEENS5_9allocatorIcEEEESD_mEEvSD_PFT1_T_T0_E, symObjAddr: 0x16048, symBinAddr: 0x10001A654, symSize: 0x5C }
  - { offsetInCU: 0x305D4, offset: 0x305D4, size: 0x8, addend: 0x0, symName: __ZN4Pika6ScriptINS_9StdConfigEE5Frame14registerNativeIRS3_vEEvRKNSt3__112basic_stringIcNS6_11char_traitsIcEENS6_9allocatorIcEEEEPFT0_T_E, symObjAddr: 0x160A4, symBinAddr: 0x10001A6B0, symSize: 0x5C }
  - { offsetInCU: 0x3063C, offset: 0x3063C, size: 0x8, addend: 0x0, symName: __ZN4Pika8STLValueINSt3__112basic_stringIcNS1_11char_traitsIcEENS1_9allocatorIcEEEEEC1IA79_cEERKT_, symObjAddr: 0x16100, symBinAddr: 0x10001A70C, symSize: 0x34 }
  - { offsetInCU: 0x3067D, offset: 0x3067D, size: 0x8, addend: 0x0, symName: __ZN4Pika6ScriptINS_9StdConfigEE5Frame14registerNativeIRKNSt3__112basic_stringIcNS5_11char_traitsIcEENS5_9allocatorIcEEEEmEEvSD_PFT0_T_E, symObjAddr: 0x16134, symBinAddr: 0x10001A740, symSize: 0x5C }
  - { offsetInCU: 0x306D3, offset: 0x306D3, size: 0x8, addend: 0x0, symName: __ZN4Pika6ScriptINS_9StdConfigEE5Frame14registerNativeINSt3__112basic_stringIcNS5_11char_traitsIcEENS5_9allocatorIcEEEESB_EEvRKSB_PFT0_T_E, symObjAddr: 0x16190, symBinAddr: 0x10001A79C, symSize: 0x5C }
  - { offsetInCU: 0x30729, offset: 0x30729, size: 0x8, addend: 0x0, symName: __ZN4Pika6ScriptINS_9StdConfigEE5Frame14registerNativeIRKNSt3__112basic_stringIcNS5_11char_traitsIcEENS5_9allocatorIcEEEEjEEvSD_PFT0_T_E, symObjAddr: 0x161EC, symBinAddr: 0x10001A7F8, symSize: 0x5C }
  - { offsetInCU: 0x3077F, offset: 0x3077F, size: 0x8, addend: 0x0, symName: __ZN4Pika6ScriptINS_9StdConfigEE5Frame14registerNativeIRS3_mEEvRKNSt3__112basic_stringIcNS6_11char_traitsIcEENS6_9allocatorIcEEEEPFT0_T_E, symObjAddr: 0x16248, symBinAddr: 0x10001A854, symSize: 0x5C }
  - { offsetInCU: 0x307D5, offset: 0x307D5, size: 0x8, addend: 0x0, symName: __ZN4Pika6ScriptINS_9StdConfigEE5Frame14registerNativeIRKS3_NSt3__112basic_stringIcNS7_11char_traitsIcEENS7_9allocatorIcEEEEEEvRKSD_PFT0_T_E, symObjAddr: 0x162A4, symBinAddr: 0x10001A8B0, symSize: 0x5C }
  - { offsetInCU: 0x3082B, offset: 0x3082B, size: 0x8, addend: 0x0, symName: __ZN4Pika6ScriptINS_9StdConfigEE5Frame14registerNativeIRKNSt3__112basic_stringIcNS5_11char_traitsIcEENS5_9allocatorIcEEEEvEEvSD_PFT0_T_E, symObjAddr: 0x16300, symBinAddr: 0x10001A90C, symSize: 0x5C }
  - { offsetInCU: 0x3087D, offset: 0x3087D, size: 0x8, addend: 0x0, symName: __ZN4Pika6ScriptINS_9StdConfigEE5Frame14registerNativeIRKNSt3__112basic_stringIcNS5_11char_traitsIcEENS5_9allocatorIcEEEESD_vEEvSD_PFT1_T_T0_E, symObjAddr: 0x1635C, symBinAddr: 0x10001A968, symSize: 0x5C }
  - { offsetInCU: 0x308D8, offset: 0x308D8, size: 0x8, addend: 0x0, symName: __ZN4Pika6ScriptINS_9StdConfigEE5Frame14registerNativeIRKNSt3__112basic_stringIcNS5_11char_traitsIcEENS5_9allocatorIcEEEEiEEvSD_PFT0_T_E, symObjAddr: 0x163B8, symBinAddr: 0x10001A9C4, symSize: 0x5C }
  - { offsetInCU: 0x3092E, offset: 0x3092E, size: 0x8, addend: 0x0, symName: __ZN4Pika6ScriptINS_9StdConfigEE5Frame14registerNativeIRKS3_vEEvRKNSt3__112basic_stringIcNS7_11char_traitsIcEENS7_9allocatorIcEEEEPFT0_T_E, symObjAddr: 0x16414, symBinAddr: 0x10001AA20, symSize: 0x5C }
  - { offsetInCU: 0x30980, offset: 0x30980, size: 0x8, addend: 0x0, symName: __ZN8QStrings7QStringIcLm52EEC1Ev, symObjAddr: 0x17610, symBinAddr: 0x10001BC1C, symSize: 0x2C }
  - { offsetInCU: 0x309B1, offset: 0x309B1, size: 0x8, addend: 0x0, symName: __ZN8QStrings7QStringIcLm52EEC1ILm4EEERAT__Kc, symObjAddr: 0x1763C, symBinAddr: 0x10001BC48, symSize: 0x34 }
  - { offsetInCU: 0x309F6, offset: 0x309F6, size: 0x8, addend: 0x0, symName: __ZN8QStrings7QStringIcLm52EEaSERKS1_, symObjAddr: 0x17670, symBinAddr: 0x10001BC7C, symSize: 0x60 }
  - { offsetInCU: 0x30A2D, offset: 0x30A2D, size: 0x8, addend: 0x0, symName: __ZN8QStrings7QStringIcLm52EED1Ev, symObjAddr: 0x176D0, symBinAddr: 0x10001BCDC, symSize: 0x2C }
  - { offsetInCU: 0x30A59, offset: 0x30A59, size: 0x8, addend: 0x0, symName: __ZN8QStrings7QStringIcLm52EEC1ERKS1_, symObjAddr: 0x176FC, symBinAddr: 0x10001BD08, symSize: 0x34 }
  - { offsetInCU: 0x30A94, offset: 0x30A94, size: 0x8, addend: 0x0, symName: __ZN8QStrings7QStringIcLm52EEpLILm4EEERS1_RAT__Kc, symObjAddr: 0x17730, symBinAddr: 0x10001BD3C, symSize: 0x30 }
  - { offsetInCU: 0x30ADA, offset: 0x30ADA, size: 0x8, addend: 0x0, symName: __ZN8QStrings7QStringIcLm52EEpLILm8EEERS1_RAT__Kc, symObjAddr: 0x17760, symBinAddr: 0x10001BD6C, symSize: 0x30 }
  - { offsetInCU: 0x30B1B, offset: 0x30B1B, size: 0x8, addend: 0x0, symName: __ZNK8QStrings7QStringIcLm52EE6substrEmm, symObjAddr: 0x17790, symBinAddr: 0x10001BD9C, symSize: 0x48 }
  - { offsetInCU: 0x30B61, offset: 0x30B61, size: 0x8, addend: 0x0, symName: __ZN8QStrings7QStringIcLm52EEpLERKS1_, symObjAddr: 0x177D8, symBinAddr: 0x10001BDE4, symSize: 0x74 }
  - { offsetInCU: 0x30B9D, offset: 0x30B9D, size: 0x8, addend: 0x0, symName: __ZNK8QStrings7QStringIcLm52EEplILm12EEES1_RAT__Kc, symObjAddr: 0x1784C, symBinAddr: 0x10001BE58, symSize: 0x38 }
  - { offsetInCU: 0x30BDE, offset: 0x30BDE, size: 0x8, addend: 0x0, symName: __ZNK8QStrings7QStringIcLm52EEeqERKS1_, symObjAddr: 0x17884, symBinAddr: 0x10001BE90, symSize: 0xB0 }
  - { offsetInCU: 0x30C1A, offset: 0x30C1A, size: 0x8, addend: 0x0, symName: __ZN8QStrings7QStringIcLm52EEC1ILm44EEERAT__Kc, symObjAddr: 0x17934, symBinAddr: 0x10001BF40, symSize: 0x34 }
  - { offsetInCU: 0x30C5F, offset: 0x30C5F, size: 0x8, addend: 0x0, symName: __ZNK8QStrings7QStringIcLm52EEltERKS1_, symObjAddr: 0x17968, symBinAddr: 0x10001BF74, symSize: 0x114 }
  - { offsetInCU: 0x30CAA, offset: 0x30CAA, size: 0x8, addend: 0x0, symName: __ZN8QStrings7QStringIcLm52EEC1ILm45EEERAT__Kc, symObjAddr: 0x17A7C, symBinAddr: 0x10001C088, symSize: 0x34 }
  - { offsetInCU: 0x30CEF, offset: 0x30CEF, size: 0x8, addend: 0x0, symName: __ZNK8QStrings7QStringIcLm52EEleERKS1_, symObjAddr: 0x17AB0, symBinAddr: 0x10001C0BC, symSize: 0x114 }
  - { offsetInCU: 0x30D35, offset: 0x30D35, size: 0x8, addend: 0x0, symName: __ZNK8QStrings7QStringIcLm52EEgeERKS1_, symObjAddr: 0x17BC4, symBinAddr: 0x10001C1D0, symSize: 0x34 }
  - { offsetInCU: 0x30D6C, offset: 0x30D6C, size: 0x8, addend: 0x0, symName: __ZNK8QStrings7QStringIcLm52EEgtERKS1_, symObjAddr: 0x17BF8, symBinAddr: 0x10001C204, symSize: 0x34 }
  - { offsetInCU: 0x30DA8, offset: 0x30DA8, size: 0x8, addend: 0x0, symName: __ZN8QStrings7QStringIcLm52EEC1ILm43EEERAT__Kc, symObjAddr: 0x17C2C, symBinAddr: 0x10001C238, symSize: 0x34 }
  - { offsetInCU: 0x30DED, offset: 0x30DED, size: 0x8, addend: 0x0, symName: __ZNK8QStrings7QStringIcLm52EEneERKS1_, symObjAddr: 0x17C60, symBinAddr: 0x10001C26C, symSize: 0x34 }
  - { offsetInCU: 0x30E29, offset: 0x30E29, size: 0x8, addend: 0x0, symName: __ZN8QStrings7QStringIcLm52EEC1ILm1EEERAT__Kc, symObjAddr: 0x17C94, symBinAddr: 0x10001C2A0, symSize: 0x34 }
  - { offsetInCU: 0x30E6E, offset: 0x30E6E, size: 0x8, addend: 0x0, symName: __ZNK8QStrings7QStringIcLm52EE5beginEv, symObjAddr: 0x17CC8, symBinAddr: 0x10001C2D4, symSize: 0x34 }
  - { offsetInCU: 0x30E99, offset: 0x30E99, size: 0x8, addend: 0x0, symName: __ZNK8QStrings7QStringIcLm52EE9_iteratorIKcKS1_EneIS3_S4_EEbRKNS2_IT_T0_EE, symObjAddr: 0x17CFC, symBinAddr: 0x10001C308, symSize: 0x30 }
  - { offsetInCU: 0x30EE0, offset: 0x30EE0, size: 0x8, addend: 0x0, symName: __ZNK8QStrings7QStringIcLm52EE3endEv, symObjAddr: 0x17D2C, symBinAddr: 0x10001C338, symSize: 0x3C }
  - { offsetInCU: 0x30F06, offset: 0x30F06, size: 0x8, addend: 0x0, symName: __ZNK8QStrings7QStringIcLm52EE9_iteratorIKcKS1_EdeEv, symObjAddr: 0x17D68, symBinAddr: 0x10001C374, symSize: 0xC8 }
  - { offsetInCU: 0x30F2C, offset: 0x30F2C, size: 0x8, addend: 0x0, symName: __ZN8QStrings7QStringIcLm52EEC1EPKcmm, symObjAddr: 0x17E30, symBinAddr: 0x10001C43C, symSize: 0x44 }
  - { offsetInCU: 0x30F85, offset: 0x30F85, size: 0x8, addend: 0x0, symName: __ZN8QStrings7QStringIcLm52EE9_iteratorIKcKS1_EppEv, symObjAddr: 0x17E74, symBinAddr: 0x10001C480, symSize: 0x20 }
  - { offsetInCU: 0x30FAB, offset: 0x30FAB, size: 0x8, addend: 0x0, symName: __ZNK8QStrings7QStringIcLm52EE4sizeEv, symObjAddr: 0x17F0C, symBinAddr: 0x10001C518, symSize: 0x18 }
  - { offsetInCU: 0x30FD3, offset: 0x30FD3, size: 0x8, addend: 0x0, symName: __ZNK8QStrings7QStringIcLm52EE9_iteratorIKcKS1_EeqIS3_S4_EEbRKNS2_IT_T0_EE, symObjAddr: 0x17F6C, symBinAddr: 0x10001C578, symSize: 0x30 }
  - { offsetInCU: 0x3101A, offset: 0x3101A, size: 0x8, addend: 0x0, symName: __ZN8QStrings7QStringIcLm52EEC1ENS1_9_iteratorIKcKS1_EES5_, symObjAddr: 0x17FE4, symBinAddr: 0x10001C5F0, symSize: 0x4C }
  - { offsetInCU: 0x31069, offset: 0x31069, size: 0x8, addend: 0x0, symName: __ZN8QStrings7QStringIcLm52EEC1ILm3EEERAT__Kc, symObjAddr: 0x18030, symBinAddr: 0x10001C63C, symSize: 0x34 }
  - { offsetInCU: 0x310B3, offset: 0x310B3, size: 0x8, addend: 0x0, symName: __ZN8QStrings7QStringIcLm52EEC1ILm6EEERAT__Kc, symObjAddr: 0x18064, symBinAddr: 0x10001C670, symSize: 0x34 }
  - { offsetInCU: 0x310F8, offset: 0x310F8, size: 0x8, addend: 0x0, symName: __ZN8QStrings7QStringIcLm52EE5beginEv, symObjAddr: 0x18098, symBinAddr: 0x10001C6A4, symSize: 0x40 }
  - { offsetInCU: 0x3111E, offset: 0x3111E, size: 0x8, addend: 0x0, symName: __ZNK8QStrings7QStringIcLm52EE9_iteratorIcS1_EdeEv, symObjAddr: 0x180D8, symBinAddr: 0x10001C6E4, symSize: 0xC8 }
  - { offsetInCU: 0x31149, offset: 0x31149, size: 0x8, addend: 0x0, symName: __ZNK8QStrings7QStringIcLm52EE9_iteratorIcS1_EgeIcS1_EEbRKNS2_IT_T0_EE, symObjAddr: 0x181A0, symBinAddr: 0x10001C7AC, symSize: 0x84 }
  - { offsetInCU: 0x31190, offset: 0x31190, size: 0x8, addend: 0x0, symName: __ZNK8QStrings7QStringIcLm52EE9_iteratorIcS1_EleIcS1_EEbRKNS2_IT_T0_EE, symObjAddr: 0x18224, symBinAddr: 0x10001C830, symSize: 0x84 }
  - { offsetInCU: 0x311D7, offset: 0x311D7, size: 0x8, addend: 0x0, symName: __ZN8QStrings7QStringIcLm52EE3endEv, symObjAddr: 0x182A8, symBinAddr: 0x10001C8B4, symSize: 0x48 }
  - { offsetInCU: 0x311FD, offset: 0x311FD, size: 0x8, addend: 0x0, symName: __ZNK8QStrings7QStringIcLm52EE9_iteratorIKcKS1_EgeIS3_S4_EEbRKNS2_IT_T0_EE, symObjAddr: 0x182F0, symBinAddr: 0x10001C8FC, symSize: 0x84 }
  - { offsetInCU: 0x31244, offset: 0x31244, size: 0x8, addend: 0x0, symName: __ZNK8QStrings7QStringIcLm52EE9_iteratorIKcKS1_EleIS3_S4_EEbRKNS2_IT_T0_EE, symObjAddr: 0x18374, symBinAddr: 0x10001C980, symSize: 0x84 }
  - { offsetInCU: 0x31290, offset: 0x31290, size: 0x8, addend: 0x0, symName: __ZN8QStrings7QStringIcLm52EEC1ILm11EEERAT__Kc, symObjAddr: 0x183F8, symBinAddr: 0x10001CA04, symSize: 0x34 }
  - { offsetInCU: 0x312D5, offset: 0x312D5, size: 0x8, addend: 0x0, symName: __ZN8QStrings7QStringIcLm52EEC1ERKNSt3__112basic_stringIcNS2_11char_traitsIcEENS2_9allocatorIcEEEE, symObjAddr: 0x1842C, symBinAddr: 0x10001CA38, symSize: 0x34 }
  - { offsetInCU: 0x31310, offset: 0x31310, size: 0x8, addend: 0x0, symName: __ZNSt3__14pairIN8QStrings7QStringIcLm52EEES3_EC1B8ue170006ERKS3_S6_, symObjAddr: 0x18460, symBinAddr: 0x10001CA6C, symSize: 0x3C }
  - { offsetInCU: 0x3135B, offset: 0x3135B, size: 0x8, addend: 0x0, symName: __ZN8QStrings7QStringIcLm52EEC1ILm13EEERAT__Kc, symObjAddr: 0x1849C, symBinAddr: 0x10001CAA8, symSize: 0x34 }
  - { offsetInCU: 0x313A5, offset: 0x313A5, size: 0x8, addend: 0x0, symName: __ZN8QStrings7QStringIcLm52EEC1ILm10EEERAT__Kc, symObjAddr: 0x184D0, symBinAddr: 0x10001CADC, symSize: 0x34 }
  - { offsetInCU: 0x313EF, offset: 0x313EF, size: 0x8, addend: 0x0, symName: __ZN8QStrings7QStringIcLm52EEC1ILm17EEERAT__Kc, symObjAddr: 0x18504, symBinAddr: 0x10001CB10, symSize: 0x34 }
  - { offsetInCU: 0x31434, offset: 0x31434, size: 0x8, addend: 0x0, symName: __ZN8QStrings7QStringIcLm52EEC1ILm12EEERAT__Kc, symObjAddr: 0x18538, symBinAddr: 0x10001CB44, symSize: 0x34 }
  - { offsetInCU: 0x31479, offset: 0x31479, size: 0x8, addend: 0x0, symName: __ZNSt3__14pairIN8QStrings7QStringIcLm52EEES3_ED1Ev, symObjAddr: 0x1856C, symBinAddr: 0x10001CB78, symSize: 0x2C }
  - { offsetInCU: 0x314A4, offset: 0x314A4, size: 0x8, addend: 0x0, symName: __Z14overloadedLoadRKN8QStrings7QStringIcLm52EEE, symObjAddr: 0x18598, symBinAddr: 0x10001CBA4, symSize: 0x4A8 }
  - { offsetInCU: 0x3152E, offset: 0x3152E, size: 0x8, addend: 0x0, symName: __ZL8loadFileRNSt3__114basic_ifstreamIcNS_11char_traitsIcEEEERKNS_12basic_stringIcS2_NS_9allocatorIcEEEE, symObjAddr: 0x18AA0, symBinAddr: 0x10001D0AC, symSize: 0x338 }
  - { offsetInCU: 0x3158B, offset: 0x3158B, size: 0x8, addend: 0x0, symName: __ZNK8QStrings7QStringIcLm52EEcvNSt3__112basic_stringIcNS2_11char_traitsIcEENS2_9allocatorIcEEEEEv, symObjAddr: 0x18DD8, symBinAddr: 0x10001D3E4, symSize: 0x40 }
  - { offsetInCU: 0x315B6, offset: 0x315B6, size: 0x8, addend: 0x0, symName: __ZN8QStrings7QStringIcLm52EEC1ILm31EEERAT__Kc, symObjAddr: 0x194F4, symBinAddr: 0x10001DB00, symSize: 0x34 }
  - { offsetInCU: 0x315FB, offset: 0x315FB, size: 0x8, addend: 0x0, symName: __ZN4Pika9ExceptionIN8QStrings7QStringIcLm52EEEEC1ERKS3_, symObjAddr: 0x19528, symBinAddr: 0x10001DB34, symSize: 0x34 }
  - { offsetInCU: 0x31633, offset: 0x31633, size: 0x8, addend: 0x0, symName: __ZN4Pika9ExceptionIN8QStrings7QStringIcLm52EEEED1Ev, symObjAddr: 0x1955C, symBinAddr: 0x10001DB68, symSize: 0x2C }
  - { offsetInCU: 0x3165C, offset: 0x3165C, size: 0x8, addend: 0x0, symName: __Z17getEnvironmentVarRKN8QStrings7QStringIcLm52EEE, symObjAddr: 0x19588, symBinAddr: 0x10001DB94, symSize: 0x164 }
  - { offsetInCU: 0x3169A, offset: 0x3169A, size: 0x8, addend: 0x0, symName: __ZNK8QStrings7QStringIcLm52EE5c_strEv, symObjAddr: 0x196EC, symBinAddr: 0x10001DCF8, symSize: 0x68 }
  - { offsetInCU: 0x316C2, offset: 0x316C2, size: 0x8, addend: 0x0, symName: __ZN4Pika8STLValueIN8QStrings7QStringIcLm52EEEEC1Ev, symObjAddr: 0x19754, symBinAddr: 0x10001DD60, symSize: 0x2C }
  - { offsetInCU: 0x316EC, offset: 0x316EC, size: 0x8, addend: 0x0, symName: __ZN4Pika8STLValueIN8QStrings7QStringIcLm52EEEED1Ev, symObjAddr: 0x19780, symBinAddr: 0x10001DD8C, symSize: 0x2C }
  - { offsetInCU: 0x31718, offset: 0x31718, size: 0x8, addend: 0x0, symName: _main, symObjAddr: 0x197AC, symBinAddr: 0x10001DDB8, symSize: 0xAE0 }
  - { offsetInCU: 0x317D0, offset: 0x317D0, size: 0x8, addend: 0x0, symName: __ZNSt3__112basic_stringIcNS_11char_traitsIcEENS_9allocatorIcEEEaSB8ue170006EPKc, symObjAddr: 0x1A2D4, symBinAddr: 0x10001E8E0, symSize: 0x2C }
  - { offsetInCU: 0x31805, offset: 0x31805, size: 0x8, addend: 0x0, symName: __ZNKSt3__112basic_stringIcNS_11char_traitsIcEENS_9allocatorIcEEE12find_last_ofB8ue170006EPKcm, symObjAddr: 0x1A300, symBinAddr: 0x10001E90C, symSize: 0x74 }
  - { offsetInCU: 0x3184B, offset: 0x3184B, size: 0x8, addend: 0x0, symName: __ZNSt3__112basic_stringIcNS_11char_traitsIcEENS_9allocatorIcEEE5clearB8ue170006Ev, symObjAddr: 0x1A374, symBinAddr: 0x10001E980, symSize: 0x78 }
  - { offsetInCU: 0x31878, offset: 0x31878, size: 0x8, addend: 0x0, symName: __ZN4Pika6ScriptI19QuickerScriptConfigE8FullRootC1Eb, symObjAddr: 0x1A3EC, symBinAddr: 0x10001E9F8, symSize: 0x40 }
  - { offsetInCU: 0x318B1, offset: 0x318B1, size: 0x8, addend: 0x0, symName: __ZN4Pika6ScriptI19QuickerScriptConfigE5Frame14registerNativeIRKN8QStrings7QStringIcLm52EEES7_EEvS9_PFT0_T_E, symObjAddr: 0x1A42C, symBinAddr: 0x10001EA38, symSize: 0x5C }
  - { offsetInCU: 0x3190C, offset: 0x3190C, size: 0x8, addend: 0x0, symName: __ZN8QStrings7QStringIcLm52EEC1ILm5EEERAT__Kc, symObjAddr: 0x1A488, symBinAddr: 0x10001EA94, symSize: 0x34 }
  - { offsetInCU: 0x31956, offset: 0x31956, size: 0x8, addend: 0x0, symName: __ZN8QStrings7QStringIcLm52EEC1ILm7EEERAT__Kc, symObjAddr: 0x1A4BC, symBinAddr: 0x10001EAC8, symSize: 0x34 }
  - { offsetInCU: 0x3199B, offset: 0x3199B, size: 0x8, addend: 0x0, symName: __ZN4Pika9QuickVarsINS_6ScriptI19QuickerScriptConfigE12STLVariablesELj11EE6assignERKN8QStrings7QStringIcLm52EEERKNS_8STLValueIS8_EE, symObjAddr: 0x1A4F0, symBinAddr: 0x10001EAFC, symSize: 0x1E4 }
  - { offsetInCU: 0x319F3, offset: 0x319F3, size: 0x8, addend: 0x0, symName: __ZN8QStrings7QStringIcLm52EEC1ILm9EEERAT__Kc, symObjAddr: 0x1A6D4, symBinAddr: 0x10001ECE0, symSize: 0x34 }
  - { offsetInCU: 0x31A38, offset: 0x31A38, size: 0x8, addend: 0x0, symName: __ZN4Pika8STLValueIN8QStrings7QStringIcLm52EEEEC1Ei, symObjAddr: 0x1A708, symBinAddr: 0x10001ED14, symSize: 0x34 }
  - { offsetInCU: 0x31A70, offset: 0x31A70, size: 0x8, addend: 0x0, symName: __ZN4Pika8STLValueIN8QStrings7QStringIcLm52EEEEC1IS3_EERKT_, symObjAddr: 0x1A73C, symBinAddr: 0x10001ED48, symSize: 0x34 }
  - { offsetInCU: 0x31AB1, offset: 0x31AB1, size: 0x8, addend: 0x0, symName: __ZNSt3__16vectorIN4Pika8STLValueIN8QStrings7QStringIcLm52EEEEENS_9allocatorIS6_EEEC1EmRKS6_, symObjAddr: 0x1A770, symBinAddr: 0x10001ED7C, symSize: 0x3C }
  - { offsetInCU: 0x31AFB, offset: 0x31AFB, size: 0x8, addend: 0x0, symName: __ZNSt3__16vectorIN4Pika8STLValueIN8QStrings7QStringIcLm52EEEEENS_9allocatorIS6_EEE9push_backB8ue170006EOS6_, symObjAddr: 0x1A7AC, symBinAddr: 0x10001EDB8, symSize: 0x6C }
  - { offsetInCU: 0x31B37, offset: 0x31B37, size: 0x8, addend: 0x0, symName: __ZN8QStrings7QStringIcLm52EEC1ILm2EEERAT__Kc, symObjAddr: 0x1AA8C, symBinAddr: 0x10001F098, symSize: 0x34 }
  - { offsetInCU: 0x31B86, offset: 0x31B86, size: 0x8, addend: 0x0, symName: __ZN4Pika8STLValueIN8QStrings7QStringIcLm52EEEEC1IPKcEERKT_, symObjAddr: 0x1AAC0, symBinAddr: 0x10001F0CC, symSize: 0x34 }
  - { offsetInCU: 0x31BC7, offset: 0x31BC7, size: 0x8, addend: 0x0, symName: __ZN4Pika6ScriptI19QuickerScriptConfigE5Frame4callERKN8QStrings7QStringIcLm52EEERKNS_8STLValueIS6_EElPSB_, symObjAddr: 0x1AAF4, symBinAddr: 0x10001F100, symSize: 0x358 }
  - { offsetInCU: 0x31C61, offset: 0x31C61, size: 0x8, addend: 0x0, symName: __ZNK8QStrings7QStringIcLm52EEixEm, symObjAddr: 0x1AE4C, symBinAddr: 0x10001F458, symSize: 0xAC }
  - { offsetInCU: 0x31C98, offset: 0x31C98, size: 0x8, addend: 0x0, symName: __ZNKSt3__16vectorIN4Pika8STLValueIN8QStrings7QStringIcLm52EEEEENS_9allocatorIS6_EEE4sizeB8ue170006Ev, symObjAddr: 0x1AEF8, symBinAddr: 0x10001F504, symSize: 0x28 }
  - { offsetInCU: 0x31CBE, offset: 0x31CBE, size: 0x8, addend: 0x0, symName: __ZNSt3__16vectorIN4Pika8STLValueIN8QStrings7QStringIcLm52EEEEENS_9allocatorIS6_EEEixB8ue170006Em, symObjAddr: 0x1AF20, symBinAddr: 0x10001F52C, symSize: 0x2C }
  - { offsetInCU: 0x31CF5, offset: 0x31CF5, size: 0x8, addend: 0x0, symName: __ZNK4Pika6ScriptI19QuickerScriptConfigE5Frame11getOptionalERKN8QStrings7QStringIcLm52EEERKNS_8STLValueIS6_EE, symObjAddr: 0x1AF4C, symBinAddr: 0x10001F558, symSize: 0xF0 }
  - { offsetInCU: 0x31D5A, offset: 0x31D5A, size: 0x8, addend: 0x0, symName: __ZNK4Pika8STLValueIN8QStrings7QStringIcLm52EEEEcviEv, symObjAddr: 0x1B03C, symBinAddr: 0x10001F648, symSize: 0x24 }
  - { offsetInCU: 0x31D80, offset: 0x31D80, size: 0x8, addend: 0x0, symName: __ZNSt3__16vectorIN4Pika8STLValueIN8QStrings7QStringIcLm52EEEEENS_9allocatorIS6_EEED1B8ue170006Ev, symObjAddr: 0x1B060, symBinAddr: 0x10001F66C, symSize: 0x2C }
  - { offsetInCU: 0x31DAA, offset: 0x31DAA, size: 0x8, addend: 0x0, symName: __ZN4Pika6ScriptI19QuickerScriptConfigE8FullRootD1Ev, symObjAddr: 0x1B08C, symBinAddr: 0x10001F698, symSize: 0x2C }
  - { offsetInCU: 0x31DD7, offset: 0x31DD7, size: 0x8, addend: 0x0, symName: __ZN8QStrings7QStringIcLm52EE6deinitEv, symObjAddr: 0x1B0B8, symBinAddr: 0x10001F6C4, symSize: 0x14 }
  - { offsetInCU: 0x31DED, offset: 0x31DED, size: 0x8, addend: 0x0, symName: __ZN4Pika6ScriptINS_9StdConfigEE4RootD1Ev, symObjAddr: 0x1B0CC, symBinAddr: 0x10001F6D8, symSize: 0x2C }
  - { offsetInCU: 0x31E1A, offset: 0x31E1A, size: 0x8, addend: 0x0, symName: __ZN4Pika6ScriptINS_9StdConfigEE4RootD0Ev, symObjAddr: 0x1B0F8, symBinAddr: 0x10001F704, symSize: 0x58 }
  - { offsetInCU: 0x31E47, offset: 0x31E47, size: 0x8, addend: 0x0, symName: __ZN4Pika6ScriptINS_9StdConfigEE8FullRootD1Ev, symObjAddr: 0x1B150, symBinAddr: 0x10001F75C, symSize: 0x2C }
  - { offsetInCU: 0x31E74, offset: 0x31E74, size: 0x8, addend: 0x0, symName: __ZN4Pika6ScriptINS_9StdConfigEE8FullRootD0Ev, symObjAddr: 0x1B17C, symBinAddr: 0x10001F788, symSize: 0x58 }
  - { offsetInCU: 0x31EA1, offset: 0x31EA1, size: 0x8, addend: 0x0, symName: __ZThn152_N4Pika6ScriptINS_9StdConfigEE8FullRootD1Ev, symObjAddr: 0x1B1D4, symBinAddr: 0x10001F7E0, symSize: 0x1C }
  - { offsetInCU: 0x31EB8, offset: 0x31EB8, size: 0x8, addend: 0x0, symName: __ZThn152_N4Pika6ScriptINS_9StdConfigEE8FullRootD0Ev, symObjAddr: 0x1B1F0, symBinAddr: 0x10001F7FC, symSize: 0x18 }
  - { offsetInCU: 0x31ECF, offset: 0x31ECF, size: 0x8, addend: 0x0, symName: __ZN4Pika8STLValueINSt3__112basic_stringIcNS1_11char_traitsIcEENS1_9allocatorIcEEEEED2Ev, symObjAddr: 0x1B208, symBinAddr: 0x10001F814, symSize: 0x2C }
  - { offsetInCU: 0x31EFB, offset: 0x31EFB, size: 0x8, addend: 0x0, symName: __ZN4Pika8STLValueINSt3__112basic_stringIcNS1_11char_traitsIcEENS1_9allocatorIcEEEEEC2ERKS8_, symObjAddr: 0x1B234, symBinAddr: 0x10001F840, symSize: 0x34 }
  - { offsetInCU: 0x31F30, offset: 0x31F30, size: 0x8, addend: 0x0, symName: __ZNSt3__14pairIPN4Pika6ScriptINS1_9StdConfigEE5FrameENS_12basic_stringIcNS_11char_traitsIcEENS_9allocatorIcEEEEED2Ev, symObjAddr: 0x1B268, symBinAddr: 0x10001F874, symSize: 0x30 }
  - { offsetInCU: 0x31F5C, offset: 0x31F5C, size: 0x8, addend: 0x0, symName: __ZNSt3__14pairIbN4Pika8STLValueINS_12basic_stringIcNS_11char_traitsIcEENS_9allocatorIcEEEEEEED2Ev, symObjAddr: 0x1B298, symBinAddr: 0x10001F8A4, symSize: 0x30 }
  - { offsetInCU: 0x31F88, offset: 0x31F88, size: 0x8, addend: 0x0, symName: __ZN4Pika6ScriptINS_9StdConfigEE9VariablesC2Ev, symObjAddr: 0x1B2C8, symBinAddr: 0x10001F8D4, symSize: 0x24 }
  - { offsetInCU: 0x31FB5, offset: 0x31FB5, size: 0x8, addend: 0x0, symName: __ZNSt3__13mapIKNS_12basic_stringIcNS_11char_traitsIcEENS_9allocatorIcEEEEN4Pika8STLValueIS6_EENS_4lessIS7_EENS4_INS_4pairIS7_SA_EEEEEC1B8ue170006Ev, symObjAddr: 0x1B2EC, symBinAddr: 0x10001F8F8, symSize: 0x2C }
  - { offsetInCU: 0x31FDF, offset: 0x31FDF, size: 0x8, addend: 0x0, symName: __ZNSt3__13mapIKNS_12basic_stringIcNS_11char_traitsIcEENS_9allocatorIcEEEEPN4Pika6ScriptINS8_9StdConfigEE6NativeENS_4lessIS7_EENS4_INS_4pairIS7_SD_EEEEEC1B8ue170006Ev, symObjAddr: 0x1B318, symBinAddr: 0x10001F924, symSize: 0x2C }
  - { offsetInCU: 0x32009, offset: 0x32009, size: 0x8, addend: 0x0, symName: __ZNSt3__13mapIKNS_12basic_stringIcNS_11char_traitsIcEENS_9allocatorIcEEEEN4Pika8STLValueIS6_EENS_4lessIS7_EENS4_INS_4pairIS7_SA_EEEEEC2B8ue170006Ev, symObjAddr: 0x1B344, symBinAddr: 0x10001F950, symSize: 0x40 }
  - { offsetInCU: 0x32033, offset: 0x32033, size: 0x8, addend: 0x0, symName: __ZNSt3__119__map_value_compareIKNS_12basic_stringIcNS_11char_traitsIcEENS_9allocatorIcEEEENS_12__value_typeIS7_N4Pika8STLValueIS6_EEEENS_4lessIS7_EELb1EEC1B8ue170006ESE_, symObjAddr: 0x1B384, symBinAddr: 0x10001F990, symSize: 0x2C }
  - { offsetInCU: 0x3206C, offset: 0x3206C, size: 0x8, addend: 0x0, symName: __ZNSt3__16__treeINS_12__value_typeIKNS_12basic_stringIcNS_11char_traitsIcEENS_9allocatorIcEEEEN4Pika8STLValueIS7_EEEENS_19__map_value_compareIS8_SC_NS_4lessIS8_EELb1EEENS5_ISC_EEEC1ERKSG_, symObjAddr: 0x1B3B0, symBinAddr: 0x10001F9BC, symSize: 0x34 }
  - { offsetInCU: 0x320A7, offset: 0x320A7, size: 0x8, addend: 0x0, symName: __ZNSt3__119__map_value_compareIKNS_12basic_stringIcNS_11char_traitsIcEENS_9allocatorIcEEEENS_12__value_typeIS7_N4Pika8STLValueIS6_EEEENS_4lessIS7_EELb1EEC2B8ue170006ESE_, symObjAddr: 0x1B3E4, symBinAddr: 0x10001F9F0, symSize: 0x14 }
  - { offsetInCU: 0x320E0, offset: 0x320E0, size: 0x8, addend: 0x0, symName: __ZNSt3__16__treeINS_12__value_typeIKNS_12basic_stringIcNS_11char_traitsIcEENS_9allocatorIcEEEEN4Pika8STLValueIS7_EEEENS_19__map_value_compareIS8_SC_NS_4lessIS8_EELb1EEENS5_ISC_EEEC2ERKSG_, symObjAddr: 0x1B3F8, symBinAddr: 0x10001FA04, symSize: 0x70 }
  - { offsetInCU: 0x3211B, offset: 0x3211B, size: 0x8, addend: 0x0, symName: __ZNSt3__117__compressed_pairINS_15__tree_end_nodeIPNS_16__tree_node_baseIPvEEEENS_9allocatorINS_11__tree_nodeINS_12__value_typeIKNS_12basic_stringIcNS_11char_traitsIcEENS7_IcEEEEN4Pika8STLValueISE_EEEES3_EEEEEC1B8ue170006ILb1EvEEv, symObjAddr: 0x1B468, symBinAddr: 0x10001FA74, symSize: 0x2C }
  - { offsetInCU: 0x32155, offset: 0x32155, size: 0x8, addend: 0x0, symName: __ZNSt3__117__compressed_pairImNS_19__map_value_compareIKNS_12basic_stringIcNS_11char_traitsIcEENS_9allocatorIcEEEENS_12__value_typeIS8_N4Pika8STLValueIS7_EEEENS_4lessIS8_EELb1EEEEC1B8ue170006IiRKSG_EEOT_OT0_, symObjAddr: 0x1B494, symBinAddr: 0x10001FAA0, symSize: 0x3C }
  - { offsetInCU: 0x321AD, offset: 0x321AD, size: 0x8, addend: 0x0, symName: __ZNSt3__16__treeINS_12__value_typeIKNS_12basic_stringIcNS_11char_traitsIcEENS_9allocatorIcEEEEN4Pika8STLValueIS7_EEEENS_19__map_value_compareIS8_SC_NS_4lessIS8_EELb1EEENS5_ISC_EEE10__end_nodeB8ue170006Ev, symObjAddr: 0x1B4D0, symBinAddr: 0x10001FADC, symSize: 0x2C }
  - { offsetInCU: 0x321D3, offset: 0x321D3, size: 0x8, addend: 0x0, symName: __ZNSt3__16__treeINS_12__value_typeIKNS_12basic_stringIcNS_11char_traitsIcEENS_9allocatorIcEEEEN4Pika8STLValueIS7_EEEENS_19__map_value_compareIS8_SC_NS_4lessIS8_EELb1EEENS5_ISC_EEE12__begin_nodeB8ue170006Ev, symObjAddr: 0x1B4FC, symBinAddr: 0x10001FB08, symSize: 0x14 }
  - { offsetInCU: 0x321F9, offset: 0x321F9, size: 0x8, addend: 0x0, symName: __ZNSt3__117__compressed_pairINS_15__tree_end_nodeIPNS_16__tree_node_baseIPvEEEENS_9allocatorINS_11__tree_nodeINS_12__value_typeIKNS_12basic_stringIcNS_11char_traitsIcEENS7_IcEEEEN4Pika8STLValueISE_EEEES3_EEEEEC2B8ue170006ILb1EvEEv, symObjAddr: 0x1B510, symBinAddr: 0x10001FB1C, symSize: 0x34 }
  - { offsetInCU: 0x3222E, offset: 0x3222E, size: 0x8, addend: 0x0, symName: __ZNSt3__122__compressed_pair_elemINS_15__tree_end_nodeIPNS_16__tree_node_baseIPvEEEELi0ELb0EEC2B8ue170006ENS_16__value_init_tagE, symObjAddr: 0x1B544, symBinAddr: 0x10001FB50, symSize: 0x2C }
  - { offsetInCU: 0x32262, offset: 0x32262, size: 0x8, addend: 0x0, symName: __ZNSt3__122__compressed_pair_elemINS_9allocatorINS_11__tree_nodeINS_12__value_typeIKNS_12basic_stringIcNS_11char_traitsIcEENS1_IcEEEEN4Pika8STLValueIS8_EEEEPvEEEELi1ELb1EEC2B8ue170006ENS_16__value_init_tagE, symObjAddr: 0x1B570, symBinAddr: 0x10001FB7C, symSize: 0x2C }
  - { offsetInCU: 0x32296, offset: 0x32296, size: 0x8, addend: 0x0, symName: __ZNSt3__115__tree_end_nodeIPNS_16__tree_node_baseIPvEEEC1B8ue170006Ev, symObjAddr: 0x1B59C, symBinAddr: 0x10001FBA8, symSize: 0x2C }
  - { offsetInCU: 0x322C0, offset: 0x322C0, size: 0x8, addend: 0x0, symName: __ZNSt3__115__tree_end_nodeIPNS_16__tree_node_baseIPvEEEC2B8ue170006Ev, symObjAddr: 0x1B5C8, symBinAddr: 0x10001FBD4, symSize: 0x18 }
  - { offsetInCU: 0x322EA, offset: 0x322EA, size: 0x8, addend: 0x0, symName: __ZNSt3__19allocatorINS_11__tree_nodeINS_12__value_typeIKNS_12basic_stringIcNS_11char_traitsIcEENS0_IcEEEEN4Pika8STLValueIS7_EEEEPvEEEC2B8ue170006Ev, symObjAddr: 0x1B5E0, symBinAddr: 0x10001FBEC, symSize: 0x2C }
  - { offsetInCU: 0x32314, offset: 0x32314, size: 0x8, addend: 0x0, symName: __ZNSt3__116__non_trivial_ifILb1ENS_9allocatorINS_11__tree_nodeINS_12__value_typeIKNS_12basic_stringIcNS_11char_traitsIcEENS1_IcEEEEN4Pika8STLValueIS8_EEEEPvEEEEEC2B8ue170006Ev, symObjAddr: 0x1B60C, symBinAddr: 0x10001FC18, symSize: 0x14 }
  - { offsetInCU: 0x3233E, offset: 0x3233E, size: 0x8, addend: 0x0, symName: __ZNSt3__117__compressed_pairImNS_19__map_value_compareIKNS_12basic_stringIcNS_11char_traitsIcEENS_9allocatorIcEEEENS_12__value_typeIS8_N4Pika8STLValueIS7_EEEENS_4lessIS8_EELb1EEEEC2B8ue170006IiRKSG_EEOT_OT0_, symObjAddr: 0x1B620, symBinAddr: 0x10001FC2C, symSize: 0x44 }
  - { offsetInCU: 0x32396, offset: 0x32396, size: 0x8, addend: 0x0, symName: __ZNSt3__122__compressed_pair_elemImLi0ELb0EEC2B8ue170006IivEEOT_, symObjAddr: 0x1B664, symBinAddr: 0x10001FC70, symSize: 0x24 }
  - { offsetInCU: 0x323D8, offset: 0x323D8, size: 0x8, addend: 0x0, symName: __ZNSt3__122__compressed_pair_elemINS_19__map_value_compareIKNS_12basic_stringIcNS_11char_traitsIcEENS_9allocatorIcEEEENS_12__value_typeIS8_N4Pika8STLValueIS7_EEEENS_4lessIS8_EELb1EEELi1ELb1EEC2B8ue170006IRKSG_vEEOT_, symObjAddr: 0x1B688, symBinAddr: 0x10001FC94, symSize: 0x18 }
  - { offsetInCU: 0x3241A, offset: 0x3241A, size: 0x8, addend: 0x0, symName: __ZNSt3__114pointer_traitsIPNS_15__tree_end_nodeIPNS_16__tree_node_baseIPvEEEEE10pointer_toB8ue170006ERS6_, symObjAddr: 0x1B6A0, symBinAddr: 0x10001FCAC, symSize: 0x14 }
  - { offsetInCU: 0x3243D, offset: 0x3243D, size: 0x8, addend: 0x0, symName: __ZNSt3__117__compressed_pairINS_15__tree_end_nodeIPNS_16__tree_node_baseIPvEEEENS_9allocatorINS_11__tree_nodeINS_12__value_typeIKNS_12basic_stringIcNS_11char_traitsIcEENS7_IcEEEEN4Pika8STLValueISE_EEEES3_EEEEE5firstB8ue170006Ev, symObjAddr: 0x1B6B4, symBinAddr: 0x10001FCC0, symSize: 0x24 }
  - { offsetInCU: 0x32463, offset: 0x32463, size: 0x8, addend: 0x0, symName: __ZNSt3__122__compressed_pair_elemINS_15__tree_end_nodeIPNS_16__tree_node_baseIPvEEEELi0ELb0EE5__getB8ue170006Ev, symObjAddr: 0x1B6D8, symBinAddr: 0x10001FCE4, symSize: 0x14 }
  - { offsetInCU: 0x32489, offset: 0x32489, size: 0x8, addend: 0x0, symName: __ZNSt3__13mapIKNS_12basic_stringIcNS_11char_traitsIcEENS_9allocatorIcEEEEPN4Pika6ScriptINS8_9StdConfigEE6NativeENS_4lessIS7_EENS4_INS_4pairIS7_SD_EEEEEC2B8ue170006Ev, symObjAddr: 0x1B6EC, symBinAddr: 0x10001FCF8, symSize: 0x40 }
  - { offsetInCU: 0x324B3, offset: 0x324B3, size: 0x8, addend: 0x0, symName: __ZNSt3__119__map_value_compareIKNS_12basic_stringIcNS_11char_traitsIcEENS_9allocatorIcEEEENS_12__value_typeIS7_PN4Pika6ScriptINS9_9StdConfigEE6NativeEEENS_4lessIS7_EELb1EEC1B8ue170006ESH_, symObjAddr: 0x1B72C, symBinAddr: 0x10001FD38, symSize: 0x2C }
  - { offsetInCU: 0x324EC, offset: 0x324EC, size: 0x8, addend: 0x0, symName: __ZNSt3__16__treeINS_12__value_typeIKNS_12basic_stringIcNS_11char_traitsIcEENS_9allocatorIcEEEEPN4Pika6ScriptINS9_9StdConfigEE6NativeEEENS_19__map_value_compareIS8_SF_NS_4lessIS8_EELb1EEENS5_ISF_EEEC1ERKSJ_, symObjAddr: 0x1B758, symBinAddr: 0x10001FD64, symSize: 0x34 }
  - { offsetInCU: 0x32527, offset: 0x32527, size: 0x8, addend: 0x0, symName: __ZNSt3__119__map_value_compareIKNS_12basic_stringIcNS_11char_traitsIcEENS_9allocatorIcEEEENS_12__value_typeIS7_PN4Pika6ScriptINS9_9StdConfigEE6NativeEEENS_4lessIS7_EELb1EEC2B8ue170006ESH_, symObjAddr: 0x1B78C, symBinAddr: 0x10001FD98, symSize: 0x14 }
  - { offsetInCU: 0x32560, offset: 0x32560, size: 0x8, addend: 0x0, symName: __ZNSt3__16__treeINS_12__value_typeIKNS_12basic_stringIcNS_11char_traitsIcEENS_9allocatorIcEEEEPN4Pika6ScriptINS9_9StdConfigEE6NativeEEENS_19__map_value_compareIS8_SF_NS_4lessIS8_EELb1EEENS5_ISF_EEEC2ERKSJ_, symObjAddr: 0x1B7A0, symBinAddr: 0x10001FDAC, symSize: 0x70 }
  - { offsetInCU: 0x3259B, offset: 0x3259B, size: 0x8, addend: 0x0, symName: __ZNSt3__117__compressed_pairINS_15__tree_end_nodeIPNS_16__tree_node_baseIPvEEEENS_9allocatorINS_11__tree_nodeINS_12__value_typeIKNS_12basic_stringIcNS_11char_traitsIcEENS7_IcEEEEPN4Pika6ScriptINSG_9StdConfigEE6NativeEEES3_EEEEEC1B8ue170006ILb1EvEEv, symObjAddr: 0x1B810, symBinAddr: 0x10001FE1C, symSize: 0x2C }
  - { offsetInCU: 0x325D0, offset: 0x325D0, size: 0x8, addend: 0x0, symName: __ZNSt3__117__compressed_pairImNS_19__map_value_compareIKNS_12basic_stringIcNS_11char_traitsIcEENS_9allocatorIcEEEENS_12__value_typeIS8_PN4Pika6ScriptINSA_9StdConfigEE6NativeEEENS_4lessIS8_EELb1EEEEC1B8ue170006IiRKSJ_EEOT_OT0_, symObjAddr: 0x1B83C, symBinAddr: 0x10001FE48, symSize: 0x3C }
  - { offsetInCU: 0x32628, offset: 0x32628, size: 0x8, addend: 0x0, symName: __ZNSt3__16__treeINS_12__value_typeIKNS_12basic_stringIcNS_11char_traitsIcEENS_9allocatorIcEEEEPN4Pika6ScriptINS9_9StdConfigEE6NativeEEENS_19__map_value_compareIS8_SF_NS_4lessIS8_EELb1EEENS5_ISF_EEE10__end_nodeB8ue170006Ev, symObjAddr: 0x1B878, symBinAddr: 0x10001FE84, symSize: 0x2C }
  - { offsetInCU: 0x3264E, offset: 0x3264E, size: 0x8, addend: 0x0, symName: __ZNSt3__16__treeINS_12__value_typeIKNS_12basic_stringIcNS_11char_traitsIcEENS_9allocatorIcEEEEPN4Pika6ScriptINS9_9StdConfigEE6NativeEEENS_19__map_value_compareIS8_SF_NS_4lessIS8_EELb1EEENS5_ISF_EEE12__begin_nodeB8ue170006Ev, symObjAddr: 0x1B8A4, symBinAddr: 0x10001FEB0, symSize: 0x14 }
  - { offsetInCU: 0x32674, offset: 0x32674, size: 0x8, addend: 0x0, symName: __ZNSt3__117__compressed_pairINS_15__tree_end_nodeIPNS_16__tree_node_baseIPvEEEENS_9allocatorINS_11__tree_nodeINS_12__value_typeIKNS_12basic_stringIcNS_11char_traitsIcEENS7_IcEEEEPN4Pika6ScriptINSG_9StdConfigEE6NativeEEES3_EEEEEC2B8ue170006ILb1EvEEv, symObjAddr: 0x1B8B8, symBinAddr: 0x10001FEC4, symSize: 0x34 }
  - { offsetInCU: 0x326A9, offset: 0x326A9, size: 0x8, addend: 0x0, symName: __ZNSt3__122__compressed_pair_elemINS_9allocatorINS_11__tree_nodeINS_12__value_typeIKNS_12basic_stringIcNS_11char_traitsIcEENS1_IcEEEEPN4Pika6ScriptINSA_9StdConfigEE6NativeEEEPvEEEELi1ELb1EEC2B8ue170006ENS_16__value_init_tagE, symObjAddr: 0x1B8EC, symBinAddr: 0x10001FEF8, symSize: 0x2C }
  - { offsetInCU: 0x326DD, offset: 0x326DD, size: 0x8, addend: 0x0, symName: __ZNSt3__19allocatorINS_11__tree_nodeINS_12__value_typeIKNS_12basic_stringIcNS_11char_traitsIcEENS0_IcEEEEPN4Pika6ScriptINS9_9StdConfigEE6NativeEEEPvEEEC2B8ue170006Ev, symObjAddr: 0x1B918, symBinAddr: 0x10001FF24, symSize: 0x2C }
  - { offsetInCU: 0x32707, offset: 0x32707, size: 0x8, addend: 0x0, symName: __ZNSt3__116__non_trivial_ifILb1ENS_9allocatorINS_11__tree_nodeINS_12__value_typeIKNS_12basic_stringIcNS_11char_traitsIcEENS1_IcEEEEPN4Pika6ScriptINSA_9StdConfigEE6NativeEEEPvEEEEEC2B8ue170006Ev, symObjAddr: 0x1B944, symBinAddr: 0x10001FF50, symSize: 0x14 }
  - { offsetInCU: 0x32731, offset: 0x32731, size: 0x8, addend: 0x0, symName: __ZNSt3__117__compressed_pairImNS_19__map_value_compareIKNS_12basic_stringIcNS_11char_traitsIcEENS_9allocatorIcEEEENS_12__value_typeIS8_PN4Pika6ScriptINSA_9StdConfigEE6NativeEEENS_4lessIS8_EELb1EEEEC2B8ue170006IiRKSJ_EEOT_OT0_, symObjAddr: 0x1B958, symBinAddr: 0x10001FF64, symSize: 0x44 }
  - { offsetInCU: 0x32789, offset: 0x32789, size: 0x8, addend: 0x0, symName: __ZNSt3__122__compressed_pair_elemINS_19__map_value_compareIKNS_12basic_stringIcNS_11char_traitsIcEENS_9allocatorIcEEEENS_12__value_typeIS8_PN4Pika6ScriptINSA_9StdConfigEE6NativeEEENS_4lessIS8_EELb1EEELi1ELb1EEC2B8ue170006IRKSJ_vEEOT_, symObjAddr: 0x1B99C, symBinAddr: 0x10001FFA8, symSize: 0x18 }
  - { offsetInCU: 0x327CB, offset: 0x327CB, size: 0x8, addend: 0x0, symName: __ZNSt3__117__compressed_pairINS_15__tree_end_nodeIPNS_16__tree_node_baseIPvEEEENS_9allocatorINS_11__tree_nodeINS_12__value_typeIKNS_12basic_stringIcNS_11char_traitsIcEENS7_IcEEEEPN4Pika6ScriptINSG_9StdConfigEE6NativeEEES3_EEEEE5firstB8ue170006Ev, symObjAddr: 0x1B9B4, symBinAddr: 0x10001FFC0, symSize: 0x24 }
  - { offsetInCU: 0x327F1, offset: 0x327F1, size: 0x8, addend: 0x0, symName: __ZNSt3__14pairINS_12basic_stringIcNS_11char_traitsIcEENS_9allocatorIcEEEEN4Pika8STLValueIS6_EEED2Ev, symObjAddr: 0x1B9D8, symBinAddr: 0x10001FFE4, symSize: 0x68 }
  - { offsetInCU: 0x3281D, offset: 0x3281D, size: 0x8, addend: 0x0, symName: __ZNSt3__14pairIKNS_12basic_stringIcNS_11char_traitsIcEENS_9allocatorIcEEEEPN4Pika6ScriptINS8_9StdConfigEE6NativeEED2Ev, symObjAddr: 0x1BA40, symBinAddr: 0x10002004C, symSize: 0x2C }
  - { offsetInCU: 0x32849, offset: 0x32849, size: 0x8, addend: 0x0, symName: __ZNSt3__14pairIN4Pika8STLValueINS_12basic_stringIcNS_11char_traitsIcEENS_9allocatorIcEEEEEES8_ED2Ev, symObjAddr: 0x1BA6C, symBinAddr: 0x100020078, symSize: 0x68 }
  - { offsetInCU: 0x32875, offset: 0x32875, size: 0x8, addend: 0x0, symName: __ZNSt3__114basic_ifstreamIcNS_11char_traitsIcEEED2Ev, symObjAddr: 0x1BAD4, symBinAddr: 0x1000200E0, symSize: 0x9C }
  - { offsetInCU: 0x328AF, offset: 0x328AF, size: 0x8, addend: 0x0, symName: __ZTv0_n24_NSt3__114basic_ifstreamIcNS_11char_traitsIcEEED1Ev, symObjAddr: 0x1BB70, symBinAddr: 0x10002017C, symSize: 0x28 }
  - { offsetInCU: 0x328C6, offset: 0x328C6, size: 0x8, addend: 0x0, symName: __ZNSt3__114basic_ofstreamIcNS_11char_traitsIcEEED2Ev, symObjAddr: 0x1BB98, symBinAddr: 0x1000201A4, symSize: 0x9C }
  - { offsetInCU: 0x32900, offset: 0x32900, size: 0x8, addend: 0x0, symName: __ZTv0_n24_NSt3__114basic_ofstreamIcNS_11char_traitsIcEEED1Ev, symObjAddr: 0x1BC34, symBinAddr: 0x100020240, symSize: 0x28 }
  - { offsetInCU: 0x32917, offset: 0x32917, size: 0x8, addend: 0x0, symName: __ZNSt3__14pairIN8QStrings7QStringIcLm52EEES3_ED2Ev, symObjAddr: 0x1BC5C, symBinAddr: 0x100020268, symSize: 0x38 }
  - { offsetInCU: 0x32943, offset: 0x32943, size: 0x8, addend: 0x0, symName: __ZNKSt3__19basic_iosIcNS_11char_traitsIcEEE3badB8ue170006Ev, symObjAddr: 0x1BC94, symBinAddr: 0x1000202A0, symSize: 0x28 }
  - { offsetInCU: 0x3296E, offset: 0x3296E, size: 0x8, addend: 0x0, symName: __ZN8QStrings7QStringIcLm52EEC1ILm26EEERAT__Kc, symObjAddr: 0x1BCBC, symBinAddr: 0x1000202C8, symSize: 0x34 }
  - { offsetInCU: 0x329B3, offset: 0x329B3, size: 0x8, addend: 0x0, symName: __ZNSt3__114basic_ifstreamIcNS_11char_traitsIcEEE5closeEv, symObjAddr: 0x1BCF0, symBinAddr: 0x1000202FC, symSize: 0x58 }
  - { offsetInCU: 0x329DB, offset: 0x329DB, size: 0x8, addend: 0x0, symName: __ZNKSt3__18ios_base3badB8ue170006Ev, symObjAddr: 0x1BD48, symBinAddr: 0x100020354, symSize: 0x24 }
  - { offsetInCU: 0x32A03, offset: 0x32A03, size: 0x8, addend: 0x0, symName: __ZN8QStrings7QStringIcLm52EEC2ILm26EEERAT__Kc, symObjAddr: 0x1BD6C, symBinAddr: 0x100020378, symSize: 0x50 }
  - { offsetInCU: 0x32A48, offset: 0x32A48, size: 0x8, addend: 0x0, symName: __ZNK8QStrings7QStringIcLm52EE6retainEv, symObjAddr: 0x1BE7C, symBinAddr: 0x100020488, symSize: 0x24 }
  - { offsetInCU: 0x32A70, offset: 0x32A70, size: 0x8, addend: 0x0, symName: __ZN8QStrings7QStringIcLm52EE6BufferC1Em, symObjAddr: 0x1BEA0, symBinAddr: 0x1000204AC, symSize: 0x34 }
  - { offsetInCU: 0x32AA9, offset: 0x32AA9, size: 0x8, addend: 0x0, symName: __ZN8QStrings7QStringIcLm52EE6BufferD1Ev, symObjAddr: 0x1BED4, symBinAddr: 0x1000204E0, symSize: 0x2C }
  - { offsetInCU: 0x32AD3, offset: 0x32AD3, size: 0x8, addend: 0x0, symName: __ZN8QStrings7QStringIcLm52EE6BufferC2Em, symObjAddr: 0x1BF00, symBinAddr: 0x10002050C, symSize: 0xE4 }
  - { offsetInCU: 0x32B0C, offset: 0x32B0C, size: 0x8, addend: 0x0, symName: __ZN8QStrings7QStringIcLm52EE6BufferD2Ev, symObjAddr: 0x1BFE4, symBinAddr: 0x1000205F0, symSize: 0x70 }
  - { offsetInCU: 0x32B36, offset: 0x32B36, size: 0x8, addend: 0x0, symName: __ZNSt3__19basic_iosIcNS_11char_traitsIcEEE8setstateB8ue170006Ej, symObjAddr: 0x1C054, symBinAddr: 0x100020660, symSize: 0x2C }
  - { offsetInCU: 0x32B6B, offset: 0x32B6B, size: 0x8, addend: 0x0, symName: __ZNSt3__18ios_base8setstateB8ue170006Ej, symObjAddr: 0x1C080, symBinAddr: 0x10002068C, symSize: 0x34 }
  - { offsetInCU: 0x32BA2, offset: 0x32BA2, size: 0x8, addend: 0x0, symName: __ZN4Pika8STLValueIN8QStrings7QStringIcLm52EEEED2Ev, symObjAddr: 0x1C0B4, symBinAddr: 0x1000206C0, symSize: 0x2C }
  - { offsetInCU: 0x32BCE, offset: 0x32BCE, size: 0x8, addend: 0x0, symName: __ZN8QStrings7QStringIcLm52EED2Ev, symObjAddr: 0x1C0E0, symBinAddr: 0x1000206EC, symSize: 0x2C }
  - { offsetInCU: 0x32BFA, offset: 0x32BFA, size: 0x8, addend: 0x0, symName: __ZN8QStrings7QStringIcLm52EE7releaseEv, symObjAddr: 0x1C10C, symBinAddr: 0x100020718, symSize: 0xF8 }
  - { offsetInCU: 0x32C22, offset: 0x32C22, size: 0x8, addend: 0x0, symName: __ZN8QStrings7QStringIcLm52EE6BufferdlEPv, symObjAddr: 0x1C204, symBinAddr: 0x100020810, symSize: 0x78 }
  - { offsetInCU: 0x32C55, offset: 0x32C55, size: 0x8, addend: 0x0, symName: __ZN4Pika6ScriptI19QuickerScriptConfigE8FullRootD2Ev, symObjAddr: 0x1C288, symBinAddr: 0x100020894, symSize: 0x68 }
  - { offsetInCU: 0x32C82, offset: 0x32C82, size: 0x8, addend: 0x0, symName: __ZThn152_N4Pika6ScriptI19QuickerScriptConfigE8FullRootD1Ev, symObjAddr: 0x1C2F0, symBinAddr: 0x1000208FC, symSize: 0x1C }
  - { offsetInCU: 0x32C99, offset: 0x32C99, size: 0x8, addend: 0x0, symName: __ZN4Pika9QuickVarsINS_6ScriptI19QuickerScriptConfigE12STLVariablesELj11EED2Ev, symObjAddr: 0x1C30C, symBinAddr: 0x100020918, symSize: 0x88 }
  - { offsetInCU: 0x32CC6, offset: 0x32CC6, size: 0x8, addend: 0x0, symName: __ZN4Pika6ScriptI19QuickerScriptConfigE4RootD2Ev, symObjAddr: 0x1C394, symBinAddr: 0x1000209A0, symSize: 0x48 }
  - { offsetInCU: 0x32CF3, offset: 0x32CF3, size: 0x8, addend: 0x0, symName: __ZNSt3__14pairIN8QStrings7QStringIcLm52EEEN4Pika8STLValueIS3_EEED1Ev, symObjAddr: 0x1C3DC, symBinAddr: 0x1000209E8, symSize: 0x2C }
  - { offsetInCU: 0x32D1F, offset: 0x32D1F, size: 0x8, addend: 0x0, symName: __ZN4Pika6ScriptI19QuickerScriptConfigE12STLVariablesD2Ev, symObjAddr: 0x1C408, symBinAddr: 0x100020A14, symSize: 0x170 }
  - { offsetInCU: 0x32D68, offset: 0x32D68, size: 0x8, addend: 0x0, symName: __ZN4Pika9QuickVarsINS_6ScriptI19QuickerScriptConfigE12STLVariablesELj11EE6lookupERKN8QStrings7QStringIcLm52EEERNS_8STLValueIS8_EE, symObjAddr: 0x1C578, symBinAddr: 0x100020B84, symSize: 0x240 }
  - { offsetInCU: 0x32DCA, offset: 0x32DCA, size: 0x8, addend: 0x0, symName: __ZN4Pika9QuickVarsINS_6ScriptI19QuickerScriptConfigE12STLVariablesELj11EE5eraseERKN8QStrings7QStringIcLm52EEE, symObjAddr: 0x1C7B8, symBinAddr: 0x100020DC4, symSize: 0xF0 }
  - { offsetInCU: 0x32E1D, offset: 0x32E1D, size: 0x8, addend: 0x0, symName: __ZN4Pika9QuickVarsINS_6ScriptI19QuickerScriptConfigE12STLVariablesELj11EE4listERKN8QStrings7QStringIcLm52EEERNSt3__16vectorINSB_4pairIS8_NS_8STLValueIS8_EEEENSB_9allocatorISG_EEEE, symObjAddr: 0x1C8A8, symBinAddr: 0x100020EB4, symSize: 0x260 }
  - { offsetInCU: 0x32E93, offset: 0x32E93, size: 0x8, addend: 0x0, symName: __ZN4Pika6ScriptI19QuickerScriptConfigE12STLVariables12lookupNativeERKN8QStrings7QStringIcLm52EEE, symObjAddr: 0x1CB08, symBinAddr: 0x100021114, symSize: 0x8C }
  - { offsetInCU: 0x32ED9, offset: 0x32ED9, size: 0x8, addend: 0x0, symName: __ZN4Pika6ScriptI19QuickerScriptConfigE12STLVariables12assignNativeERKN8QStrings7QStringIcLm52EEEPNS2_6NativeE, symObjAddr: 0x1CB94, symBinAddr: 0x1000211A0, symSize: 0x120 }
  - { offsetInCU: 0x32F2E, offset: 0x32F2E, size: 0x8, addend: 0x0, symName: __ZN4Pika9QuickVarsINS_6ScriptI19QuickerScriptConfigE12STLVariablesELj11EED1Ev, symObjAddr: 0x1CCB4, symBinAddr: 0x1000212C0, symSize: 0x2C }
  - { offsetInCU: 0x32F5B, offset: 0x32F5B, size: 0x8, addend: 0x0, symName: __ZN4Pika9QuickVarsINS_6ScriptI19QuickerScriptConfigE12STLVariablesELj11EED0Ev, symObjAddr: 0x1CCE0, symBinAddr: 0x1000212EC, symSize: 0x58 }
  - { offsetInCU: 0x32F88, offset: 0x32F88, size: 0x8, addend: 0x0, symName: __ZNSt3__14pairIN8QStrings7QStringIcLm52EEEN4Pika8STLValueIS3_EEED2Ev, symObjAddr: 0x1CD38, symBinAddr: 0x100021344, symSize: 0x38 }
  - { offsetInCU: 0x32FB4, offset: 0x32FB4, size: 0x8, addend: 0x0, symName: __ZNSt3__13mapIKN8QStrings7QStringIcLm52EEEPN4Pika6ScriptI19QuickerScriptConfigE6NativeENS_4lessIS4_EENS_9allocatorINS_4pairIS4_SA_EEEEE5beginB8ue170006Ev, symObjAddr: 0x1CD70, symBinAddr: 0x10002137C, symSize: 0x38 }
  - { offsetInCU: 0x32FDA, offset: 0x32FDA, size: 0x8, addend: 0x0, symName: __ZNSt3__13mapIKN8QStrings7QStringIcLm52EEEPN4Pika6ScriptI19QuickerScriptConfigE6NativeENS_4lessIS4_EENS_9allocatorINS_4pairIS4_SA_EEEEE3endB8ue170006Ev, symObjAddr: 0x1CDD8, symBinAddr: 0x1000213E4, symSize: 0x38 }
  - { offsetInCU: 0x33000, offset: 0x33000, size: 0x8, addend: 0x0, symName: __ZNKSt3__114__map_iteratorINS_15__tree_iteratorINS_12__value_typeIKN8QStrings7QStringIcLm52EEEPN4Pika6ScriptI19QuickerScriptConfigE6NativeEEEPNS_11__tree_nodeISD_PvEElEEEptB8ue170006Ev, symObjAddr: 0x1CE10, symBinAddr: 0x10002141C, symSize: 0x2C }
  - { offsetInCU: 0x33026, offset: 0x33026, size: 0x8, addend: 0x0, symName: __ZNSt3__114__map_iteratorINS_15__tree_iteratorINS_12__value_typeIKN8QStrings7QStringIcLm52EEEPN4Pika6ScriptI19QuickerScriptConfigE6NativeEEEPNS_11__tree_nodeISD_PvEElEEEppB8ue170006Ev, symObjAddr: 0x1CE3C, symBinAddr: 0x100021448, symSize: 0x2C }
  - { offsetInCU: 0x3304C, offset: 0x3304C, size: 0x8, addend: 0x0, symName: __ZNSt3__13mapIKN8QStrings7QStringIcLm52EEEPN4Pika6ScriptI19QuickerScriptConfigE6NativeENS_4lessIS4_EENS_9allocatorINS_4pairIS4_SA_EEEEED1B8ue170006Ev, symObjAddr: 0x1CE68, symBinAddr: 0x100021474, symSize: 0x2C }
  - { offsetInCU: 0x33076, offset: 0x33076, size: 0x8, addend: 0x0, symName: __ZNSt3__13mapIKN8QStrings7QStringIcLm52EEEN4Pika8STLValueIS3_EENS_4lessIS4_EENS_9allocatorINS_4pairIS4_S7_EEEEED1B8ue170006Ev, symObjAddr: 0x1CE94, symBinAddr: 0x1000214A0, symSize: 0x2C }
  - { offsetInCU: 0x330A0, offset: 0x330A0, size: 0x8, addend: 0x0, symName: __ZN4Pika6ScriptI19QuickerScriptConfigE9VariablesD2Ev, symObjAddr: 0x1CEC0, symBinAddr: 0x1000214CC, symSize: 0x14 }
  - { offsetInCU: 0x330CC, offset: 0x330CC, size: 0x8, addend: 0x0, symName: __ZN4Pika6ScriptI19QuickerScriptConfigE12STLVariables6lookupERKN8QStrings7QStringIcLm52EEERNS_8STLValueIS6_EE, symObjAddr: 0x1CED4, symBinAddr: 0x1000214E0, symSize: 0xC4 }
  - { offsetInCU: 0x33121, offset: 0x33121, size: 0x8, addend: 0x0, symName: __ZN4Pika6ScriptI19QuickerScriptConfigE12STLVariables6assignERKN8QStrings7QStringIcLm52EEERKNS_8STLValueIS6_EE, symObjAddr: 0x1CF98, symBinAddr: 0x1000215A4, symSize: 0x4C }
  - { offsetInCU: 0x33165, offset: 0x33165, size: 0x8, addend: 0x0, symName: __ZN4Pika6ScriptI19QuickerScriptConfigE12STLVariables5eraseERKN8QStrings7QStringIcLm52EEE, symObjAddr: 0x1CFE4, symBinAddr: 0x1000215F0, symSize: 0x3C }
  - { offsetInCU: 0x3319A, offset: 0x3319A, size: 0x8, addend: 0x0, symName: __ZN4Pika6ScriptI19QuickerScriptConfigE12STLVariables4listERKN8QStrings7QStringIcLm52EEERNSt3__16vectorINS9_4pairIS6_NS_8STLValueIS6_EEEENS9_9allocatorISE_EEEE, symObjAddr: 0x1D020, symBinAddr: 0x10002162C, symSize: 0x1B0 }
  - { offsetInCU: 0x331F5, offset: 0x331F5, size: 0x8, addend: 0x0, symName: __ZN4Pika6ScriptI19QuickerScriptConfigE12STLVariablesD1Ev, symObjAddr: 0x1D1D0, symBinAddr: 0x1000217DC, symSize: 0x2C }
  - { offsetInCU: 0x33221, offset: 0x33221, size: 0x8, addend: 0x0, symName: __ZN4Pika6ScriptI19QuickerScriptConfigE12STLVariablesD0Ev, symObjAddr: 0x1D1FC, symBinAddr: 0x100021808, symSize: 0x58 }
  - { offsetInCU: 0x3324D, offset: 0x3324D, size: 0x8, addend: 0x0, symName: __ZNSt3__16__treeINS_12__value_typeIKN8QStrings7QStringIcLm52EEEPN4Pika6ScriptI19QuickerScriptConfigE6NativeEEENS_19__map_value_compareIS5_SC_NS_4lessIS5_EELb1EEENS_9allocatorISC_EEE5beginB8ue170006Ev, symObjAddr: 0x1D254, symBinAddr: 0x100021860, symSize: 0x34 }
  - { offsetInCU: 0x33273, offset: 0x33273, size: 0x8, addend: 0x0, symName: __ZNSt3__114__map_iteratorINS_15__tree_iteratorINS_12__value_typeIKN8QStrings7QStringIcLm52EEEPN4Pika6ScriptI19QuickerScriptConfigE6NativeEEEPNS_11__tree_nodeISD_PvEElEEEC1B8ue170006ESI_, symObjAddr: 0x1D288, symBinAddr: 0x100021894, symSize: 0x34 }
  - { offsetInCU: 0x332AC, offset: 0x332AC, size: 0x8, addend: 0x0, symName: __ZNSt3__16__treeINS_12__value_typeIKN8QStrings7QStringIcLm52EEEPN4Pika6ScriptI19QuickerScriptConfigE6NativeEEENS_19__map_value_compareIS5_SC_NS_4lessIS5_EELb1EEENS_9allocatorISC_EEE12__begin_nodeB8ue170006Ev, symObjAddr: 0x1D2BC, symBinAddr: 0x1000218C8, symSize: 0x14 }
  - { offsetInCU: 0x332D2, offset: 0x332D2, size: 0x8, addend: 0x0, symName: __ZNSt3__115__tree_iteratorINS_12__value_typeIKN8QStrings7QStringIcLm52EEEPN4Pika6ScriptI19QuickerScriptConfigE6NativeEEEPNS_11__tree_nodeISC_PvEElEC1B8ue170006EPNS_15__tree_end_nodeIPNS_16__tree_node_baseISE_EEEE, symObjAddr: 0x1D2D0, symBinAddr: 0x1000218DC, symSize: 0x34 }
  - { offsetInCU: 0x3330B, offset: 0x3330B, size: 0x8, addend: 0x0, symName: __ZNSt3__115__tree_iteratorINS_12__value_typeIKN8QStrings7QStringIcLm52EEEPN4Pika6ScriptI19QuickerScriptConfigE6NativeEEEPNS_11__tree_nodeISC_PvEElEC2B8ue170006EPNS_15__tree_end_nodeIPNS_16__tree_node_baseISE_EEEE, symObjAddr: 0x1D304, symBinAddr: 0x100021910, symSize: 0x20 }
  - { offsetInCU: 0x33344, offset: 0x33344, size: 0x8, addend: 0x0, symName: __ZNSt3__114__map_iteratorINS_15__tree_iteratorINS_12__value_typeIKN8QStrings7QStringIcLm52EEEPN4Pika6ScriptI19QuickerScriptConfigE6NativeEEEPNS_11__tree_nodeISD_PvEElEEEC2B8ue170006ESI_, symObjAddr: 0x1D324, symBinAddr: 0x100021930, symSize: 0x20 }
  - { offsetInCU: 0x3337D, offset: 0x3337D, size: 0x8, addend: 0x0, symName: __ZNSt3__16__treeINS_12__value_typeIKN8QStrings7QStringIcLm52EEEPN4Pika6ScriptI19QuickerScriptConfigE6NativeEEENS_19__map_value_compareIS5_SC_NS_4lessIS5_EELb1EEENS_9allocatorISC_EEE3endB8ue170006Ev, symObjAddr: 0x1D3A8, symBinAddr: 0x1000219B4, symSize: 0x34 }
  - { offsetInCU: 0x333A3, offset: 0x333A3, size: 0x8, addend: 0x0, symName: __ZNSt3__16__treeINS_12__value_typeIKN8QStrings7QStringIcLm52EEEPN4Pika6ScriptI19QuickerScriptConfigE6NativeEEENS_19__map_value_compareIS5_SC_NS_4lessIS5_EELb1EEENS_9allocatorISC_EEE10__end_nodeB8ue170006Ev, symObjAddr: 0x1D3DC, symBinAddr: 0x1000219E8, symSize: 0x2C }
  - { offsetInCU: 0x333C9, offset: 0x333C9, size: 0x8, addend: 0x0, symName: __ZNSt3__117__compressed_pairINS_15__tree_end_nodeIPNS_16__tree_node_baseIPvEEEENS_9allocatorINS_11__tree_nodeINS_12__value_typeIKN8QStrings7QStringIcLm52EEEPN4Pika6ScriptI19QuickerScriptConfigE6NativeEEES3_EEEEE5firstB8ue170006Ev, symObjAddr: 0x1D408, symBinAddr: 0x100021A14, symSize: 0x24 }
  - { offsetInCU: 0x333EF, offset: 0x333EF, size: 0x8, addend: 0x0, symName: __ZNSt3__114pointer_traitsIPNS_4pairIKN8QStrings7QStringIcLm52EEEPN4Pika6ScriptI19QuickerScriptConfigE6NativeEEEE10pointer_toB8ue170006ERSC_, symObjAddr: 0x1D42C, symBinAddr: 0x100021A38, symSize: 0x14 }
  - { offsetInCU: 0x33412, offset: 0x33412, size: 0x8, addend: 0x0, symName: __ZNKSt3__115__tree_iteratorINS_12__value_typeIKN8QStrings7QStringIcLm52EEEPN4Pika6ScriptI19QuickerScriptConfigE6NativeEEEPNS_11__tree_nodeISC_PvEElEptB8ue170006Ev, symObjAddr: 0x1D440, symBinAddr: 0x100021A4C, symSize: 0x2C }
  - { offsetInCU: 0x33438, offset: 0x33438, size: 0x8, addend: 0x0, symName: __ZNSt3__112__value_typeIKN8QStrings7QStringIcLm52EEEPN4Pika6ScriptI19QuickerScriptConfigE6NativeEE11__get_valueB8ue170006Ev, symObjAddr: 0x1D46C, symBinAddr: 0x100021A78, symSize: 0x14 }
  - { offsetInCU: 0x3345E, offset: 0x3345E, size: 0x8, addend: 0x0, symName: __ZNSt3__114pointer_traitsIPNS_12__value_typeIKN8QStrings7QStringIcLm52EEEPN4Pika6ScriptI19QuickerScriptConfigE6NativeEEEE10pointer_toB8ue170006ERSC_, symObjAddr: 0x1D480, symBinAddr: 0x100021A8C, symSize: 0x14 }
  - { offsetInCU: 0x33481, offset: 0x33481, size: 0x8, addend: 0x0, symName: __ZNKSt3__115__tree_iteratorINS_12__value_typeIKN8QStrings7QStringIcLm52EEEPN4Pika6ScriptI19QuickerScriptConfigE6NativeEEEPNS_11__tree_nodeISC_PvEElE8__get_npB8ue170006Ev, symObjAddr: 0x1D494, symBinAddr: 0x100021AA0, symSize: 0x18 }
  - { offsetInCU: 0x334A7, offset: 0x334A7, size: 0x8, addend: 0x0, symName: __ZNSt3__115__tree_iteratorINS_12__value_typeIKN8QStrings7QStringIcLm52EEEPN4Pika6ScriptI19QuickerScriptConfigE6NativeEEEPNS_11__tree_nodeISC_PvEElEppB8ue170006Ev, symObjAddr: 0x1D4AC, symBinAddr: 0x100021AB8, symSize: 0x38 }
  - { offsetInCU: 0x334CD, offset: 0x334CD, size: 0x8, addend: 0x0, symName: __ZNKSt3__116__tree_node_baseIPvE15__parent_unsafeB8ue170006Ev, symObjAddr: 0x1D5F4, symBinAddr: 0x100021C00, symSize: 0x18 }
  - { offsetInCU: 0x334F3, offset: 0x334F3, size: 0x8, addend: 0x0, symName: __ZNSt3__13mapIKN8QStrings7QStringIcLm52EEEPN4Pika6ScriptI19QuickerScriptConfigE6NativeENS_4lessIS4_EENS_9allocatorINS_4pairIS4_SA_EEEEED2B8ue170006Ev, symObjAddr: 0x1D60C, symBinAddr: 0x100021C18, symSize: 0x2C }
  - { offsetInCU: 0x3351D, offset: 0x3351D, size: 0x8, addend: 0x0, symName: __ZNSt3__16__treeINS_12__value_typeIKN8QStrings7QStringIcLm52EEEPN4Pika6ScriptI19QuickerScriptConfigE6NativeEEENS_19__map_value_compareIS5_SC_NS_4lessIS5_EELb1EEENS_9allocatorISC_EEED1Ev, symObjAddr: 0x1D638, symBinAddr: 0x100021C44, symSize: 0x2C }
  - { offsetInCU: 0x33549, offset: 0x33549, size: 0x8, addend: 0x0, symName: __ZNSt3__16__treeINS_12__value_typeIKN8QStrings7QStringIcLm52EEEPN4Pika6ScriptI19QuickerScriptConfigE6NativeEEENS_19__map_value_compareIS5_SC_NS_4lessIS5_EELb1EEENS_9allocatorISC_EEED2Ev, symObjAddr: 0x1D664, symBinAddr: 0x100021C70, symSize: 0x38 }
  - { offsetInCU: 0x33575, offset: 0x33575, size: 0x8, addend: 0x0, symName: __ZNSt3__16__treeINS_12__value_typeIKN8QStrings7QStringIcLm52EEEPN4Pika6ScriptI19QuickerScriptConfigE6NativeEEENS_19__map_value_compareIS5_SC_NS_4lessIS5_EELb1EEENS_9allocatorISC_EEE7destroyEPNS_11__tree_nodeISC_PvEE, symObjAddr: 0x1D69C, symBinAddr: 0x100021CA8, symSize: 0xC0 }
  - { offsetInCU: 0x335C9, offset: 0x335C9, size: 0x8, addend: 0x0, symName: __ZNKSt3__16__treeINS_12__value_typeIKN8QStrings7QStringIcLm52EEEPN4Pika6ScriptI19QuickerScriptConfigE6NativeEEENS_19__map_value_compareIS5_SC_NS_4lessIS5_EELb1EEENS_9allocatorISC_EEE6__rootB8ue170006Ev, symObjAddr: 0x1D75C, symBinAddr: 0x100021D68, symSize: 0x28 }
  - { offsetInCU: 0x335EF, offset: 0x335EF, size: 0x8, addend: 0x0, symName: __ZNSt3__16__treeINS_12__value_typeIKN8QStrings7QStringIcLm52EEEPN4Pika6ScriptI19QuickerScriptConfigE6NativeEEENS_19__map_value_compareIS5_SC_NS_4lessIS5_EELb1EEENS_9allocatorISC_EEE12__node_allocB8ue170006Ev, symObjAddr: 0x1D784, symBinAddr: 0x100021D90, symSize: 0x28 }
  - { offsetInCU: 0x33615, offset: 0x33615, size: 0x8, addend: 0x0, symName: __ZNSt3__116allocator_traitsINS_9allocatorINS_11__tree_nodeINS_12__value_typeIKN8QStrings7QStringIcLm52EEEPN4Pika6ScriptI19QuickerScriptConfigE6NativeEEEPvEEEEE7destroyB8ue170006INS_4pairIS7_SD_EEvvEEvRSH_PT_, symObjAddr: 0x1D7AC, symBinAddr: 0x100021DB8, symSize: 0x28 }
  - { offsetInCU: 0x33650, offset: 0x33650, size: 0x8, addend: 0x0, symName: __ZNSt3__122__tree_key_value_typesINS_12__value_typeIKN8QStrings7QStringIcLm52EEEPN4Pika6ScriptI19QuickerScriptConfigE6NativeEEEE9__get_ptrB8ue170006ERSC_, symObjAddr: 0x1D7D4, symBinAddr: 0x100021DE0, symSize: 0x24 }
  - { offsetInCU: 0x33674, offset: 0x33674, size: 0x8, addend: 0x0, symName: __ZNSt3__116allocator_traitsINS_9allocatorINS_11__tree_nodeINS_12__value_typeIKN8QStrings7QStringIcLm52EEEPN4Pika6ScriptI19QuickerScriptConfigE6NativeEEEPvEEEEE10deallocateB8ue170006ERSH_PSG_m, symObjAddr: 0x1D7F8, symBinAddr: 0x100021E04, symSize: 0x34 }
  - { offsetInCU: 0x336B6, offset: 0x336B6, size: 0x8, addend: 0x0, symName: __ZNSt3__117__compressed_pairINS_15__tree_end_nodeIPNS_16__tree_node_baseIPvEEEENS_9allocatorINS_11__tree_nodeINS_12__value_typeIKN8QStrings7QStringIcLm52EEEPN4Pika6ScriptI19QuickerScriptConfigE6NativeEEES3_EEEEE6secondB8ue170006Ev, symObjAddr: 0x1D82C, symBinAddr: 0x100021E38, symSize: 0x24 }
  - { offsetInCU: 0x336DC, offset: 0x336DC, size: 0x8, addend: 0x0, symName: __ZNSt3__122__compressed_pair_elemINS_9allocatorINS_11__tree_nodeINS_12__value_typeIKN8QStrings7QStringIcLm52EEEPN4Pika6ScriptI19QuickerScriptConfigE6NativeEEEPvEEEELi1ELb1EE5__getB8ue170006Ev, symObjAddr: 0x1D850, symBinAddr: 0x100021E5C, symSize: 0x14 }
  - { offsetInCU: 0x33702, offset: 0x33702, size: 0x8, addend: 0x0, symName: __ZNSt3__14pairIKN8QStrings7QStringIcLm52EEEPN4Pika6ScriptI19QuickerScriptConfigE6NativeEED1Ev, symObjAddr: 0x1D864, symBinAddr: 0x100021E70, symSize: 0x2C }
  - { offsetInCU: 0x3372E, offset: 0x3372E, size: 0x8, addend: 0x0, symName: __ZNSt3__14pairIKN8QStrings7QStringIcLm52EEEPN4Pika6ScriptI19QuickerScriptConfigE6NativeEED2Ev, symObjAddr: 0x1D890, symBinAddr: 0x100021E9C, symSize: 0x2C }
  - { offsetInCU: 0x3375A, offset: 0x3375A, size: 0x8, addend: 0x0, symName: __ZNSt3__19allocatorINS_11__tree_nodeINS_12__value_typeIKN8QStrings7QStringIcLm52EEEPN4Pika6ScriptI19QuickerScriptConfigE6NativeEEEPvEEE10deallocateB8ue170006EPSF_m, symObjAddr: 0x1D8BC, symBinAddr: 0x100021EC8, symSize: 0x70 }
  - { offsetInCU: 0x3379C, offset: 0x3379C, size: 0x8, addend: 0x0, symName: __ZNKSt3__16__treeINS_12__value_typeIKN8QStrings7QStringIcLm52EEEPN4Pika6ScriptI19QuickerScriptConfigE6NativeEEENS_19__map_value_compareIS5_SC_NS_4lessIS5_EELb1EEENS_9allocatorISC_EEE10__end_nodeB8ue170006Ev, symObjAddr: 0x1D9B4, symBinAddr: 0x100021FC0, symSize: 0x2C }
  - { offsetInCU: 0x337C2, offset: 0x337C2, size: 0x8, addend: 0x0, symName: __ZNKSt3__117__compressed_pairINS_15__tree_end_nodeIPNS_16__tree_node_baseIPvEEEENS_9allocatorINS_11__tree_nodeINS_12__value_typeIKN8QStrings7QStringIcLm52EEEPN4Pika6ScriptI19QuickerScriptConfigE6NativeEEES3_EEEEE5firstB8ue170006Ev, symObjAddr: 0x1D9E0, symBinAddr: 0x100021FEC, symSize: 0x24 }
  - { offsetInCU: 0x337E8, offset: 0x337E8, size: 0x8, addend: 0x0, symName: __ZNKSt3__122__compressed_pair_elemINS_15__tree_end_nodeIPNS_16__tree_node_baseIPvEEEELi0ELb0EE5__getB8ue170006Ev, symObjAddr: 0x1DA04, symBinAddr: 0x100022010, symSize: 0x14 }
  - { offsetInCU: 0x3380E, offset: 0x3380E, size: 0x8, addend: 0x0, symName: __ZNSt3__13mapIKN8QStrings7QStringIcLm52EEEN4Pika8STLValueIS3_EENS_4lessIS4_EENS_9allocatorINS_4pairIS4_S7_EEEEED2B8ue170006Ev, symObjAddr: 0x1DA18, symBinAddr: 0x100022024, symSize: 0x2C }
  - { offsetInCU: 0x33838, offset: 0x33838, size: 0x8, addend: 0x0, symName: __ZNSt3__16__treeINS_12__value_typeIKN8QStrings7QStringIcLm52EEEN4Pika8STLValueIS4_EEEENS_19__map_value_compareIS5_S9_NS_4lessIS5_EELb1EEENS_9allocatorIS9_EEED1Ev, symObjAddr: 0x1DA44, symBinAddr: 0x100022050, symSize: 0x2C }
  - { offsetInCU: 0x33864, offset: 0x33864, size: 0x8, addend: 0x0, symName: __ZNSt3__16__treeINS_12__value_typeIKN8QStrings7QStringIcLm52EEEN4Pika8STLValueIS4_EEEENS_19__map_value_compareIS5_S9_NS_4lessIS5_EELb1EEENS_9allocatorIS9_EEED2Ev, symObjAddr: 0x1DA70, symBinAddr: 0x10002207C, symSize: 0x38 }
  - { offsetInCU: 0x33890, offset: 0x33890, size: 0x8, addend: 0x0, symName: __ZNSt3__16__treeINS_12__value_typeIKN8QStrings7QStringIcLm52EEEN4Pika8STLValueIS4_EEEENS_19__map_value_compareIS5_S9_NS_4lessIS5_EELb1EEENS_9allocatorIS9_EEE7destroyEPNS_11__tree_nodeIS9_PvEE, symObjAddr: 0x1DAA8, symBinAddr: 0x1000220B4, symSize: 0xC0 }
  - { offsetInCU: 0x338E4, offset: 0x338E4, size: 0x8, addend: 0x0, symName: __ZNKSt3__16__treeINS_12__value_typeIKN8QStrings7QStringIcLm52EEEN4Pika8STLValueIS4_EEEENS_19__map_value_compareIS5_S9_NS_4lessIS5_EELb1EEENS_9allocatorIS9_EEE6__rootB8ue170006Ev, symObjAddr: 0x1DB68, symBinAddr: 0x100022174, symSize: 0x28 }
  - { offsetInCU: 0x3390A, offset: 0x3390A, size: 0x8, addend: 0x0, symName: __ZNSt3__16__treeINS_12__value_typeIKN8QStrings7QStringIcLm52EEEN4Pika8STLValueIS4_EEEENS_19__map_value_compareIS5_S9_NS_4lessIS5_EELb1EEENS_9allocatorIS9_EEE12__node_allocB8ue170006Ev, symObjAddr: 0x1DB90, symBinAddr: 0x10002219C, symSize: 0x28 }
  - { offsetInCU: 0x33930, offset: 0x33930, size: 0x8, addend: 0x0, symName: __ZNSt3__116allocator_traitsINS_9allocatorINS_11__tree_nodeINS_12__value_typeIKN8QStrings7QStringIcLm52EEEN4Pika8STLValueIS6_EEEEPvEEEEE7destroyB8ue170006INS_4pairIS7_SA_EEvvEEvRSE_PT_, symObjAddr: 0x1DBB8, symBinAddr: 0x1000221C4, symSize: 0x28 }
  - { offsetInCU: 0x3396B, offset: 0x3396B, size: 0x8, addend: 0x0, symName: __ZNSt3__122__tree_key_value_typesINS_12__value_typeIKN8QStrings7QStringIcLm52EEEN4Pika8STLValueIS4_EEEEE9__get_ptrB8ue170006ERS9_, symObjAddr: 0x1DBE0, symBinAddr: 0x1000221EC, symSize: 0x24 }
  - { offsetInCU: 0x3398F, offset: 0x3398F, size: 0x8, addend: 0x0, symName: __ZNSt3__116allocator_traitsINS_9allocatorINS_11__tree_nodeINS_12__value_typeIKN8QStrings7QStringIcLm52EEEN4Pika8STLValueIS6_EEEEPvEEEEE10deallocateB8ue170006ERSE_PSD_m, symObjAddr: 0x1DC04, symBinAddr: 0x100022210, symSize: 0x34 }
  - { offsetInCU: 0x339D1, offset: 0x339D1, size: 0x8, addend: 0x0, symName: __ZNSt3__117__compressed_pairINS_15__tree_end_nodeIPNS_16__tree_node_baseIPvEEEENS_9allocatorINS_11__tree_nodeINS_12__value_typeIKN8QStrings7QStringIcLm52EEEN4Pika8STLValueISC_EEEES3_EEEEE6secondB8ue170006Ev, symObjAddr: 0x1DC38, symBinAddr: 0x100022244, symSize: 0x24 }
  - { offsetInCU: 0x339F7, offset: 0x339F7, size: 0x8, addend: 0x0, symName: __ZNSt3__122__compressed_pair_elemINS_9allocatorINS_11__tree_nodeINS_12__value_typeIKN8QStrings7QStringIcLm52EEEN4Pika8STLValueIS6_EEEEPvEEEELi1ELb1EE5__getB8ue170006Ev, symObjAddr: 0x1DC5C, symBinAddr: 0x100022268, symSize: 0x14 }
  - { offsetInCU: 0x33A1D, offset: 0x33A1D, size: 0x8, addend: 0x0, symName: __ZNSt3__14pairIKN8QStrings7QStringIcLm52EEEN4Pika8STLValueIS3_EEED1Ev, symObjAddr: 0x1DC70, symBinAddr: 0x10002227C, symSize: 0x2C }
  - { offsetInCU: 0x33A49, offset: 0x33A49, size: 0x8, addend: 0x0, symName: __ZNSt3__14pairIKN8QStrings7QStringIcLm52EEEN4Pika8STLValueIS3_EEED2Ev, symObjAddr: 0x1DC9C, symBinAddr: 0x1000222A8, symSize: 0x38 }
  - { offsetInCU: 0x33A75, offset: 0x33A75, size: 0x8, addend: 0x0, symName: __ZNSt3__112__value_typeIKN8QStrings7QStringIcLm52EEEN4Pika8STLValueIS3_EEE11__get_valueB8ue170006Ev, symObjAddr: 0x1DCD4, symBinAddr: 0x1000222E0, symSize: 0x14 }
  - { offsetInCU: 0x33A9B, offset: 0x33A9B, size: 0x8, addend: 0x0, symName: __ZNSt3__19allocatorINS_11__tree_nodeINS_12__value_typeIKN8QStrings7QStringIcLm52EEEN4Pika8STLValueIS5_EEEEPvEEE10deallocateB8ue170006EPSC_m, symObjAddr: 0x1DCE8, symBinAddr: 0x1000222F4, symSize: 0x74 }
  - { offsetInCU: 0x33ADD, offset: 0x33ADD, size: 0x8, addend: 0x0, symName: __ZNKSt3__16__treeINS_12__value_typeIKN8QStrings7QStringIcLm52EEEN4Pika8STLValueIS4_EEEENS_19__map_value_compareIS5_S9_NS_4lessIS5_EELb1EEENS_9allocatorIS9_EEE10__end_nodeB8ue170006Ev, symObjAddr: 0x1DD5C, symBinAddr: 0x100022368, symSize: 0x2C }
  - { offsetInCU: 0x33B03, offset: 0x33B03, size: 0x8, addend: 0x0, symName: __ZNKSt3__117__compressed_pairINS_15__tree_end_nodeIPNS_16__tree_node_baseIPvEEEENS_9allocatorINS_11__tree_nodeINS_12__value_typeIKN8QStrings7QStringIcLm52EEEN4Pika8STLValueISC_EEEES3_EEEEE5firstB8ue170006Ev, symObjAddr: 0x1DD88, symBinAddr: 0x100022394, symSize: 0x24 }
  - { offsetInCU: 0x33B29, offset: 0x33B29, size: 0x8, addend: 0x0, symName: __ZNSt3__13mapIKN8QStrings7QStringIcLm52EEEN4Pika8STLValueIS3_EENS_4lessIS4_EENS_9allocatorINS_4pairIS4_S7_EEEEE4findB8ue170006ERS4_, symObjAddr: 0x1DDAC, symBinAddr: 0x1000223B8, symSize: 0x40 }
  - { offsetInCU: 0x33B5E, offset: 0x33B5E, size: 0x8, addend: 0x0, symName: __ZNSt3__120__map_const_iteratorINS_21__tree_const_iteratorINS_12__value_typeIKN8QStrings7QStringIcLm52EEEN4Pika8STLValueIS5_EEEEPNS_11__tree_nodeISA_PvEElEEEC1B8ue170006ENS_14__map_iteratorINS_15__tree_iteratorISA_SE_lEEEE, symObjAddr: 0x1DDEC, symBinAddr: 0x1000223F8, symSize: 0x34 }
  - { offsetInCU: 0x33B97, offset: 0x33B97, size: 0x8, addend: 0x0, symName: __ZNSt3__13mapIKN8QStrings7QStringIcLm52EEEN4Pika8STLValueIS3_EENS_4lessIS4_EENS_9allocatorINS_4pairIS4_S7_EEEEE3endB8ue170006Ev, symObjAddr: 0x1DE50, symBinAddr: 0x10002245C, symSize: 0x38 }
  - { offsetInCU: 0x33BBD, offset: 0x33BBD, size: 0x8, addend: 0x0, symName: __ZNKSt3__120__map_const_iteratorINS_21__tree_const_iteratorINS_12__value_typeIKN8QStrings7QStringIcLm52EEEN4Pika8STLValueIS5_EEEEPNS_11__tree_nodeISA_PvEElEEEptB8ue170006Ev, symObjAddr: 0x1DE88, symBinAddr: 0x100022494, symSize: 0x2C }
  - { offsetInCU: 0x33BE3, offset: 0x33BE3, size: 0x8, addend: 0x0, symName: __ZN4Pika8STLValueIN8QStrings7QStringIcLm52EEEEaSERKS4_, symObjAddr: 0x1DEB4, symBinAddr: 0x1000224C0, symSize: 0x34 }
  - { offsetInCU: 0x33C14, offset: 0x33C14, size: 0x8, addend: 0x0, symName: __ZNSt3__16__treeINS_12__value_typeIKN8QStrings7QStringIcLm52EEEN4Pika8STLValueIS4_EEEENS_19__map_value_compareIS5_S9_NS_4lessIS5_EELb1EEENS_9allocatorIS9_EEE4findIS4_EENS_15__tree_iteratorIS9_PNS_11__tree_nodeIS9_PvEElEERKT_, symObjAddr: 0x1DEE8, symBinAddr: 0x1000224F4, symSize: 0xF8 }
  - { offsetInCU: 0x33C63, offset: 0x33C63, size: 0x8, addend: 0x0, symName: __ZNSt3__114__map_iteratorINS_15__tree_iteratorINS_12__value_typeIKN8QStrings7QStringIcLm52EEEN4Pika8STLValueIS5_EEEEPNS_11__tree_nodeISA_PvEElEEEC1B8ue170006ESF_, symObjAddr: 0x1DFE0, symBinAddr: 0x1000225EC, symSize: 0x34 }
  - { offsetInCU: 0x33C9C, offset: 0x33C9C, size: 0x8, addend: 0x0, symName: __ZNSt3__16__treeINS_12__value_typeIKN8QStrings7QStringIcLm52EEEN4Pika8STLValueIS4_EEEENS_19__map_value_compareIS5_S9_NS_4lessIS5_EELb1EEENS_9allocatorIS9_EEE13__lower_boundIS4_EENS_15__tree_iteratorIS9_PNS_11__tree_nodeIS9_PvEElEERKT_SM_PNS_15__tree_end_nodeIPNS_16__tree_node_baseISK_EEEE, symObjAddr: 0x1E014, symBinAddr: 0x100022620, symSize: 0xA4 }
  - { offsetInCU: 0x33CFA, offset: 0x33CFA, size: 0x8, addend: 0x0, symName: __ZNSt3__16__treeINS_12__value_typeIKN8QStrings7QStringIcLm52EEEN4Pika8STLValueIS4_EEEENS_19__map_value_compareIS5_S9_NS_4lessIS5_EELb1EEENS_9allocatorIS9_EEE10__end_nodeB8ue170006Ev, symObjAddr: 0x1E0B8, symBinAddr: 0x1000226C4, symSize: 0x2C }
  - { offsetInCU: 0x33D20, offset: 0x33D20, size: 0x8, addend: 0x0, symName: __ZNSt3__16__treeINS_12__value_typeIKN8QStrings7QStringIcLm52EEEN4Pika8STLValueIS4_EEEENS_19__map_value_compareIS5_S9_NS_4lessIS5_EELb1EEENS_9allocatorIS9_EEE3endB8ue170006Ev, symObjAddr: 0x1E118, symBinAddr: 0x100022724, symSize: 0x34 }
  - { offsetInCU: 0x33D46, offset: 0x33D46, size: 0x8, addend: 0x0, symName: __ZNSt3__16__treeINS_12__value_typeIKN8QStrings7QStringIcLm52EEEN4Pika8STLValueIS4_EEEENS_19__map_value_compareIS5_S9_NS_4lessIS5_EELb1EEENS_9allocatorIS9_EEE10value_compB8ue170006Ev, symObjAddr: 0x1E14C, symBinAddr: 0x100022758, symSize: 0x28 }
  - { offsetInCU: 0x33D6C, offset: 0x33D6C, size: 0x8, addend: 0x0, symName: __ZNKSt3__119__map_value_compareIKN8QStrings7QStringIcLm52EEENS_12__value_typeIS4_N4Pika8STLValueIS3_EEEENS_4lessIS4_EELb1EEclB8ue170006ERS4_RKS9_, symObjAddr: 0x1E174, symBinAddr: 0x100022780, symSize: 0x50 }
  - { offsetInCU: 0x33DB0, offset: 0x33DB0, size: 0x8, addend: 0x0, symName: __ZNKSt3__115__tree_iteratorINS_12__value_typeIKN8QStrings7QStringIcLm52EEEN4Pika8STLValueIS4_EEEEPNS_11__tree_nodeIS9_PvEElEdeB8ue170006Ev, symObjAddr: 0x1E1C4, symBinAddr: 0x1000227D0, symSize: 0x28 }
  - { offsetInCU: 0x33DD6, offset: 0x33DD6, size: 0x8, addend: 0x0, symName: __ZNKSt3__119__map_value_compareIKN8QStrings7QStringIcLm52EEENS_12__value_typeIS4_N4Pika8STLValueIS3_EEEENS_4lessIS4_EELb1EEclB8ue170006ERKS9_RS4_, symObjAddr: 0x1E1EC, symBinAddr: 0x1000227F8, symSize: 0x48 }
  - { offsetInCU: 0x33E1A, offset: 0x33E1A, size: 0x8, addend: 0x0, symName: __ZNSt3__115__tree_iteratorINS_12__value_typeIKN8QStrings7QStringIcLm52EEEN4Pika8STLValueIS4_EEEEPNS_11__tree_nodeIS9_PvEElEC1B8ue170006EPNS_15__tree_end_nodeIPNS_16__tree_node_baseISB_EEEE, symObjAddr: 0x1E234, symBinAddr: 0x100022840, symSize: 0x34 }
  - { offsetInCU: 0x33E53, offset: 0x33E53, size: 0x8, addend: 0x0, symName: __ZNKSt3__14lessIKN8QStrings7QStringIcLm52EEEEclB8ue170006ERS4_S6_, symObjAddr: 0x1E268, symBinAddr: 0x100022874, symSize: 0x34 }
  - { offsetInCU: 0x33E97, offset: 0x33E97, size: 0x8, addend: 0x0, symName: __ZNKSt3__112__value_typeIKN8QStrings7QStringIcLm52EEEN4Pika8STLValueIS3_EEE11__get_valueB8ue170006Ev, symObjAddr: 0x1E29C, symBinAddr: 0x1000228A8, symSize: 0x14 }
  - { offsetInCU: 0x33EBD, offset: 0x33EBD, size: 0x8, addend: 0x0, symName: __ZNSt3__115__tree_iteratorINS_12__value_typeIKN8QStrings7QStringIcLm52EEEN4Pika8STLValueIS4_EEEEPNS_11__tree_nodeIS9_PvEElEC2B8ue170006EPNS_15__tree_end_nodeIPNS_16__tree_node_baseISB_EEEE, symObjAddr: 0x1E2B0, symBinAddr: 0x1000228BC, symSize: 0x20 }
  - { offsetInCU: 0x33EF6, offset: 0x33EF6, size: 0x8, addend: 0x0, symName: __ZNSt3__117__compressed_pairINS_15__tree_end_nodeIPNS_16__tree_node_baseIPvEEEENS_9allocatorINS_11__tree_nodeINS_12__value_typeIKN8QStrings7QStringIcLm52EEEN4Pika8STLValueISC_EEEES3_EEEEE5firstB8ue170006Ev, symObjAddr: 0x1E2D0, symBinAddr: 0x1000228DC, symSize: 0x24 }
  - { offsetInCU: 0x33F1C, offset: 0x33F1C, size: 0x8, addend: 0x0, symName: __ZNSt3__117__compressed_pairImNS_19__map_value_compareIKN8QStrings7QStringIcLm52EEENS_12__value_typeIS5_N4Pika8STLValueIS4_EEEENS_4lessIS5_EELb1EEEE6secondB8ue170006Ev, symObjAddr: 0x1E324, symBinAddr: 0x100022930, symSize: 0x24 }
  - { offsetInCU: 0x33F42, offset: 0x33F42, size: 0x8, addend: 0x0, symName: __ZNSt3__122__compressed_pair_elemINS_19__map_value_compareIKN8QStrings7QStringIcLm52EEENS_12__value_typeIS5_N4Pika8STLValueIS4_EEEENS_4lessIS5_EELb1EEELi1ELb1EE5__getB8ue170006Ev, symObjAddr: 0x1E348, symBinAddr: 0x100022954, symSize: 0x14 }
  - { offsetInCU: 0x33F68, offset: 0x33F68, size: 0x8, addend: 0x0, symName: __ZNKSt3__115__tree_iteratorINS_12__value_typeIKN8QStrings7QStringIcLm52EEEN4Pika8STLValueIS4_EEEEPNS_11__tree_nodeIS9_PvEElE8__get_npB8ue170006Ev, symObjAddr: 0x1E35C, symBinAddr: 0x100022968, symSize: 0x18 }
  - { offsetInCU: 0x33F8E, offset: 0x33F8E, size: 0x8, addend: 0x0, symName: __ZNSt3__114__map_iteratorINS_15__tree_iteratorINS_12__value_typeIKN8QStrings7QStringIcLm52EEEN4Pika8STLValueIS5_EEEEPNS_11__tree_nodeISA_PvEElEEEC2B8ue170006ESF_, symObjAddr: 0x1E374, symBinAddr: 0x100022980, symSize: 0x20 }
  - { offsetInCU: 0x33FC7, offset: 0x33FC7, size: 0x8, addend: 0x0, symName: __ZNSt3__120__map_const_iteratorINS_21__tree_const_iteratorINS_12__value_typeIKN8QStrings7QStringIcLm52EEEN4Pika8STLValueIS5_EEEEPNS_11__tree_nodeISA_PvEElEEEC2B8ue170006ENS_14__map_iteratorINS_15__tree_iteratorISA_SE_lEEEE, symObjAddr: 0x1E394, symBinAddr: 0x1000229A0, symSize: 0x3C }
  - { offsetInCU: 0x34000, offset: 0x34000, size: 0x8, addend: 0x0, symName: __ZNSt3__121__tree_const_iteratorINS_12__value_typeIKN8QStrings7QStringIcLm52EEEN4Pika8STLValueIS4_EEEEPNS_11__tree_nodeIS9_PvEElEC1B8ue170006ENS_15__tree_iteratorIS9_SD_lEE, symObjAddr: 0x1E3D0, symBinAddr: 0x1000229DC, symSize: 0x34 }
  - { offsetInCU: 0x34039, offset: 0x34039, size: 0x8, addend: 0x0, symName: __ZNSt3__121__tree_const_iteratorINS_12__value_typeIKN8QStrings7QStringIcLm52EEEN4Pika8STLValueIS4_EEEEPNS_11__tree_nodeIS9_PvEElEC2B8ue170006ENS_15__tree_iteratorIS9_SD_lEE, symObjAddr: 0x1E404, symBinAddr: 0x100022A10, symSize: 0x20 }
  - { offsetInCU: 0x34072, offset: 0x34072, size: 0x8, addend: 0x0, symName: __ZNSt3__114pointer_traitsIPKNS_4pairIKN8QStrings7QStringIcLm52EEEN4Pika8STLValueIS4_EEEEE10pointer_toB8ue170006ERSA_, symObjAddr: 0x1E454, symBinAddr: 0x100022A60, symSize: 0x14 }
  - { offsetInCU: 0x34095, offset: 0x34095, size: 0x8, addend: 0x0, symName: __ZNKSt3__121__tree_const_iteratorINS_12__value_typeIKN8QStrings7QStringIcLm52EEEN4Pika8STLValueIS4_EEEEPNS_11__tree_nodeIS9_PvEElEptB8ue170006Ev, symObjAddr: 0x1E468, symBinAddr: 0x100022A74, symSize: 0x2C }
  - { offsetInCU: 0x340BB, offset: 0x340BB, size: 0x8, addend: 0x0, symName: __ZNSt3__114pointer_traitsIPKNS_12__value_typeIKN8QStrings7QStringIcLm52EEEN4Pika8STLValueIS4_EEEEE10pointer_toB8ue170006ERSA_, symObjAddr: 0x1E494, symBinAddr: 0x100022AA0, symSize: 0x14 }
  - { offsetInCU: 0x340DE, offset: 0x340DE, size: 0x8, addend: 0x0, symName: __ZNKSt3__121__tree_const_iteratorINS_12__value_typeIKN8QStrings7QStringIcLm52EEEN4Pika8STLValueIS4_EEEEPNS_11__tree_nodeIS9_PvEElE8__get_npB8ue170006Ev, symObjAddr: 0x1E4A8, symBinAddr: 0x100022AB4, symSize: 0x18 }
  - { offsetInCU: 0x34104, offset: 0x34104, size: 0x8, addend: 0x0, symName: __ZNSt3__13mapIKN8QStrings7QStringIcLm52EEEN4Pika8STLValueIS3_EENS_4lessIS4_EENS_9allocatorINS_4pairIS4_S7_EEEEEixERS4_, symObjAddr: 0x1E4C0, symBinAddr: 0x100022ACC, symSize: 0xC8 }
  - { offsetInCU: 0x3417D, offset: 0x3417D, size: 0x8, addend: 0x0, symName: __ZNSt3__16__treeINS_12__value_typeIKN8QStrings7QStringIcLm52EEEN4Pika8STLValueIS4_EEEENS_19__map_value_compareIS5_S9_NS_4lessIS5_EELb1EEENS_9allocatorIS9_EEE12__find_equalIS4_EERPNS_16__tree_node_baseIPvEERPNS_15__tree_end_nodeISL_EERKT_, symObjAddr: 0x1E588, symBinAddr: 0x100022B94, symSize: 0x184 }
  - { offsetInCU: 0x341EA, offset: 0x341EA, size: 0x8, addend: 0x0, symName: __ZNSt3__13mapIKN8QStrings7QStringIcLm52EEEN4Pika8STLValueIS3_EENS_4lessIS4_EENS_9allocatorINS_4pairIS4_S7_EEEEE25__construct_node_with_keyERS4_, symObjAddr: 0x1E70C, symBinAddr: 0x100022D18, symSize: 0x144 }
  - { offsetInCU: 0x34240, offset: 0x34240, size: 0x8, addend: 0x0, symName: __ZNSt3__16__treeINS_12__value_typeIKN8QStrings7QStringIcLm52EEEN4Pika8STLValueIS4_EEEENS_19__map_value_compareIS5_S9_NS_4lessIS5_EELb1EEENS_9allocatorIS9_EEE16__insert_node_atEPNS_15__tree_end_nodeIPNS_16__tree_node_baseIPvEEEERSL_SL_, symObjAddr: 0x1E850, symBinAddr: 0x100022E5C, symSize: 0xCC }
  - { offsetInCU: 0x34295, offset: 0x34295, size: 0x8, addend: 0x0, symName: __ZNKSt3__110unique_ptrINS_11__tree_nodeINS_12__value_typeIKN8QStrings7QStringIcLm52EEEN4Pika8STLValueIS5_EEEEPvEENS_21__map_node_destructorINS_9allocatorISC_EEEEE3getB8ue170006Ev, symObjAddr: 0x1E91C, symBinAddr: 0x100022F28, symSize: 0x28 }
  - { offsetInCU: 0x342BB, offset: 0x342BB, size: 0x8, addend: 0x0, symName: __ZNSt3__110unique_ptrINS_11__tree_nodeINS_12__value_typeIKN8QStrings7QStringIcLm52EEEN4Pika8STLValueIS5_EEEEPvEENS_21__map_node_destructorINS_9allocatorISC_EEEEE7releaseB8ue170006Ev, symObjAddr: 0x1E944, symBinAddr: 0x100022F50, symSize: 0x44 }
  - { offsetInCU: 0x342F0, offset: 0x342F0, size: 0x8, addend: 0x0, symName: __ZNSt3__110unique_ptrINS_11__tree_nodeINS_12__value_typeIKN8QStrings7QStringIcLm52EEEN4Pika8STLValueIS5_EEEEPvEENS_21__map_node_destructorINS_9allocatorISC_EEEEED1B8ue170006Ev, symObjAddr: 0x1E988, symBinAddr: 0x100022F94, symSize: 0x2C }
  - { offsetInCU: 0x3431A, offset: 0x3431A, size: 0x8, addend: 0x0, symName: __ZNKSt3__16__treeINS_12__value_typeIKN8QStrings7QStringIcLm52EEEN4Pika8STLValueIS4_EEEENS_19__map_value_compareIS5_S9_NS_4lessIS5_EELb1EEENS_9allocatorIS9_EEE10__root_ptrB8ue170006Ev, symObjAddr: 0x1E9B4, symBinAddr: 0x100022FC0, symSize: 0x24 }
  - { offsetInCU: 0x34340, offset: 0x34340, size: 0x8, addend: 0x0, symName: __ZNSt3__116allocator_traitsINS_9allocatorINS_11__tree_nodeINS_12__value_typeIKN8QStrings7QStringIcLm52EEEN4Pika8STLValueIS6_EEEEPvEEEEE8allocateB8ue170006ERSE_m, symObjAddr: 0x1E9D8, symBinAddr: 0x100022FE4, symSize: 0x2C }
  - { offsetInCU: 0x34373, offset: 0x34373, size: 0x8, addend: 0x0, symName: __ZNSt3__121__map_node_destructorINS_9allocatorINS_11__tree_nodeINS_12__value_typeIKN8QStrings7QStringIcLm52EEEN4Pika8STLValueIS6_EEEEPvEEEEEC1B8ue170006ERSE_, symObjAddr: 0x1EA04, symBinAddr: 0x100023010, symSize: 0x34 }
  - { offsetInCU: 0x343B1, offset: 0x343B1, size: 0x8, addend: 0x0, symName: __ZNSt3__110unique_ptrINS_11__tree_nodeINS_12__value_typeIKN8QStrings7QStringIcLm52EEEN4Pika8STLValueIS5_EEEEPvEENS_21__map_node_destructorINS_9allocatorISC_EEEEEC1B8ue170006ILb1EvEEPSC_NS_16__dependent_typeINS_27__unique_ptr_deleter_sfinaeISG_EEXT_EE20__good_rval_ref_typeE, symObjAddr: 0x1EA38, symBinAddr: 0x100023044, symSize: 0x3C }
  - { offsetInCU: 0x34402, offset: 0x34402, size: 0x8, addend: 0x0, symName: __ZNSt3__116allocator_traitsINS_9allocatorINS_11__tree_nodeINS_12__value_typeIKN8QStrings7QStringIcLm52EEEN4Pika8STLValueIS6_EEEEPvEEEEE9constructB8ue170006IS7_JRS7_EvEEvRSE_PT_DpOT0_, symObjAddr: 0x1EA74, symBinAddr: 0x100023080, symSize: 0x34 }
  - { offsetInCU: 0x34459, offset: 0x34459, size: 0x8, addend: 0x0, symName: __ZNKSt3__110unique_ptrINS_11__tree_nodeINS_12__value_typeIKN8QStrings7QStringIcLm52EEEN4Pika8STLValueIS5_EEEEPvEENS_21__map_node_destructorINS_9allocatorISC_EEEEEptB8ue170006Ev, symObjAddr: 0x1EAA8, symBinAddr: 0x1000230B4, symSize: 0x28 }
  - { offsetInCU: 0x3447F, offset: 0x3447F, size: 0x8, addend: 0x0, symName: __ZNSt3__110unique_ptrINS_11__tree_nodeINS_12__value_typeIKN8QStrings7QStringIcLm52EEEN4Pika8STLValueIS5_EEEEPvEENS_21__map_node_destructorINS_9allocatorISC_EEEEE11get_deleterB8ue170006Ev, symObjAddr: 0x1EAD0, symBinAddr: 0x1000230DC, symSize: 0x24 }
  - { offsetInCU: 0x344A5, offset: 0x344A5, size: 0x8, addend: 0x0, symName: __ZNSt3__116allocator_traitsINS_9allocatorINS_11__tree_nodeINS_12__value_typeIKN8QStrings7QStringIcLm52EEEN4Pika8STLValueIS6_EEEEPvEEEEE9constructB8ue170006ISA_JEvEEvRSE_PT_DpOT0_, symObjAddr: 0x1EAF4, symBinAddr: 0x100023100, symSize: 0x2C }
  - { offsetInCU: 0x344E7, offset: 0x344E7, size: 0x8, addend: 0x0, symName: __ZNSt3__19allocatorINS_11__tree_nodeINS_12__value_typeIKN8QStrings7QStringIcLm52EEEN4Pika8STLValueIS5_EEEEPvEEE8allocateB8ue170006Em, symObjAddr: 0x1EB20, symBinAddr: 0x10002312C, symSize: 0x8C }
  - { offsetInCU: 0x34525, offset: 0x34525, size: 0x8, addend: 0x0, symName: __ZNSt3__116allocator_traitsINS_9allocatorINS_11__tree_nodeINS_12__value_typeIKN8QStrings7QStringIcLm52EEEN4Pika8STLValueIS6_EEEEPvEEEEE8max_sizeB8ue170006ISE_vEEmRKSE_, symObjAddr: 0x1EBAC, symBinAddr: 0x1000231B8, symSize: 0x24 }
  - { offsetInCU: 0x34553, offset: 0x34553, size: 0x8, addend: 0x0, symName: __ZNKSt3__19allocatorINS_11__tree_nodeINS_12__value_typeIKN8QStrings7QStringIcLm52EEEN4Pika8STLValueIS5_EEEEPvEEE8max_sizeB8ue170006Ev, symObjAddr: 0x1EC2C, symBinAddr: 0x100023238, symSize: 0x18 }
  - { offsetInCU: 0x34579, offset: 0x34579, size: 0x8, addend: 0x0, symName: __ZNSt3__121__map_node_destructorINS_9allocatorINS_11__tree_nodeINS_12__value_typeIKN8QStrings7QStringIcLm52EEEN4Pika8STLValueIS6_EEEEPvEEEEEC2B8ue170006ERSE_, symObjAddr: 0x1EC68, symBinAddr: 0x100023274, symSize: 0x28 }
  - { offsetInCU: 0x345B2, offset: 0x345B2, size: 0x8, addend: 0x0, symName: __ZNSt3__110unique_ptrINS_11__tree_nodeINS_12__value_typeIKN8QStrings7QStringIcLm52EEEN4Pika8STLValueIS5_EEEEPvEENS_21__map_node_destructorINS_9allocatorISC_EEEEEC2B8ue170006ILb1EvEEPSC_NS_16__dependent_typeINS_27__unique_ptr_deleter_sfinaeISG_EEXT_EE20__good_rval_ref_typeE, symObjAddr: 0x1EC90, symBinAddr: 0x10002329C, symSize: 0x5C }
  - { offsetInCU: 0x34603, offset: 0x34603, size: 0x8, addend: 0x0, symName: __ZNSt3__117__compressed_pairIPNS_11__tree_nodeINS_12__value_typeIKN8QStrings7QStringIcLm52EEEN4Pika8STLValueIS5_EEEEPvEENS_21__map_node_destructorINS_9allocatorISC_EEEEEC1B8ue170006IRSD_SH_EEOT_OT0_, symObjAddr: 0x1ECEC, symBinAddr: 0x1000232F8, symSize: 0x3C }
  - { offsetInCU: 0x3465B, offset: 0x3465B, size: 0x8, addend: 0x0, symName: __ZNSt3__117__compressed_pairIPNS_11__tree_nodeINS_12__value_typeIKN8QStrings7QStringIcLm52EEEN4Pika8STLValueIS5_EEEEPvEENS_21__map_node_destructorINS_9allocatorISC_EEEEEC2B8ue170006IRSD_SH_EEOT_OT0_, symObjAddr: 0x1ED28, symBinAddr: 0x100023334, symSize: 0x48 }
  - { offsetInCU: 0x346B3, offset: 0x346B3, size: 0x8, addend: 0x0, symName: __ZNSt3__122__compressed_pair_elemIPNS_11__tree_nodeINS_12__value_typeIKN8QStrings7QStringIcLm52EEEN4Pika8STLValueIS5_EEEEPvEELi0ELb0EEC2B8ue170006IRSD_vEEOT_, symObjAddr: 0x1ED70, symBinAddr: 0x10002337C, symSize: 0x24 }
  - { offsetInCU: 0x346F5, offset: 0x346F5, size: 0x8, addend: 0x0, symName: __ZNSt3__122__compressed_pair_elemINS_21__map_node_destructorINS_9allocatorINS_11__tree_nodeINS_12__value_typeIKN8QStrings7QStringIcLm52EEEN4Pika8STLValueIS7_EEEEPvEEEEEELi1ELb0EEC2B8ue170006ISG_vEEOT_, symObjAddr: 0x1ED94, symBinAddr: 0x1000233A0, symSize: 0x24 }
  - { offsetInCU: 0x34737, offset: 0x34737, size: 0x8, addend: 0x0, symName: __ZNSt3__19allocatorINS_11__tree_nodeINS_12__value_typeIKN8QStrings7QStringIcLm52EEEN4Pika8STLValueIS5_EEEEPvEEE9constructB8ue170006IS6_JRS6_EEEvPT_DpOT0_, symObjAddr: 0x1EDB8, symBinAddr: 0x1000233C4, symSize: 0x30 }
  - { offsetInCU: 0x3478D, offset: 0x3478D, size: 0x8, addend: 0x0, symName: __ZNKSt3__117__compressed_pairIPNS_11__tree_nodeINS_12__value_typeIKN8QStrings7QStringIcLm52EEEN4Pika8STLValueIS5_EEEEPvEENS_21__map_node_destructorINS_9allocatorISC_EEEEE5firstB8ue170006Ev, symObjAddr: 0x1EDE8, symBinAddr: 0x1000233F4, symSize: 0x24 }
  - { offsetInCU: 0x347B3, offset: 0x347B3, size: 0x8, addend: 0x0, symName: __ZNKSt3__122__compressed_pair_elemIPNS_11__tree_nodeINS_12__value_typeIKN8QStrings7QStringIcLm52EEEN4Pika8STLValueIS5_EEEEPvEELi0ELb0EE5__getB8ue170006Ev, symObjAddr: 0x1EE0C, symBinAddr: 0x100023418, symSize: 0x14 }
  - { offsetInCU: 0x347D9, offset: 0x347D9, size: 0x8, addend: 0x0, symName: __ZNSt3__117__compressed_pairIPNS_11__tree_nodeINS_12__value_typeIKN8QStrings7QStringIcLm52EEEN4Pika8STLValueIS5_EEEEPvEENS_21__map_node_destructorINS_9allocatorISC_EEEEE6secondB8ue170006Ev, symObjAddr: 0x1EE20, symBinAddr: 0x10002342C, symSize: 0x28 }
  - { offsetInCU: 0x347FF, offset: 0x347FF, size: 0x8, addend: 0x0, symName: __ZNSt3__122__compressed_pair_elemINS_21__map_node_destructorINS_9allocatorINS_11__tree_nodeINS_12__value_typeIKN8QStrings7QStringIcLm52EEEN4Pika8STLValueIS7_EEEEPvEEEEEELi1ELb0EE5__getB8ue170006Ev, symObjAddr: 0x1EE48, symBinAddr: 0x100023454, symSize: 0x14 }
  - { offsetInCU: 0x34825, offset: 0x34825, size: 0x8, addend: 0x0, symName: __ZNSt3__19allocatorINS_11__tree_nodeINS_12__value_typeIKN8QStrings7QStringIcLm52EEEN4Pika8STLValueIS5_EEEEPvEEE9constructB8ue170006IS9_JEEEvPT_DpOT0_, symObjAddr: 0x1EE5C, symBinAddr: 0x100023468, symSize: 0x28 }
  - { offsetInCU: 0x34867, offset: 0x34867, size: 0x8, addend: 0x0, symName: __ZNSt3__16__treeINS_12__value_typeIKN8QStrings7QStringIcLm52EEEN4Pika8STLValueIS4_EEEENS_19__map_value_compareIS5_S9_NS_4lessIS5_EELb1EEENS_9allocatorIS9_EEE12__begin_nodeB8ue170006Ev, symObjAddr: 0x1EE84, symBinAddr: 0x100023490, symSize: 0x14 }
  - { offsetInCU: 0x3488D, offset: 0x3488D, size: 0x8, addend: 0x0, symName: __ZNSt3__16__treeINS_12__value_typeIKN8QStrings7QStringIcLm52EEEN4Pika8STLValueIS4_EEEENS_19__map_value_compareIS5_S9_NS_4lessIS5_EELb1EEENS_9allocatorIS9_EEE4sizeB8ue170006Ev, symObjAddr: 0x1F114, symBinAddr: 0x100023720, symSize: 0x28 }
  - { offsetInCU: 0x348B3, offset: 0x348B3, size: 0x8, addend: 0x0, symName: __ZNSt3__116__tree_node_baseIPvE12__set_parentB8ue170006EPS2_, symObjAddr: 0x1F2F4, symBinAddr: 0x100023900, symSize: 0x20 }
  - { offsetInCU: 0x348E8, offset: 0x348E8, size: 0x8, addend: 0x0, symName: __ZNSt3__117__compressed_pairImNS_19__map_value_compareIKN8QStrings7QStringIcLm52EEENS_12__value_typeIS5_N4Pika8STLValueIS4_EEEENS_4lessIS5_EELb1EEEE5firstB8ue170006Ev, symObjAddr: 0x1F314, symBinAddr: 0x100023920, symSize: 0x24 }
  - { offsetInCU: 0x3490E, offset: 0x3490E, size: 0x8, addend: 0x0, symName: __ZNSt3__122__compressed_pair_elemImLi0ELb0EE5__getB8ue170006Ev, symObjAddr: 0x1F338, symBinAddr: 0x100023944, symSize: 0x14 }
  - { offsetInCU: 0x34934, offset: 0x34934, size: 0x8, addend: 0x0, symName: __ZNSt3__117__compressed_pairIPNS_11__tree_nodeINS_12__value_typeIKN8QStrings7QStringIcLm52EEEN4Pika8STLValueIS5_EEEEPvEENS_21__map_node_destructorINS_9allocatorISC_EEEEE5firstB8ue170006Ev, symObjAddr: 0x1F34C, symBinAddr: 0x100023958, symSize: 0x24 }
  - { offsetInCU: 0x3495A, offset: 0x3495A, size: 0x8, addend: 0x0, symName: __ZNSt3__122__compressed_pair_elemIPNS_11__tree_nodeINS_12__value_typeIKN8QStrings7QStringIcLm52EEEN4Pika8STLValueIS5_EEEEPvEELi0ELb0EE5__getB8ue170006Ev, symObjAddr: 0x1F370, symBinAddr: 0x10002397C, symSize: 0x14 }
  - { offsetInCU: 0x34980, offset: 0x34980, size: 0x8, addend: 0x0, symName: __ZNSt3__110unique_ptrINS_11__tree_nodeINS_12__value_typeIKN8QStrings7QStringIcLm52EEEN4Pika8STLValueIS5_EEEEPvEENS_21__map_node_destructorINS_9allocatorISC_EEEEED2B8ue170006Ev, symObjAddr: 0x1F384, symBinAddr: 0x100023990, symSize: 0x30 }
  - { offsetInCU: 0x349AA, offset: 0x349AA, size: 0x8, addend: 0x0, symName: __ZNSt3__110unique_ptrINS_11__tree_nodeINS_12__value_typeIKN8QStrings7QStringIcLm52EEEN4Pika8STLValueIS5_EEEEPvEENS_21__map_node_destructorINS_9allocatorISC_EEEEE5resetB8ue170006EPSC_, symObjAddr: 0x1F3B4, symBinAddr: 0x1000239C0, symSize: 0x78 }
  - { offsetInCU: 0x349EE, offset: 0x349EE, size: 0x8, addend: 0x0, symName: __ZNSt3__121__map_node_destructorINS_9allocatorINS_11__tree_nodeINS_12__value_typeIKN8QStrings7QStringIcLm52EEEN4Pika8STLValueIS6_EEEEPvEEEEEclB8ue170006EPSD_, symObjAddr: 0x1F42C, symBinAddr: 0x100023A38, symSize: 0xE4 }
  - { offsetInCU: 0x34A23, offset: 0x34A23, size: 0x8, addend: 0x0, symName: __ZNSt3__116allocator_traitsINS_9allocatorINS_11__tree_nodeINS_12__value_typeIKN8QStrings7QStringIcLm52EEEN4Pika8STLValueIS6_EEEEPvEEEEE7destroyB8ue170006ISA_vvEEvRSE_PT_, symObjAddr: 0x1F510, symBinAddr: 0x100023B1C, symSize: 0x28 }
  - { offsetInCU: 0x34A5E, offset: 0x34A5E, size: 0x8, addend: 0x0, symName: __ZNSt3__116allocator_traitsINS_9allocatorINS_11__tree_nodeINS_12__value_typeIKN8QStrings7QStringIcLm52EEEN4Pika8STLValueIS6_EEEEPvEEEEE7destroyB8ue170006IS7_vvEEvRSE_PT_, symObjAddr: 0x1F538, symBinAddr: 0x100023B44, symSize: 0x28 }
  - { offsetInCU: 0x34A99, offset: 0x34A99, size: 0x8, addend: 0x0, symName: __ZNSt3__13mapIKN8QStrings7QStringIcLm52EEEN4Pika8STLValueIS3_EENS_4lessIS4_EENS_9allocatorINS_4pairIS4_S7_EEEEE5eraseB8ue170006ERS4_, symObjAddr: 0x1F560, symBinAddr: 0x100023B6C, symSize: 0x2C }
  - { offsetInCU: 0x34ACE, offset: 0x34ACE, size: 0x8, addend: 0x0, symName: __ZNSt3__16__treeINS_12__value_typeIKN8QStrings7QStringIcLm52EEEN4Pika8STLValueIS4_EEEENS_19__map_value_compareIS5_S9_NS_4lessIS5_EELb1EEENS_9allocatorIS9_EEE14__erase_uniqueIS4_EEmRKT_, symObjAddr: 0x1F58C, symBinAddr: 0x100023B98, symSize: 0xA0 }
  - { offsetInCU: 0x34B1D, offset: 0x34B1D, size: 0x8, addend: 0x0, symName: __ZNSt3__16__treeINS_12__value_typeIKN8QStrings7QStringIcLm52EEEN4Pika8STLValueIS4_EEEENS_19__map_value_compareIS5_S9_NS_4lessIS5_EELb1EEENS_9allocatorIS9_EEE5eraseENS_21__tree_const_iteratorIS9_PNS_11__tree_nodeIS9_PvEElEE, symObjAddr: 0x1F62C, symBinAddr: 0x100023C38, symSize: 0x98 }
  - { offsetInCU: 0x34B81, offset: 0x34B81, size: 0x8, addend: 0x0, symName: __ZNSt3__16__treeINS_12__value_typeIKN8QStrings7QStringIcLm52EEEN4Pika8STLValueIS4_EEEENS_19__map_value_compareIS5_S9_NS_4lessIS5_EELb1EEENS_9allocatorIS9_EEE21__remove_node_pointerEPNS_11__tree_nodeIS9_PvEE, symObjAddr: 0x1F6C4, symBinAddr: 0x100023CD0, symSize: 0xC8 }
  - { offsetInCU: 0x34BC7, offset: 0x34BC7, size: 0x8, addend: 0x0, symName: __ZNKSt3__121__tree_const_iteratorINS_12__value_typeIKN8QStrings7QStringIcLm52EEEN4Pika8STLValueIS4_EEEEPNS_11__tree_nodeIS9_PvEElEdeB8ue170006Ev, symObjAddr: 0x1F78C, symBinAddr: 0x100023D98, symSize: 0x28 }
  - { offsetInCU: 0x34BED, offset: 0x34BED, size: 0x8, addend: 0x0, symName: __ZNSt3__115__tree_iteratorINS_12__value_typeIKN8QStrings7QStringIcLm52EEEN4Pika8STLValueIS4_EEEEPNS_11__tree_nodeIS9_PvEElEC1B8ue170006ESD_, symObjAddr: 0x1F7B4, symBinAddr: 0x100023DC0, symSize: 0x34 }
  - { offsetInCU: 0x34C26, offset: 0x34C26, size: 0x8, addend: 0x0, symName: __ZNSt3__115__tree_iteratorINS_12__value_typeIKN8QStrings7QStringIcLm52EEEN4Pika8STLValueIS4_EEEEPNS_11__tree_nodeIS9_PvEElEppB8ue170006Ev, symObjAddr: 0x1F7E8, symBinAddr: 0x100023DF4, symSize: 0x38 }
  - { offsetInCU: 0x34C4C, offset: 0x34C4C, size: 0x8, addend: 0x0, symName: __ZNSt3__115__tree_iteratorINS_12__value_typeIKN8QStrings7QStringIcLm52EEEN4Pika8STLValueIS4_EEEEPNS_11__tree_nodeIS9_PvEElEC2B8ue170006ESD_, symObjAddr: 0x1FF00, symBinAddr: 0x10002450C, symSize: 0x20 }
  - { offsetInCU: 0x34C85, offset: 0x34C85, size: 0x8, addend: 0x0, symName: __ZNSt3__13mapIKN8QStrings7QStringIcLm52EEEN4Pika8STLValueIS3_EENS_4lessIS4_EENS_9allocatorINS_4pairIS4_S7_EEEEE11lower_boundB8ue170006ERS4_, symObjAddr: 0x1FFA0, symBinAddr: 0x1000245AC, symSize: 0x40 }
  - { offsetInCU: 0x34CBA, offset: 0x34CBA, size: 0x8, addend: 0x0, symName: __ZNSt3__16vectorINS_4pairIN8QStrings7QStringIcLm52EEEN4Pika8STLValueIS4_EEEENS_9allocatorIS8_EEE9push_backB8ue170006EOS8_, symObjAddr: 0x20010, symBinAddr: 0x10002461C, symSize: 0x6C }
  - { offsetInCU: 0x34CF1, offset: 0x34CF1, size: 0x8, addend: 0x0, symName: __ZNKSt3__120__map_const_iteratorINS_21__tree_const_iteratorINS_12__value_typeIKN8QStrings7QStringIcLm52EEEN4Pika8STLValueIS5_EEEEPNS_11__tree_nodeISA_PvEElEEEdeB8ue170006Ev, symObjAddr: 0x2007C, symBinAddr: 0x100024688, symSize: 0x28 }
  - { offsetInCU: 0x34D17, offset: 0x34D17, size: 0x8, addend: 0x0, symName: __ZNSt3__14pairIN8QStrings7QStringIcLm52EEEN4Pika8STLValueIS3_EEEC1B8ue170006IKS3_S6_EERKNS0_IT_T0_EE, symObjAddr: 0x200A4, symBinAddr: 0x1000246B0, symSize: 0x34 }
  - { offsetInCU: 0x34D61, offset: 0x34D61, size: 0x8, addend: 0x0, symName: __ZNSt3__120__map_const_iteratorINS_21__tree_const_iteratorINS_12__value_typeIKN8QStrings7QStringIcLm52EEEN4Pika8STLValueIS5_EEEEPNS_11__tree_nodeISA_PvEElEEEppB8ue170006Ev, symObjAddr: 0x200D8, symBinAddr: 0x1000246E4, symSize: 0x2C }
  - { offsetInCU: 0x34D87, offset: 0x34D87, size: 0x8, addend: 0x0, symName: __ZNSt3__16__treeINS_12__value_typeIKN8QStrings7QStringIcLm52EEEN4Pika8STLValueIS4_EEEENS_19__map_value_compareIS5_S9_NS_4lessIS5_EELb1EEENS_9allocatorIS9_EEE11lower_boundB8ue170006IS4_EENS_15__tree_iteratorIS9_PNS_11__tree_nodeIS9_PvEElEERKT_, symObjAddr: 0x20104, symBinAddr: 0x100024710, symSize: 0x60 }
  - { offsetInCU: 0x34DC5, offset: 0x34DC5, size: 0x8, addend: 0x0, symName: __ZNSt3__16vectorINS_4pairIN8QStrings7QStringIcLm52EEEN4Pika8STLValueIS4_EEEENS_9allocatorIS8_EEE9__end_capB8ue170006Ev, symObjAddr: 0x20198, symBinAddr: 0x1000247A4, symSize: 0x28 }
  - { offsetInCU: 0x34DEB, offset: 0x34DEB, size: 0x8, addend: 0x0, symName: __ZNSt3__16vectorINS_4pairIN8QStrings7QStringIcLm52EEEN4Pika8STLValueIS4_EEEENS_9allocatorIS8_EEE22__construct_one_at_endB8ue170006IJS8_EEEvDpOT_, symObjAddr: 0x201C0, symBinAddr: 0x1000247CC, symSize: 0x98 }
  - { offsetInCU: 0x34E3A, offset: 0x34E3A, size: 0x8, addend: 0x0, symName: __ZNSt3__16vectorINS_4pairIN8QStrings7QStringIcLm52EEEN4Pika8STLValueIS4_EEEENS_9allocatorIS8_EEE21__push_back_slow_pathIS8_EEvOT_, symObjAddr: 0x20258, symBinAddr: 0x100024864, symSize: 0xE0 }
  - { offsetInCU: 0x34E98, offset: 0x34E98, size: 0x8, addend: 0x0, symName: __ZNSt3__117__compressed_pairIPNS_4pairIN8QStrings7QStringIcLm52EEEN4Pika8STLValueIS4_EEEENS_9allocatorIS8_EEE5firstB8ue170006Ev, symObjAddr: 0x20338, symBinAddr: 0x100024944, symSize: 0x24 }
  - { offsetInCU: 0x34EBE, offset: 0x34EBE, size: 0x8, addend: 0x0, symName: __ZNSt3__122__compressed_pair_elemIPNS_4pairIN8QStrings7QStringIcLm52EEEN4Pika8STLValueIS4_EEEELi0ELb0EE5__getB8ue170006Ev, symObjAddr: 0x2035C, symBinAddr: 0x100024968, symSize: 0x14 }
  - { offsetInCU: 0x34EFD, offset: 0x34EFD, size: 0x8, addend: 0x0, symName: __ZNSt3__16vectorINS_4pairIN8QStrings7QStringIcLm52EEEN4Pika8STLValueIS4_EEEENS_9allocatorIS8_EEE21_ConstructTransactionC1B8ue170006ERSB_m, symObjAddr: 0x20370, symBinAddr: 0x10002497C, symSize: 0x3C }
  - { offsetInCU: 0x34F45, offset: 0x34F45, size: 0x8, addend: 0x0, symName: __ZNSt3__116allocator_traitsINS_9allocatorINS_4pairIN8QStrings7QStringIcLm52EEEN4Pika8STLValueIS5_EEEEEEE9constructB8ue170006IS9_JS9_EvEEvRSA_PT_DpOT0_, symObjAddr: 0x203AC, symBinAddr: 0x1000249B8, symSize: 0x34 }
  - { offsetInCU: 0x34F9C, offset: 0x34F9C, size: 0x8, addend: 0x0, symName: __ZNSt3__16vectorINS_4pairIN8QStrings7QStringIcLm52EEEN4Pika8STLValueIS4_EEEENS_9allocatorIS8_EEE7__allocB8ue170006Ev, symObjAddr: 0x203E0, symBinAddr: 0x1000249EC, symSize: 0x28 }
  - { offsetInCU: 0x34FC2, offset: 0x34FC2, size: 0x8, addend: 0x0, symName: __ZNSt3__16vectorINS_4pairIN8QStrings7QStringIcLm52EEEN4Pika8STLValueIS4_EEEENS_9allocatorIS8_EEE21_ConstructTransactionD1B8ue170006Ev, symObjAddr: 0x2041C, symBinAddr: 0x100024A28, symSize: 0x2C }
  - { offsetInCU: 0x34FEC, offset: 0x34FEC, size: 0x8, addend: 0x0, symName: __ZNSt3__16vectorINS_4pairIN8QStrings7QStringIcLm52EEEN4Pika8STLValueIS4_EEEENS_9allocatorIS8_EEE21_ConstructTransactionC2B8ue170006ERSB_m, symObjAddr: 0x20448, symBinAddr: 0x100024A54, symSize: 0x4C }
  - { offsetInCU: 0x35034, offset: 0x35034, size: 0x8, addend: 0x0, symName: __ZNSt3__19allocatorINS_4pairIN8QStrings7QStringIcLm52EEEN4Pika8STLValueIS4_EEEEE9constructB8ue170006IS8_JS8_EEEvPT_DpOT0_, symObjAddr: 0x20494, symBinAddr: 0x100024AA0, symSize: 0x30 }
  - { offsetInCU: 0x3508A, offset: 0x3508A, size: 0x8, addend: 0x0, symName: __ZNSt3__14pairIN8QStrings7QStringIcLm52EEEN4Pika8STLValueIS3_EEEC1B8ue170006EOS7_, symObjAddr: 0x204C4, symBinAddr: 0x100024AD0, symSize: 0x34 }
  - { offsetInCU: 0x350BE, offset: 0x350BE, size: 0x8, addend: 0x0, symName: __ZNSt3__14pairIN8QStrings7QStringIcLm52EEEN4Pika8STLValueIS3_EEEC2B8ue170006EOS7_, symObjAddr: 0x204F8, symBinAddr: 0x100024B04, symSize: 0x70 }
  - { offsetInCU: 0x350F2, offset: 0x350F2, size: 0x8, addend: 0x0, symName: __ZN4Pika8STLValueIN8QStrings7QStringIcLm52EEEEC1ERKS4_, symObjAddr: 0x20568, symBinAddr: 0x100024B74, symSize: 0x34 }
  - { offsetInCU: 0x35127, offset: 0x35127, size: 0x8, addend: 0x0, symName: __ZN4Pika8STLValueIN8QStrings7QStringIcLm52EEEEC2ERKS4_, symObjAddr: 0x2059C, symBinAddr: 0x100024BA8, symSize: 0x34 }
  - { offsetInCU: 0x3515C, offset: 0x3515C, size: 0x8, addend: 0x0, symName: __ZN8QStrings7QStringIcLm52EEC2ERKS1_, symObjAddr: 0x205D0, symBinAddr: 0x100024BDC, symSize: 0x54 }
  - { offsetInCU: 0x35197, offset: 0x35197, size: 0x8, addend: 0x0, symName: __ZNSt3__117__compressed_pairIPNS_4pairIN8QStrings7QStringIcLm52EEEN4Pika8STLValueIS4_EEEENS_9allocatorIS8_EEE6secondB8ue170006Ev, symObjAddr: 0x20624, symBinAddr: 0x100024C30, symSize: 0x24 }
  - { offsetInCU: 0x351BD, offset: 0x351BD, size: 0x8, addend: 0x0, symName: __ZNSt3__122__compressed_pair_elemINS_9allocatorINS_4pairIN8QStrings7QStringIcLm52EEEN4Pika8STLValueIS5_EEEEEELi1ELb1EE5__getB8ue170006Ev, symObjAddr: 0x20648, symBinAddr: 0x100024C54, symSize: 0x14 }
  - { offsetInCU: 0x351E3, offset: 0x351E3, size: 0x8, addend: 0x0, symName: __ZNSt3__16vectorINS_4pairIN8QStrings7QStringIcLm52EEEN4Pika8STLValueIS4_EEEENS_9allocatorIS8_EEE21_ConstructTransactionD2B8ue170006Ev, symObjAddr: 0x2065C, symBinAddr: 0x100024C68, symSize: 0x20 }
  - { offsetInCU: 0x3520D, offset: 0x3520D, size: 0x8, addend: 0x0, symName: __ZNKSt3__16vectorINS_4pairIN8QStrings7QStringIcLm52EEEN4Pika8STLValueIS4_EEEENS_9allocatorIS8_EEE11__recommendB8ue170006Em, symObjAddr: 0x2067C, symBinAddr: 0x100024C88, symSize: 0xB4 }
  - { offsetInCU: 0x35262, offset: 0x35262, size: 0x8, addend: 0x0, symName: __ZNKSt3__16vectorINS_4pairIN8QStrings7QStringIcLm52EEEN4Pika8STLValueIS4_EEEENS_9allocatorIS8_EEE4sizeB8ue170006Ev, symObjAddr: 0x20730, symBinAddr: 0x100024D3C, symSize: 0x28 }
  - { offsetInCU: 0x35288, offset: 0x35288, size: 0x8, addend: 0x0, symName: __ZNSt3__114__split_bufferINS_4pairIN8QStrings7QStringIcLm52EEEN4Pika8STLValueIS4_EEEERNS_9allocatorIS8_EEEC1EmmSB_, symObjAddr: 0x20758, symBinAddr: 0x100024D64, symSize: 0x44 }
  - { offsetInCU: 0x352DE, offset: 0x352DE, size: 0x8, addend: 0x0, symName: __ZNSt3__114__split_bufferINS_4pairIN8QStrings7QStringIcLm52EEEN4Pika8STLValueIS4_EEEERNS_9allocatorIS8_EEED1Ev, symObjAddr: 0x208AC, symBinAddr: 0x100024EB8, symSize: 0x2C }
  - { offsetInCU: 0x3530A, offset: 0x3530A, size: 0x8, addend: 0x0, symName: __ZNKSt3__16vectorINS_4pairIN8QStrings7QStringIcLm52EEEN4Pika8STLValueIS4_EEEENS_9allocatorIS8_EEE8max_sizeEv, symObjAddr: 0x208D8, symBinAddr: 0x100024EE4, symSize: 0x74 }
  - { offsetInCU: 0x35332, offset: 0x35332, size: 0x8, addend: 0x0, symName: __ZNKSt3__16vectorINS_4pairIN8QStrings7QStringIcLm52EEEN4Pika8STLValueIS4_EEEENS_9allocatorIS8_EEE20__throw_length_errorB8ue170006Ev, symObjAddr: 0x2094C, symBinAddr: 0x100024F58, symSize: 0x1C }
  - { offsetInCU: 0x35358, offset: 0x35358, size: 0x8, addend: 0x0, symName: __ZNKSt3__16vectorINS_4pairIN8QStrings7QStringIcLm52EEEN4Pika8STLValueIS4_EEEENS_9allocatorIS8_EEE8capacityB8ue170006Ev, symObjAddr: 0x20968, symBinAddr: 0x100024F74, symSize: 0x40 }
  - { offsetInCU: 0x35388, offset: 0x35388, size: 0x8, addend: 0x0, symName: __ZNSt3__116allocator_traitsINS_9allocatorINS_4pairIN8QStrings7QStringIcLm52EEEN4Pika8STLValueIS5_EEEEEEE8max_sizeB8ue170006ISA_vEEmRKSA_, symObjAddr: 0x20A00, symBinAddr: 0x10002500C, symSize: 0x24 }
  - { offsetInCU: 0x353B6, offset: 0x353B6, size: 0x8, addend: 0x0, symName: __ZNKSt3__16vectorINS_4pairIN8QStrings7QStringIcLm52EEEN4Pika8STLValueIS4_EEEENS_9allocatorIS8_EEE7__allocB8ue170006Ev, symObjAddr: 0x20A24, symBinAddr: 0x100025030, symSize: 0x28 }
  - { offsetInCU: 0x353DC, offset: 0x353DC, size: 0x8, addend: 0x0, symName: __ZNSt3__114numeric_limitsIlE3maxB8ue170006Ev, symObjAddr: 0x20A4C, symBinAddr: 0x100025058, symSize: 0x14 }
  - { offsetInCU: 0x353FA, offset: 0x353FA, size: 0x8, addend: 0x0, symName: __ZNKSt3__16__lessIvvEclB8ue170006ImmEEbRKT_RKT0_, symObjAddr: 0x20AB4, symBinAddr: 0x1000250C0, symSize: 0x34 }
  - { offsetInCU: 0x3544E, offset: 0x3544E, size: 0x8, addend: 0x0, symName: __ZNKSt3__19allocatorINS_4pairIN8QStrings7QStringIcLm52EEEN4Pika8STLValueIS4_EEEEE8max_sizeB8ue170006Ev, symObjAddr: 0x20AE8, symBinAddr: 0x1000250F4, symSize: 0x18 }
  - { offsetInCU: 0x35474, offset: 0x35474, size: 0x8, addend: 0x0, symName: __ZNKSt3__117__compressed_pairIPNS_4pairIN8QStrings7QStringIcLm52EEEN4Pika8STLValueIS4_EEEENS_9allocatorIS8_EEE6secondB8ue170006Ev, symObjAddr: 0x20B00, symBinAddr: 0x10002510C, symSize: 0x24 }
  - { offsetInCU: 0x3549A, offset: 0x3549A, size: 0x8, addend: 0x0, symName: __ZNKSt3__122__compressed_pair_elemINS_9allocatorINS_4pairIN8QStrings7QStringIcLm52EEEN4Pika8STLValueIS5_EEEEEELi1ELb1EE5__getB8ue170006Ev, symObjAddr: 0x20B24, symBinAddr: 0x100025130, symSize: 0x14 }
  - { offsetInCU: 0x354C0, offset: 0x354C0, size: 0x8, addend: 0x0, symName: __ZNSt3__123__libcpp_numeric_limitsIlLb1EE3maxB8ue170006Ev, symObjAddr: 0x20B38, symBinAddr: 0x100025144, symSize: 0x8 }
  - { offsetInCU: 0x354D4, offset: 0x354D4, size: 0x8, addend: 0x0, symName: __ZNSt12length_errorC1B8ue170006EPKc, symObjAddr: 0x20BA4, symBinAddr: 0x1000251B0, symSize: 0x34 }
  - { offsetInCU: 0x3550C, offset: 0x3550C, size: 0x8, addend: 0x0, symName: __ZNSt12length_errorC2B8ue170006EPKc, symObjAddr: 0x20BD8, symBinAddr: 0x1000251E4, symSize: 0x4C }
  - { offsetInCU: 0x35544, offset: 0x35544, size: 0x8, addend: 0x0, symName: __ZNKSt3__16vectorINS_4pairIN8QStrings7QStringIcLm52EEEN4Pika8STLValueIS4_EEEENS_9allocatorIS8_EEE9__end_capB8ue170006Ev, symObjAddr: 0x20C24, symBinAddr: 0x100025230, symSize: 0x28 }
  - { offsetInCU: 0x3556A, offset: 0x3556A, size: 0x8, addend: 0x0, symName: __ZNKSt3__117__compressed_pairIPNS_4pairIN8QStrings7QStringIcLm52EEEN4Pika8STLValueIS4_EEEENS_9allocatorIS8_EEE5firstB8ue170006Ev, symObjAddr: 0x20C4C, symBinAddr: 0x100025258, symSize: 0x24 }
  - { offsetInCU: 0x35590, offset: 0x35590, size: 0x8, addend: 0x0, symName: __ZNKSt3__122__compressed_pair_elemIPNS_4pairIN8QStrings7QStringIcLm52EEEN4Pika8STLValueIS4_EEEELi0ELb0EE5__getB8ue170006Ev, symObjAddr: 0x20C70, symBinAddr: 0x10002527C, symSize: 0x14 }
  - { offsetInCU: 0x355B6, offset: 0x355B6, size: 0x8, addend: 0x0, symName: __ZNSt3__114__split_bufferINS_4pairIN8QStrings7QStringIcLm52EEEN4Pika8STLValueIS4_EEEERNS_9allocatorIS8_EEEC2EmmSB_, symObjAddr: 0x20CD8, symBinAddr: 0x1000252E4, symSize: 0xE0 }
  - { offsetInCU: 0x3562E, offset: 0x3562E, size: 0x8, addend: 0x0, symName: __ZNSt3__117__compressed_pairIPNS_4pairIN8QStrings7QStringIcLm52EEEN4Pika8STLValueIS4_EEEERNS_9allocatorIS8_EEEC1B8ue170006IDnSC_EEOT_OT0_, symObjAddr: 0x20DB8, symBinAddr: 0x1000253C4, symSize: 0x3C }
  - { offsetInCU: 0x35686, offset: 0x35686, size: 0x8, addend: 0x0, symName: __ZNSt3__114__split_bufferINS_4pairIN8QStrings7QStringIcLm52EEEN4Pika8STLValueIS4_EEEERNS_9allocatorIS8_EEE7__allocB8ue170006Ev, symObjAddr: 0x20E34, symBinAddr: 0x100025440, symSize: 0x28 }
  - { offsetInCU: 0x356AC, offset: 0x356AC, size: 0x8, addend: 0x0, symName: __ZNSt3__114__split_bufferINS_4pairIN8QStrings7QStringIcLm52EEEN4Pika8STLValueIS4_EEEERNS_9allocatorIS8_EEE9__end_capB8ue170006Ev, symObjAddr: 0x20E5C, symBinAddr: 0x100025468, symSize: 0x28 }
  - { offsetInCU: 0x356D2, offset: 0x356D2, size: 0x8, addend: 0x0, symName: __ZNSt3__117__compressed_pairIPNS_4pairIN8QStrings7QStringIcLm52EEEN4Pika8STLValueIS4_EEEERNS_9allocatorIS8_EEEC2B8ue170006IDnSC_EEOT_OT0_, symObjAddr: 0x20E84, symBinAddr: 0x100025490, symSize: 0x48 }
  - { offsetInCU: 0x3572A, offset: 0x3572A, size: 0x8, addend: 0x0, symName: __ZNSt3__122__compressed_pair_elemIPNS_4pairIN8QStrings7QStringIcLm52EEEN4Pika8STLValueIS4_EEEELi0ELb0EEC2B8ue170006IDnvEEOT_, symObjAddr: 0x20ECC, symBinAddr: 0x1000254D8, symSize: 0x1C }
  - { offsetInCU: 0x3576C, offset: 0x3576C, size: 0x8, addend: 0x0, symName: __ZNSt3__122__compressed_pair_elemIRNS_9allocatorINS_4pairIN8QStrings7QStringIcLm52EEEN4Pika8STLValueIS5_EEEEEELi1ELb0EEC2B8ue170006ISB_vEEOT_, symObjAddr: 0x20EE8, symBinAddr: 0x1000254F4, symSize: 0x20 }
  - { offsetInCU: 0x357AE, offset: 0x357AE, size: 0x8, addend: 0x0, symName: __ZNSt3__19allocatorINS_4pairIN8QStrings7QStringIcLm52EEEN4Pika8STLValueIS4_EEEEE8allocateB8ue170006Em, symObjAddr: 0x20F08, symBinAddr: 0x100025514, symSize: 0x8C }
  - { offsetInCU: 0x357E2, offset: 0x357E2, size: 0x8, addend: 0x0, symName: __ZNSt3__117__compressed_pairIPNS_4pairIN8QStrings7QStringIcLm52EEEN4Pika8STLValueIS4_EEEERNS_9allocatorIS8_EEE6secondB8ue170006Ev, symObjAddr: 0x20F94, symBinAddr: 0x1000255A0, symSize: 0x28 }
  - { offsetInCU: 0x35808, offset: 0x35808, size: 0x8, addend: 0x0, symName: __ZNSt3__122__compressed_pair_elemIRNS_9allocatorINS_4pairIN8QStrings7QStringIcLm52EEEN4Pika8STLValueIS5_EEEEEELi1ELb0EE5__getB8ue170006Ev, symObjAddr: 0x20FBC, symBinAddr: 0x1000255C8, symSize: 0x18 }
  - { offsetInCU: 0x3582E, offset: 0x3582E, size: 0x8, addend: 0x0, symName: __ZNSt3__117__compressed_pairIPNS_4pairIN8QStrings7QStringIcLm52EEEN4Pika8STLValueIS4_EEEERNS_9allocatorIS8_EEE5firstB8ue170006Ev, symObjAddr: 0x20FD4, symBinAddr: 0x1000255E0, symSize: 0x24 }
  - { offsetInCU: 0x35854, offset: 0x35854, size: 0x8, addend: 0x0, symName: __ZNKSt3__16vectorINS_4pairIN8QStrings7QStringIcLm52EEEN4Pika8STLValueIS4_EEEENS_9allocatorIS8_EEE17__annotate_deleteB8ue170006Ev, symObjAddr: 0x20FF8, symBinAddr: 0x100025604, symSize: 0xD4 }
  - { offsetInCU: 0x3587A, offset: 0x3587A, size: 0x8, addend: 0x0, symName: __ZNSt3__116reverse_iteratorIPNS_4pairIN8QStrings7QStringIcLm52EEEN4Pika8STLValueIS4_EEEEEC1B8ue170006ES9_, symObjAddr: 0x21200, symBinAddr: 0x10002580C, symSize: 0x34 }
  - { offsetInCU: 0x358B2, offset: 0x358B2, size: 0x8, addend: 0x0, symName: __ZNKSt3__116reverse_iteratorIPNS_4pairIN8QStrings7QStringIcLm52EEEN4Pika8STLValueIS4_EEEEE4baseB8ue170006Ev, symObjAddr: 0x21234, symBinAddr: 0x100025840, symSize: 0x18 }
  - { offsetInCU: 0x358D8, offset: 0x358D8, size: 0x8, addend: 0x0, symName: __ZNKSt3__16vectorINS_4pairIN8QStrings7QStringIcLm52EEEN4Pika8STLValueIS4_EEEENS_9allocatorIS8_EEE14__annotate_newB8ue170006Em, symObjAddr: 0x21288, symBinAddr: 0x100025894, symSize: 0xC8 }
  - { offsetInCU: 0x3590D, offset: 0x3590D, size: 0x8, addend: 0x0, symName: __ZNKSt3__16vectorINS_4pairIN8QStrings7QStringIcLm52EEEN4Pika8STLValueIS4_EEEENS_9allocatorIS8_EEE31__annotate_contiguous_containerB8ue170006EPKvSD_SD_SD_, symObjAddr: 0x21350, symBinAddr: 0x10002595C, symSize: 0x20 }
  - { offsetInCU: 0x35963, offset: 0x35963, size: 0x8, addend: 0x0, symName: __ZNKSt3__16vectorINS_4pairIN8QStrings7QStringIcLm52EEEN4Pika8STLValueIS4_EEEENS_9allocatorIS8_EEE4dataB8ue170006Ev, symObjAddr: 0x21370, symBinAddr: 0x10002597C, symSize: 0x28 }
  - { offsetInCU: 0x35989, offset: 0x35989, size: 0x8, addend: 0x0, symName: __ZNSt3__129_AllocatorDestroyRangeReverseINS_9allocatorINS_4pairIN8QStrings7QStringIcLm52EEEN4Pika8STLValueIS5_EEEEEENS_16reverse_iteratorIPS9_EEEC1B8ue170006ERSA_RSD_SG_, symObjAddr: 0x213E4, symBinAddr: 0x1000259F0, symSize: 0x44 }
  - { offsetInCU: 0x359E0, offset: 0x359E0, size: 0x8, addend: 0x0, symName: __ZNSt3__116allocator_traitsINS_9allocatorINS_4pairIN8QStrings7QStringIcLm52EEEN4Pika8STLValueIS5_EEEEEEE9constructB8ue170006IS9_JRKS9_EvEEvRSA_PT_DpOT0_, symObjAddr: 0x21470, symBinAddr: 0x100025A7C, symSize: 0x34 }
  - { offsetInCU: 0x35A37, offset: 0x35A37, size: 0x8, addend: 0x0, symName: __ZNKSt3__116reverse_iteratorIPNS_4pairIN8QStrings7QStringIcLm52EEEN4Pika8STLValueIS4_EEEEEdeB8ue170006Ev, symObjAddr: 0x214C8, symBinAddr: 0x100025AD4, symSize: 0x28 }
  - { offsetInCU: 0x35A6B, offset: 0x35A6B, size: 0x8, addend: 0x0, symName: __ZNSt3__116reverse_iteratorIPNS_4pairIN8QStrings7QStringIcLm52EEEN4Pika8STLValueIS4_EEEEEppB8ue170006Ev, symObjAddr: 0x214F0, symBinAddr: 0x100025AFC, symSize: 0x20 }
  - { offsetInCU: 0x35A91, offset: 0x35A91, size: 0x8, addend: 0x0, symName: __ZNSt3__128__exception_guard_exceptionsINS_29_AllocatorDestroyRangeReverseINS_9allocatorINS_4pairIN8QStrings7QStringIcLm52EEEN4Pika8STLValueIS6_EEEEEENS_16reverse_iteratorIPSA_EEEEE10__completeB8ue170006Ev, symObjAddr: 0x21510, symBinAddr: 0x100025B1C, symSize: 0x1C }
  - { offsetInCU: 0x35AB7, offset: 0x35AB7, size: 0x8, addend: 0x0, symName: __ZNSt3__128__exception_guard_exceptionsINS_29_AllocatorDestroyRangeReverseINS_9allocatorINS_4pairIN8QStrings7QStringIcLm52EEEN4Pika8STLValueIS6_EEEEEENS_16reverse_iteratorIPSA_EEEEED1B8ue170006Ev, symObjAddr: 0x2152C, symBinAddr: 0x100025B38, symSize: 0x2C }
  - { offsetInCU: 0x35AE1, offset: 0x35AE1, size: 0x8, addend: 0x0, symName: __ZNSt3__128__exception_guard_exceptionsINS_29_AllocatorDestroyRangeReverseINS_9allocatorINS_4pairIN8QStrings7QStringIcLm52EEEN4Pika8STLValueIS6_EEEEEENS_16reverse_iteratorIPSA_EEEEEC1B8ue170006ESF_, symObjAddr: 0x21558, symBinAddr: 0x100025B64, symSize: 0x34 }
  - { offsetInCU: 0x35B1A, offset: 0x35B1A, size: 0x8, addend: 0x0, symName: __ZNSt3__128__exception_guard_exceptionsINS_29_AllocatorDestroyRangeReverseINS_9allocatorINS_4pairIN8QStrings7QStringIcLm52EEEN4Pika8STLValueIS6_EEEEEENS_16reverse_iteratorIPSA_EEEEEC2B8ue170006ESF_, symObjAddr: 0x2158C, symBinAddr: 0x100025B98, symSize: 0x30 }
  - { offsetInCU: 0x35B53, offset: 0x35B53, size: 0x8, addend: 0x0, symName: __ZNSt3__129_AllocatorDestroyRangeReverseINS_9allocatorINS_4pairIN8QStrings7QStringIcLm52EEEN4Pika8STLValueIS5_EEEEEENS_16reverse_iteratorIPS9_EEEC2B8ue170006ERSA_RSD_SG_, symObjAddr: 0x215BC, symBinAddr: 0x100025BC8, symSize: 0x38 }
  - { offsetInCU: 0x35BAA, offset: 0x35BAA, size: 0x8, addend: 0x0, symName: __ZNSt3__19allocatorINS_4pairIN8QStrings7QStringIcLm52EEEN4Pika8STLValueIS4_EEEEE9constructB8ue170006IS8_JRKS8_EEEvPT_DpOT0_, symObjAddr: 0x215F4, symBinAddr: 0x100025C00, symSize: 0x30 }
  - { offsetInCU: 0x35C00, offset: 0x35C00, size: 0x8, addend: 0x0, symName: __ZNSt3__14pairIN8QStrings7QStringIcLm52EEEN4Pika8STLValueIS3_EEEC1B8ue170006ERKS7_, symObjAddr: 0x21624, symBinAddr: 0x100025C30, symSize: 0x34 }
  - { offsetInCU: 0x35C34, offset: 0x35C34, size: 0x8, addend: 0x0, symName: __ZNSt3__14pairIN8QStrings7QStringIcLm52EEEN4Pika8STLValueIS3_EEEC2B8ue170006ERKS7_, symObjAddr: 0x21658, symBinAddr: 0x100025C64, symSize: 0x70 }
  - { offsetInCU: 0x35C6D, offset: 0x35C6D, size: 0x8, addend: 0x0, symName: __ZNSt3__119__to_address_helperINS_16reverse_iteratorIPNS_4pairIN8QStrings7QStringIcLm52EEEN4Pika8STLValueIS5_EEEEEEvE6__callB8ue170006ERKSB_, symObjAddr: 0x216C8, symBinAddr: 0x100025CD4, symSize: 0x4C }
  - { offsetInCU: 0x35C90, offset: 0x35C90, size: 0x8, addend: 0x0, symName: __ZNKSt3__116reverse_iteratorIPNS_4pairIN8QStrings7QStringIcLm52EEEN4Pika8STLValueIS4_EEEEEptB8ue170006Ev, symObjAddr: 0x21714, symBinAddr: 0x100025D20, symSize: 0x24 }
  - { offsetInCU: 0x35CB6, offset: 0x35CB6, size: 0x8, addend: 0x0, symName: __ZNSt3__128__exception_guard_exceptionsINS_29_AllocatorDestroyRangeReverseINS_9allocatorINS_4pairIN8QStrings7QStringIcLm52EEEN4Pika8STLValueIS6_EEEEEENS_16reverse_iteratorIPSA_EEEEED2B8ue170006Ev, symObjAddr: 0x21738, symBinAddr: 0x100025D44, symSize: 0x48 }
  - { offsetInCU: 0x35CE0, offset: 0x35CE0, size: 0x8, addend: 0x0, symName: __ZNKSt3__129_AllocatorDestroyRangeReverseINS_9allocatorINS_4pairIN8QStrings7QStringIcLm52EEEN4Pika8STLValueIS5_EEEEEENS_16reverse_iteratorIPS9_EEEclB8ue170006Ev, symObjAddr: 0x21780, symBinAddr: 0x100025D8C, symSize: 0xB4 }
  - { offsetInCU: 0x35D07, offset: 0x35D07, size: 0x8, addend: 0x0, symName: __ZNSt3__116reverse_iteratorINS0_IPNS_4pairIN8QStrings7QStringIcLm52EEEN4Pika8STLValueIS4_EEEEEEEC1B8ue170006ESA_, symObjAddr: 0x218A4, symBinAddr: 0x100025EB0, symSize: 0x3C }
  - { offsetInCU: 0x35D3F, offset: 0x35D3F, size: 0x8, addend: 0x0, symName: __ZNSt3__116allocator_traitsINS_9allocatorINS_4pairIN8QStrings7QStringIcLm52EEEN4Pika8STLValueIS5_EEEEEEE7destroyB8ue170006IS9_vEEvRSA_PT_, symObjAddr: 0x21940, symBinAddr: 0x100025F4C, symSize: 0x2C }
  - { offsetInCU: 0x35D7C, offset: 0x35D7C, size: 0x8, addend: 0x0, symName: __ZNSt3__116reverse_iteratorINS0_IPNS_4pairIN8QStrings7QStringIcLm52EEEN4Pika8STLValueIS4_EEEEEEEppB8ue170006Ev, symObjAddr: 0x21990, symBinAddr: 0x100025F9C, symSize: 0x30 }
  - { offsetInCU: 0x35DA2, offset: 0x35DA2, size: 0x8, addend: 0x0, symName: __ZNKSt3__116reverse_iteratorINS0_IPNS_4pairIN8QStrings7QStringIcLm52EEEN4Pika8STLValueIS4_EEEEEEE4baseB8ue170006Ev, symObjAddr: 0x219C0, symBinAddr: 0x100025FCC, symSize: 0x24 }
  - { offsetInCU: 0x35DC8, offset: 0x35DC8, size: 0x8, addend: 0x0, symName: __ZNSt3__19allocatorINS_4pairIN8QStrings7QStringIcLm52EEEN4Pika8STLValueIS4_EEEEE7destroyB8ue170006EPS8_, symObjAddr: 0x219E4, symBinAddr: 0x100025FF0, symSize: 0x28 }
  - { offsetInCU: 0x35E01, offset: 0x35E01, size: 0x8, addend: 0x0, symName: __ZNSt3__119__to_address_helperINS_16reverse_iteratorINS1_IPNS_4pairIN8QStrings7QStringIcLm52EEEN4Pika8STLValueIS5_EEEEEEEEvE6__callB8ue170006ERKSC_, symObjAddr: 0x21A0C, symBinAddr: 0x100026018, symSize: 0x4C }
  - { offsetInCU: 0x35E24, offset: 0x35E24, size: 0x8, addend: 0x0, symName: __ZNKSt3__116reverse_iteratorINS0_IPNS_4pairIN8QStrings7QStringIcLm52EEEN4Pika8STLValueIS4_EEEEEEEptB8ue170006Ev, symObjAddr: 0x21A58, symBinAddr: 0x100026064, symSize: 0x24 }
  - { offsetInCU: 0x35E4A, offset: 0x35E4A, size: 0x8, addend: 0x0, symName: __ZNKSt3__116reverse_iteratorINS0_IPNS_4pairIN8QStrings7QStringIcLm52EEEN4Pika8STLValueIS4_EEEEEEEdeB8ue170006Ev, symObjAddr: 0x21A7C, symBinAddr: 0x100026088, symSize: 0x34 }
  - { offsetInCU: 0x35E7E, offset: 0x35E7E, size: 0x8, addend: 0x0, symName: __ZNSt3__116reverse_iteratorIPNS_4pairIN8QStrings7QStringIcLm52EEEN4Pika8STLValueIS4_EEEEEmmB8ue170006Ev, symObjAddr: 0x21AB0, symBinAddr: 0x1000260BC, symSize: 0x20 }
  - { offsetInCU: 0x35EA4, offset: 0x35EA4, size: 0x8, addend: 0x0, symName: __ZNSt3__116reverse_iteratorINS0_IPNS_4pairIN8QStrings7QStringIcLm52EEEN4Pika8STLValueIS4_EEEEEEEC2B8ue170006ESA_, symObjAddr: 0x21AD0, symBinAddr: 0x1000260DC, symSize: 0x2C }
  - { offsetInCU: 0x35EDC, offset: 0x35EDC, size: 0x8, addend: 0x0, symName: __ZNSt3__116reverse_iteratorIPNS_4pairIN8QStrings7QStringIcLm52EEEN4Pika8STLValueIS4_EEEEEC2B8ue170006ES9_, symObjAddr: 0x21AFC, symBinAddr: 0x100026108, symSize: 0x28 }
  - { offsetInCU: 0x35F14, offset: 0x35F14, size: 0x8, addend: 0x0, symName: __ZNSt3__114__split_bufferINS_4pairIN8QStrings7QStringIcLm52EEEN4Pika8STLValueIS4_EEEERNS_9allocatorIS8_EEED2Ev, symObjAddr: 0x21B24, symBinAddr: 0x100026130, symSize: 0x80 }
  - { offsetInCU: 0x35F40, offset: 0x35F40, size: 0x8, addend: 0x0, symName: __ZNSt3__114__split_bufferINS_4pairIN8QStrings7QStringIcLm52EEEN4Pika8STLValueIS4_EEEERNS_9allocatorIS8_EEE5clearB8ue170006Ev, symObjAddr: 0x21BA4, symBinAddr: 0x1000261B0, symSize: 0x28 }
  - { offsetInCU: 0x35F66, offset: 0x35F66, size: 0x8, addend: 0x0, symName: __ZNSt3__116allocator_traitsINS_9allocatorINS_4pairIN8QStrings7QStringIcLm52EEEN4Pika8STLValueIS5_EEEEEEE10deallocateB8ue170006ERSA_PS9_m, symObjAddr: 0x21BCC, symBinAddr: 0x1000261D8, symSize: 0x34 }
  - { offsetInCU: 0x35FA8, offset: 0x35FA8, size: 0x8, addend: 0x0, symName: __ZNKSt3__114__split_bufferINS_4pairIN8QStrings7QStringIcLm52EEEN4Pika8STLValueIS4_EEEERNS_9allocatorIS8_EEE8capacityB8ue170006Ev, symObjAddr: 0x21C00, symBinAddr: 0x10002620C, symSize: 0x40 }
  - { offsetInCU: 0x35FCE, offset: 0x35FCE, size: 0x8, addend: 0x0, symName: __ZNSt3__114__split_bufferINS_4pairIN8QStrings7QStringIcLm52EEEN4Pika8STLValueIS4_EEEERNS_9allocatorIS8_EEE17__destruct_at_endB8ue170006EPS8_, symObjAddr: 0x21C40, symBinAddr: 0x10002624C, symSize: 0x2C }
  - { offsetInCU: 0x36002, offset: 0x36002, size: 0x8, addend: 0x0, symName: __ZNSt3__114__split_bufferINS_4pairIN8QStrings7QStringIcLm52EEEN4Pika8STLValueIS4_EEEERNS_9allocatorIS8_EEE17__destruct_at_endB8ue170006EPS8_NS_17integral_constantIbLb0EEE, symObjAddr: 0x21C6C, symBinAddr: 0x100026278, symSize: 0x94 }
  - { offsetInCU: 0x36042, offset: 0x36042, size: 0x8, addend: 0x0, symName: __ZNSt3__19allocatorINS_4pairIN8QStrings7QStringIcLm52EEEN4Pika8STLValueIS4_EEEEE10deallocateB8ue170006EPS8_m, symObjAddr: 0x21D00, symBinAddr: 0x10002630C, symSize: 0x74 }
  - { offsetInCU: 0x36084, offset: 0x36084, size: 0x8, addend: 0x0, symName: __ZNKSt3__114__split_bufferINS_4pairIN8QStrings7QStringIcLm52EEEN4Pika8STLValueIS4_EEEERNS_9allocatorIS8_EEE9__end_capB8ue170006Ev, symObjAddr: 0x21D74, symBinAddr: 0x100026380, symSize: 0x28 }
  - { offsetInCU: 0x360AA, offset: 0x360AA, size: 0x8, addend: 0x0, symName: __ZNKSt3__117__compressed_pairIPNS_4pairIN8QStrings7QStringIcLm52EEEN4Pika8STLValueIS4_EEEERNS_9allocatorIS8_EEE5firstB8ue170006Ev, symObjAddr: 0x21D9C, symBinAddr: 0x1000263A8, symSize: 0x24 }
  - { offsetInCU: 0x360D0, offset: 0x360D0, size: 0x8, addend: 0x0, symName: __ZNSt3__14pairIN8QStrings7QStringIcLm52EEEN4Pika8STLValueIS3_EEEC2B8ue170006IKS3_S6_EERKNS0_IT_T0_EE, symObjAddr: 0x21DC0, symBinAddr: 0x1000263CC, symSize: 0x70 }
  - { offsetInCU: 0x3611A, offset: 0x3611A, size: 0x8, addend: 0x0, symName: __ZNSt3__121__tree_const_iteratorINS_12__value_typeIKN8QStrings7QStringIcLm52EEEN4Pika8STLValueIS4_EEEEPNS_11__tree_nodeIS9_PvEElEppB8ue170006Ev, symObjAddr: 0x21E30, symBinAddr: 0x10002643C, symSize: 0x38 }
  - { offsetInCU: 0x36140, offset: 0x36140, size: 0x8, addend: 0x0, symName: __ZNK8QStrings7QStringIcLm52EE5emptyEv, symObjAddr: 0x21E68, symBinAddr: 0x100026474, symSize: 0x24 }
  - { offsetInCU: 0x36168, offset: 0x36168, size: 0x8, addend: 0x0, symName: __ZN4Pika9QuickVarsINS_6ScriptI19QuickerScriptConfigE12STLVariablesELj11EE4hashERKN8QStrings7QStringIcLm52EEE, symObjAddr: 0x21E8C, symBinAddr: 0x100026498, symSize: 0x200 }
  - { offsetInCU: 0x361AC, offset: 0x361AC, size: 0x8, addend: 0x0, symName: __ZNSt3__14pairIN8QStrings7QStringIcLm52EEEN4Pika8STLValueIS3_EEEC1B8ue170006ERKS3_RKS6_, symObjAddr: 0x2208C, symBinAddr: 0x100026698, symSize: 0x3C }
  - { offsetInCU: 0x361F2, offset: 0x361F2, size: 0x8, addend: 0x0, symName: __ZNSt3__14pairIN8QStrings7QStringIcLm52EEEN4Pika8STLValueIS3_EEEaSB8ue170006ERKS7_, symObjAddr: 0x220C8, symBinAddr: 0x1000266D4, symSize: 0x48 }
  - { offsetInCU: 0x36226, offset: 0x36226, size: 0x8, addend: 0x0, symName: __ZNSt3__14pairIN8QStrings7QStringIcLm52EEEN4Pika8STLValueIS3_EEEC2B8ue170006ERKS3_RKS6_, symObjAddr: 0x22110, symBinAddr: 0x10002671C, symSize: 0x70 }
  - { offsetInCU: 0x3626C, offset: 0x3626C, size: 0x8, addend: 0x0, symName: __ZNSt3__14pairIKN8QStrings7QStringIcLm52EEEN4Pika8STLValueIS3_EEEC1B8ue170006Ev, symObjAddr: 0x22180, symBinAddr: 0x10002678C, symSize: 0x2C }
  - { offsetInCU: 0x36296, offset: 0x36296, size: 0x8, addend: 0x0, symName: __ZNSt3__14pairIN8QStrings7QStringIcLm52EEEN4Pika8STLValueIS3_EEEaSB8ue170006IKS3_S6_vEERS7_RKNS0_IT_T0_EE, symObjAddr: 0x221AC, symBinAddr: 0x1000267B8, symSize: 0x48 }
  - { offsetInCU: 0x362DD, offset: 0x362DD, size: 0x8, addend: 0x0, symName: __ZNSt3__14pairIKN8QStrings7QStringIcLm52EEEN4Pika8STLValueIS3_EEEC2B8ue170006Ev, symObjAddr: 0x221F4, symBinAddr: 0x100026800, symSize: 0x60 }
  - { offsetInCU: 0x36307, offset: 0x36307, size: 0x8, addend: 0x0, symName: __ZNSt3__13mapIKN8QStrings7QStringIcLm52EEEPN4Pika6ScriptI19QuickerScriptConfigE6NativeENS_4lessIS4_EENS_9allocatorINS_4pairIS4_SA_EEEEE4findB8ue170006ERS4_, symObjAddr: 0x22254, symBinAddr: 0x100026860, symSize: 0x40 }
  - { offsetInCU: 0x3633C, offset: 0x3633C, size: 0x8, addend: 0x0, symName: __ZNSt3__16__treeINS_12__value_typeIKN8QStrings7QStringIcLm52EEEPN4Pika6ScriptI19QuickerScriptConfigE6NativeEEENS_19__map_value_compareIS5_SC_NS_4lessIS5_EELb1EEENS_9allocatorISC_EEE4findIS4_EENS_15__tree_iteratorISC_PNS_11__tree_nodeISC_PvEElEERKT_, symObjAddr: 0x222C4, symBinAddr: 0x1000268D0, symSize: 0xF8 }
  - { offsetInCU: 0x3638B, offset: 0x3638B, size: 0x8, addend: 0x0, symName: __ZNSt3__16__treeINS_12__value_typeIKN8QStrings7QStringIcLm52EEEPN4Pika6ScriptI19QuickerScriptConfigE6NativeEEENS_19__map_value_compareIS5_SC_NS_4lessIS5_EELb1EEENS_9allocatorISC_EEE13__lower_boundIS4_EENS_15__tree_iteratorISC_PNS_11__tree_nodeISC_PvEElEERKT_SP_PNS_15__tree_end_nodeIPNS_16__tree_node_baseISN_EEEE, symObjAddr: 0x223BC, symBinAddr: 0x1000269C8, symSize: 0xA4 }
  - { offsetInCU: 0x363E9, offset: 0x363E9, size: 0x8, addend: 0x0, symName: __ZNSt3__16__treeINS_12__value_typeIKN8QStrings7QStringIcLm52EEEPN4Pika6ScriptI19QuickerScriptConfigE6NativeEEENS_19__map_value_compareIS5_SC_NS_4lessIS5_EELb1EEENS_9allocatorISC_EEE10value_compB8ue170006Ev, symObjAddr: 0x22460, symBinAddr: 0x100026A6C, symSize: 0x28 }
  - { offsetInCU: 0x3640F, offset: 0x3640F, size: 0x8, addend: 0x0, symName: __ZNKSt3__119__map_value_compareIKN8QStrings7QStringIcLm52EEENS_12__value_typeIS4_PN4Pika6ScriptI19QuickerScriptConfigE6NativeEEENS_4lessIS4_EELb1EEclB8ue170006ERS4_RKSC_, symObjAddr: 0x22488, symBinAddr: 0x100026A94, symSize: 0x50 }
  - { offsetInCU: 0x36453, offset: 0x36453, size: 0x8, addend: 0x0, symName: __ZNKSt3__115__tree_iteratorINS_12__value_typeIKN8QStrings7QStringIcLm52EEEPN4Pika6ScriptI19QuickerScriptConfigE6NativeEEEPNS_11__tree_nodeISC_PvEElEdeB8ue170006Ev, symObjAddr: 0x224D8, symBinAddr: 0x100026AE4, symSize: 0x28 }
  - { offsetInCU: 0x36479, offset: 0x36479, size: 0x8, addend: 0x0, symName: __ZNKSt3__119__map_value_compareIKN8QStrings7QStringIcLm52EEENS_12__value_typeIS4_PN4Pika6ScriptI19QuickerScriptConfigE6NativeEEENS_4lessIS4_EELb1EEclB8ue170006ERKSC_RS4_, symObjAddr: 0x22500, symBinAddr: 0x100026B0C, symSize: 0x48 }
  - { offsetInCU: 0x364BD, offset: 0x364BD, size: 0x8, addend: 0x0, symName: __ZNKSt3__112__value_typeIKN8QStrings7QStringIcLm52EEEPN4Pika6ScriptI19QuickerScriptConfigE6NativeEE11__get_valueB8ue170006Ev, symObjAddr: 0x22548, symBinAddr: 0x100026B54, symSize: 0x14 }
  - { offsetInCU: 0x364E3, offset: 0x364E3, size: 0x8, addend: 0x0, symName: __ZNSt3__117__compressed_pairImNS_19__map_value_compareIKN8QStrings7QStringIcLm52EEENS_12__value_typeIS5_PN4Pika6ScriptI19QuickerScriptConfigE6NativeEEENS_4lessIS5_EELb1EEEE6secondB8ue170006Ev, symObjAddr: 0x2255C, symBinAddr: 0x100026B68, symSize: 0x24 }
  - { offsetInCU: 0x36509, offset: 0x36509, size: 0x8, addend: 0x0, symName: __ZNSt3__122__compressed_pair_elemINS_19__map_value_compareIKN8QStrings7QStringIcLm52EEENS_12__value_typeIS5_PN4Pika6ScriptI19QuickerScriptConfigE6NativeEEENS_4lessIS5_EELb1EEELi1ELb1EE5__getB8ue170006Ev, symObjAddr: 0x22580, symBinAddr: 0x100026B8C, symSize: 0x14 }
  - { offsetInCU: 0x3652F, offset: 0x3652F, size: 0x8, addend: 0x0, symName: __ZNSt3__13mapIKN8QStrings7QStringIcLm52EEEPN4Pika6ScriptI19QuickerScriptConfigE6NativeENS_4lessIS4_EENS_9allocatorINS_4pairIS4_SA_EEEEE6insertB8ue170006ERKSF_, symObjAddr: 0x22594, symBinAddr: 0x100026BA0, symSize: 0x4C }
  - { offsetInCU: 0x36564, offset: 0x36564, size: 0x8, addend: 0x0, symName: __ZNSt3__14pairIKN8QStrings7QStringIcLm52EEEPN4Pika6ScriptI19QuickerScriptConfigE6NativeEEC1B8ue170006ERS4_RKSA_, symObjAddr: 0x225E0, symBinAddr: 0x100026BEC, symSize: 0x3C }
  - { offsetInCU: 0x365AA, offset: 0x365AA, size: 0x8, addend: 0x0, symName: __ZNSt3__16__treeINS_12__value_typeIKN8QStrings7QStringIcLm52EEEPN4Pika6ScriptI19QuickerScriptConfigE6NativeEEENS_19__map_value_compareIS5_SC_NS_4lessIS5_EELb1EEENS_9allocatorISC_EEE15__insert_uniqueB8ue170006ERKNS_4pairIS5_SB_EE, symObjAddr: 0x2261C, symBinAddr: 0x100026C28, symSize: 0x50 }
  - { offsetInCU: 0x365DF, offset: 0x365DF, size: 0x8, addend: 0x0, symName: __ZNSt3__14pairINS_14__map_iteratorINS_15__tree_iteratorINS_12__value_typeIKN8QStrings7QStringIcLm52EEEPN4Pika6ScriptI19QuickerScriptConfigE6NativeEEEPNS_11__tree_nodeISE_PvEElEEEEbEC1B8ue170006ISJ_bEERKNS0_IT_T0_EE, symObjAddr: 0x2266C, symBinAddr: 0x100026C78, symSize: 0x34 }
  - { offsetInCU: 0x36629, offset: 0x36629, size: 0x8, addend: 0x0, symName: __ZNSt3__16__treeINS_12__value_typeIKN8QStrings7QStringIcLm52EEEPN4Pika6ScriptI19QuickerScriptConfigE6NativeEEENS_19__map_value_compareIS5_SC_NS_4lessIS5_EELb1EEENS_9allocatorISC_EEE25__emplace_unique_key_argsIS4_JRKNS_4pairIS5_SB_EEEEENSL_INS_15__tree_iteratorISC_PNS_11__tree_nodeISC_PvEElEEbEERKT_DpOT0_, symObjAddr: 0x226A0, symBinAddr: 0x100026CAC, symSize: 0xF0 }
  - { offsetInCU: 0x366D5, offset: 0x366D5, size: 0x8, addend: 0x0, symName: __ZNSt3__122__tree_key_value_typesINS_12__value_typeIKN8QStrings7QStringIcLm52EEEPN4Pika6ScriptI19QuickerScriptConfigE6NativeEEEE9__get_keyB8ue170006IKNS_4pairIS5_SB_EEEENS_9enable_ifIXsr17__is_same_uncvrefIT_SG_EE5valueERS5_E4typeERSJ_, symObjAddr: 0x22790, symBinAddr: 0x100026D9C, symSize: 0x14 }
  - { offsetInCU: 0x36702, offset: 0x36702, size: 0x8, addend: 0x0, symName: __ZNSt3__16__treeINS_12__value_typeIKN8QStrings7QStringIcLm52EEEPN4Pika6ScriptI19QuickerScriptConfigE6NativeEEENS_19__map_value_compareIS5_SC_NS_4lessIS5_EELb1EEENS_9allocatorISC_EEE12__find_equalIS4_EERPNS_16__tree_node_baseIPvEERPNS_15__tree_end_nodeISO_EERKT_, symObjAddr: 0x227A4, symBinAddr: 0x100026DB0, symSize: 0x184 }
  - { offsetInCU: 0x3676F, offset: 0x3676F, size: 0x8, addend: 0x0, symName: __ZNSt3__16__treeINS_12__value_typeIKN8QStrings7QStringIcLm52EEEPN4Pika6ScriptI19QuickerScriptConfigE6NativeEEENS_19__map_value_compareIS5_SC_NS_4lessIS5_EELb1EEENS_9allocatorISC_EEE16__construct_nodeIJRKNS_4pairIS5_SB_EEEEENS_10unique_ptrINS_11__tree_nodeISC_PvEENS_22__tree_node_destructorINSH_ISS_EEEEEEDpOT_, symObjAddr: 0x22928, symBinAddr: 0x100026F34, symSize: 0x110 }
  - { offsetInCU: 0x367D0, offset: 0x367D0, size: 0x8, addend: 0x0, symName: __ZNSt3__16__treeINS_12__value_typeIKN8QStrings7QStringIcLm52EEEPN4Pika6ScriptI19QuickerScriptConfigE6NativeEEENS_19__map_value_compareIS5_SC_NS_4lessIS5_EELb1EEENS_9allocatorISC_EEE16__insert_node_atEPNS_15__tree_end_nodeIPNS_16__tree_node_baseIPvEEEERSO_SO_, symObjAddr: 0x22A38, symBinAddr: 0x100027044, symSize: 0xCC }
  - { offsetInCU: 0x36825, offset: 0x36825, size: 0x8, addend: 0x0, symName: __ZNKSt3__110unique_ptrINS_11__tree_nodeINS_12__value_typeIKN8QStrings7QStringIcLm52EEEPN4Pika6ScriptI19QuickerScriptConfigE6NativeEEEPvEENS_22__tree_node_destructorINS_9allocatorISF_EEEEE3getB8ue170006Ev, symObjAddr: 0x22B04, symBinAddr: 0x100027110, symSize: 0x28 }
  - { offsetInCU: 0x3684B, offset: 0x3684B, size: 0x8, addend: 0x0, symName: __ZNSt3__110unique_ptrINS_11__tree_nodeINS_12__value_typeIKN8QStrings7QStringIcLm52EEEPN4Pika6ScriptI19QuickerScriptConfigE6NativeEEEPvEENS_22__tree_node_destructorINS_9allocatorISF_EEEEE7releaseB8ue170006Ev, symObjAddr: 0x22B2C, symBinAddr: 0x100027138, symSize: 0x44 }
  - { offsetInCU: 0x36880, offset: 0x36880, size: 0x8, addend: 0x0, symName: __ZNSt3__110unique_ptrINS_11__tree_nodeINS_12__value_typeIKN8QStrings7QStringIcLm52EEEPN4Pika6ScriptI19QuickerScriptConfigE6NativeEEEPvEENS_22__tree_node_destructorINS_9allocatorISF_EEEEED1B8ue170006Ev, symObjAddr: 0x22B70, symBinAddr: 0x10002717C, symSize: 0x2C }
  - { offsetInCU: 0x368AA, offset: 0x368AA, size: 0x8, addend: 0x0, symName: __ZNSt3__115__tree_iteratorINS_12__value_typeIKN8QStrings7QStringIcLm52EEEPN4Pika6ScriptI19QuickerScriptConfigE6NativeEEEPNS_11__tree_nodeISC_PvEElEC1B8ue170006ESG_, symObjAddr: 0x22B9C, symBinAddr: 0x1000271A8, symSize: 0x34 }
  - { offsetInCU: 0x368E3, offset: 0x368E3, size: 0x8, addend: 0x0, symName: __ZNSt3__14pairINS_15__tree_iteratorINS_12__value_typeIKN8QStrings7QStringIcLm52EEEPN4Pika6ScriptI19QuickerScriptConfigE6NativeEEEPNS_11__tree_nodeISD_PvEElEEbEC1B8ue170006ERKSI_RKb, symObjAddr: 0x22BD0, symBinAddr: 0x1000271DC, symSize: 0x3C }
  - { offsetInCU: 0x36929, offset: 0x36929, size: 0x8, addend: 0x0, symName: __ZNKSt3__16__treeINS_12__value_typeIKN8QStrings7QStringIcLm52EEEPN4Pika6ScriptI19QuickerScriptConfigE6NativeEEENS_19__map_value_compareIS5_SC_NS_4lessIS5_EELb1EEENS_9allocatorISC_EEE10__root_ptrB8ue170006Ev, symObjAddr: 0x22C0C, symBinAddr: 0x100027218, symSize: 0x24 }
  - { offsetInCU: 0x3694F, offset: 0x3694F, size: 0x8, addend: 0x0, symName: __ZNSt3__116allocator_traitsINS_9allocatorINS_11__tree_nodeINS_12__value_typeIKN8QStrings7QStringIcLm52EEEPN4Pika6ScriptI19QuickerScriptConfigE6NativeEEEPvEEEEE8allocateB8ue170006ERSH_m, symObjAddr: 0x22C30, symBinAddr: 0x10002723C, symSize: 0x2C }
  - { offsetInCU: 0x36982, offset: 0x36982, size: 0x8, addend: 0x0, symName: __ZNSt3__122__tree_node_destructorINS_9allocatorINS_11__tree_nodeINS_12__value_typeIKN8QStrings7QStringIcLm52EEEPN4Pika6ScriptI19QuickerScriptConfigE6NativeEEEPvEEEEEC1B8ue170006ERSH_b, symObjAddr: 0x22C5C, symBinAddr: 0x100027268, symSize: 0x48 }
  - { offsetInCU: 0x369CF, offset: 0x369CF, size: 0x8, addend: 0x0, symName: __ZNSt3__110unique_ptrINS_11__tree_nodeINS_12__value_typeIKN8QStrings7QStringIcLm52EEEPN4Pika6ScriptI19QuickerScriptConfigE6NativeEEEPvEENS_22__tree_node_destructorINS_9allocatorISF_EEEEEC1B8ue170006ILb1EvEEPSF_NS_16__dependent_typeINS_27__unique_ptr_deleter_sfinaeISJ_EEXT_EE20__good_rval_ref_typeE, symObjAddr: 0x22CA4, symBinAddr: 0x1000272B0, symSize: 0x3C }
  - { offsetInCU: 0x36A20, offset: 0x36A20, size: 0x8, addend: 0x0, symName: __ZNSt3__116allocator_traitsINS_9allocatorINS_11__tree_nodeINS_12__value_typeIKN8QStrings7QStringIcLm52EEEPN4Pika6ScriptI19QuickerScriptConfigE6NativeEEEPvEEEEE9constructB8ue170006INS_4pairIS7_SD_EEJRKSL_EvEEvRSH_PT_DpOT0_, symObjAddr: 0x22CE0, symBinAddr: 0x1000272EC, symSize: 0x34 }
  - { offsetInCU: 0x36A77, offset: 0x36A77, size: 0x8, addend: 0x0, symName: __ZNKSt3__110unique_ptrINS_11__tree_nodeINS_12__value_typeIKN8QStrings7QStringIcLm52EEEPN4Pika6ScriptI19QuickerScriptConfigE6NativeEEEPvEENS_22__tree_node_destructorINS_9allocatorISF_EEEEEptB8ue170006Ev, symObjAddr: 0x22D14, symBinAddr: 0x100027320, symSize: 0x28 }
  - { offsetInCU: 0x36A9D, offset: 0x36A9D, size: 0x8, addend: 0x0, symName: __ZNSt3__110unique_ptrINS_11__tree_nodeINS_12__value_typeIKN8QStrings7QStringIcLm52EEEPN4Pika6ScriptI19QuickerScriptConfigE6NativeEEEPvEENS_22__tree_node_destructorINS_9allocatorISF_EEEEE11get_deleterB8ue170006Ev, symObjAddr: 0x22D3C, symBinAddr: 0x100027348, symSize: 0x24 }
  - { offsetInCU: 0x36AC3, offset: 0x36AC3, size: 0x8, addend: 0x0, symName: __ZNSt3__19allocatorINS_11__tree_nodeINS_12__value_typeIKN8QStrings7QStringIcLm52EEEPN4Pika6ScriptI19QuickerScriptConfigE6NativeEEEPvEEE8allocateB8ue170006Em, symObjAddr: 0x22D60, symBinAddr: 0x10002736C, symSize: 0x84 }
  - { offsetInCU: 0x36B01, offset: 0x36B01, size: 0x8, addend: 0x0, symName: __ZNSt3__116allocator_traitsINS_9allocatorINS_11__tree_nodeINS_12__value_typeIKN8QStrings7QStringIcLm52EEEPN4Pika6ScriptI19QuickerScriptConfigE6NativeEEEPvEEEEE8max_sizeB8ue170006ISH_vEEmRKSH_, symObjAddr: 0x22DE4, symBinAddr: 0x1000273F0, symSize: 0x24 }
  - { offsetInCU: 0x36B2F, offset: 0x36B2F, size: 0x8, addend: 0x0, symName: __ZNKSt3__19allocatorINS_11__tree_nodeINS_12__value_typeIKN8QStrings7QStringIcLm52EEEPN4Pika6ScriptI19QuickerScriptConfigE6NativeEEEPvEEE8max_sizeB8ue170006Ev, symObjAddr: 0x22E08, symBinAddr: 0x100027414, symSize: 0x14 }
  - { offsetInCU: 0x36B55, offset: 0x36B55, size: 0x8, addend: 0x0, symName: __ZNSt3__122__tree_node_destructorINS_9allocatorINS_11__tree_nodeINS_12__value_typeIKN8QStrings7QStringIcLm52EEEPN4Pika6ScriptI19QuickerScriptConfigE6NativeEEEPvEEEEEC2B8ue170006ERSH_b, symObjAddr: 0x22E1C, symBinAddr: 0x100027428, symSize: 0x38 }
  - { offsetInCU: 0x36B9D, offset: 0x36B9D, size: 0x8, addend: 0x0, symName: __ZNSt3__110unique_ptrINS_11__tree_nodeINS_12__value_typeIKN8QStrings7QStringIcLm52EEEPN4Pika6ScriptI19QuickerScriptConfigE6NativeEEEPvEENS_22__tree_node_destructorINS_9allocatorISF_EEEEEC2B8ue170006ILb1EvEEPSF_NS_16__dependent_typeINS_27__unique_ptr_deleter_sfinaeISJ_EEXT_EE20__good_rval_ref_typeE, symObjAddr: 0x22E54, symBinAddr: 0x100027460, symSize: 0x5C }
  - { offsetInCU: 0x36BEE, offset: 0x36BEE, size: 0x8, addend: 0x0, symName: __ZNSt3__117__compressed_pairIPNS_11__tree_nodeINS_12__value_typeIKN8QStrings7QStringIcLm52EEEPN4Pika6ScriptI19QuickerScriptConfigE6NativeEEEPvEENS_22__tree_node_destructorINS_9allocatorISF_EEEEEC1B8ue170006IRSG_SK_EEOT_OT0_, symObjAddr: 0x22EB0, symBinAddr: 0x1000274BC, symSize: 0x3C }
  - { offsetInCU: 0x36C46, offset: 0x36C46, size: 0x8, addend: 0x0, symName: __ZNSt3__117__compressed_pairIPNS_11__tree_nodeINS_12__value_typeIKN8QStrings7QStringIcLm52EEEPN4Pika6ScriptI19QuickerScriptConfigE6NativeEEEPvEENS_22__tree_node_destructorINS_9allocatorISF_EEEEEC2B8ue170006IRSG_SK_EEOT_OT0_, symObjAddr: 0x22EEC, symBinAddr: 0x1000274F8, symSize: 0x48 }
  - { offsetInCU: 0x36C9E, offset: 0x36C9E, size: 0x8, addend: 0x0, symName: __ZNSt3__122__compressed_pair_elemIPNS_11__tree_nodeINS_12__value_typeIKN8QStrings7QStringIcLm52EEEPN4Pika6ScriptI19QuickerScriptConfigE6NativeEEEPvEELi0ELb0EEC2B8ue170006IRSG_vEEOT_, symObjAddr: 0x22F34, symBinAddr: 0x100027540, symSize: 0x24 }
  - { offsetInCU: 0x36CE0, offset: 0x36CE0, size: 0x8, addend: 0x0, symName: __ZNSt3__122__compressed_pair_elemINS_22__tree_node_destructorINS_9allocatorINS_11__tree_nodeINS_12__value_typeIKN8QStrings7QStringIcLm52EEEPN4Pika6ScriptI19QuickerScriptConfigE6NativeEEEPvEEEEEELi1ELb0EEC2B8ue170006ISJ_vEEOT_, symObjAddr: 0x22F58, symBinAddr: 0x100027564, symSize: 0x24 }
  - { offsetInCU: 0x36D22, offset: 0x36D22, size: 0x8, addend: 0x0, symName: __ZNSt3__19allocatorINS_11__tree_nodeINS_12__value_typeIKN8QStrings7QStringIcLm52EEEPN4Pika6ScriptI19QuickerScriptConfigE6NativeEEEPvEEE9constructB8ue170006INS_4pairIS6_SC_EEJRKSJ_EEEvPT_DpOT0_, symObjAddr: 0x22F7C, symBinAddr: 0x100027588, symSize: 0x30 }
  - { offsetInCU: 0x36D78, offset: 0x36D78, size: 0x8, addend: 0x0, symName: __ZNSt3__14pairIKN8QStrings7QStringIcLm52EEEPN4Pika6ScriptI19QuickerScriptConfigE6NativeEEC1B8ue170006ERKSB_, symObjAddr: 0x22FAC, symBinAddr: 0x1000275B8, symSize: 0x34 }
  - { offsetInCU: 0x36DAC, offset: 0x36DAC, size: 0x8, addend: 0x0, symName: __ZNSt3__14pairIKN8QStrings7QStringIcLm52EEEPN4Pika6ScriptI19QuickerScriptConfigE6NativeEEC2B8ue170006ERKSB_, symObjAddr: 0x22FE0, symBinAddr: 0x1000275EC, symSize: 0x40 }
  - { offsetInCU: 0x36DE0, offset: 0x36DE0, size: 0x8, addend: 0x0, symName: __ZNKSt3__117__compressed_pairIPNS_11__tree_nodeINS_12__value_typeIKN8QStrings7QStringIcLm52EEEPN4Pika6ScriptI19QuickerScriptConfigE6NativeEEEPvEENS_22__tree_node_destructorINS_9allocatorISF_EEEEE5firstB8ue170006Ev, symObjAddr: 0x23020, symBinAddr: 0x10002762C, symSize: 0x24 }
  - { offsetInCU: 0x36E06, offset: 0x36E06, size: 0x8, addend: 0x0, symName: __ZNKSt3__122__compressed_pair_elemIPNS_11__tree_nodeINS_12__value_typeIKN8QStrings7QStringIcLm52EEEPN4Pika6ScriptI19QuickerScriptConfigE6NativeEEEPvEELi0ELb0EE5__getB8ue170006Ev, symObjAddr: 0x23044, symBinAddr: 0x100027650, symSize: 0x14 }
  - { offsetInCU: 0x36E2C, offset: 0x36E2C, size: 0x8, addend: 0x0, symName: __ZNSt3__117__compressed_pairIPNS_11__tree_nodeINS_12__value_typeIKN8QStrings7QStringIcLm52EEEPN4Pika6ScriptI19QuickerScriptConfigE6NativeEEEPvEENS_22__tree_node_destructorINS_9allocatorISF_EEEEE6secondB8ue170006Ev, symObjAddr: 0x23058, symBinAddr: 0x100027664, symSize: 0x28 }
  - { offsetInCU: 0x36E52, offset: 0x36E52, size: 0x8, addend: 0x0, symName: __ZNSt3__122__compressed_pair_elemINS_22__tree_node_destructorINS_9allocatorINS_11__tree_nodeINS_12__value_typeIKN8QStrings7QStringIcLm52EEEPN4Pika6ScriptI19QuickerScriptConfigE6NativeEEEPvEEEEEELi1ELb0EE5__getB8ue170006Ev, symObjAddr: 0x23080, symBinAddr: 0x10002768C, symSize: 0x14 }
  - { offsetInCU: 0x36E78, offset: 0x36E78, size: 0x8, addend: 0x0, symName: __ZNSt3__16__treeINS_12__value_typeIKN8QStrings7QStringIcLm52EEEPN4Pika6ScriptI19QuickerScriptConfigE6NativeEEENS_19__map_value_compareIS5_SC_NS_4lessIS5_EELb1EEENS_9allocatorISC_EEE4sizeB8ue170006Ev, symObjAddr: 0x23094, symBinAddr: 0x1000276A0, symSize: 0x28 }
  - { offsetInCU: 0x36E9E, offset: 0x36E9E, size: 0x8, addend: 0x0, symName: __ZNSt3__117__compressed_pairImNS_19__map_value_compareIKN8QStrings7QStringIcLm52EEENS_12__value_typeIS5_PN4Pika6ScriptI19QuickerScriptConfigE6NativeEEENS_4lessIS5_EELb1EEEE5firstB8ue170006Ev, symObjAddr: 0x230BC, symBinAddr: 0x1000276C8, symSize: 0x24 }
  - { offsetInCU: 0x36EC4, offset: 0x36EC4, size: 0x8, addend: 0x0, symName: __ZNSt3__117__compressed_pairIPNS_11__tree_nodeINS_12__value_typeIKN8QStrings7QStringIcLm52EEEPN4Pika6ScriptI19QuickerScriptConfigE6NativeEEEPvEENS_22__tree_node_destructorINS_9allocatorISF_EEEEE5firstB8ue170006Ev, symObjAddr: 0x230E0, symBinAddr: 0x1000276EC, symSize: 0x24 }
  - { offsetInCU: 0x36EEA, offset: 0x36EEA, size: 0x8, addend: 0x0, symName: __ZNSt3__122__compressed_pair_elemIPNS_11__tree_nodeINS_12__value_typeIKN8QStrings7QStringIcLm52EEEPN4Pika6ScriptI19QuickerScriptConfigE6NativeEEEPvEELi0ELb0EE5__getB8ue170006Ev, symObjAddr: 0x23104, symBinAddr: 0x100027710, symSize: 0x14 }
  - { offsetInCU: 0x36F10, offset: 0x36F10, size: 0x8, addend: 0x0, symName: __ZNSt3__110unique_ptrINS_11__tree_nodeINS_12__value_typeIKN8QStrings7QStringIcLm52EEEPN4Pika6ScriptI19QuickerScriptConfigE6NativeEEEPvEENS_22__tree_node_destructorINS_9allocatorISF_EEEEED2B8ue170006Ev, symObjAddr: 0x23118, symBinAddr: 0x100027724, symSize: 0x30 }
  - { offsetInCU: 0x36F3A, offset: 0x36F3A, size: 0x8, addend: 0x0, symName: __ZNSt3__110unique_ptrINS_11__tree_nodeINS_12__value_typeIKN8QStrings7QStringIcLm52EEEPN4Pika6ScriptI19QuickerScriptConfigE6NativeEEEPvEENS_22__tree_node_destructorINS_9allocatorISF_EEEEE5resetB8ue170006EPSF_, symObjAddr: 0x23148, symBinAddr: 0x100027754, symSize: 0x78 }
  - { offsetInCU: 0x36F7E, offset: 0x36F7E, size: 0x8, addend: 0x0, symName: __ZNSt3__122__tree_node_destructorINS_9allocatorINS_11__tree_nodeINS_12__value_typeIKN8QStrings7QStringIcLm52EEEPN4Pika6ScriptI19QuickerScriptConfigE6NativeEEEPvEEEEEclB8ue170006EPSG_, symObjAddr: 0x231C0, symBinAddr: 0x1000277CC, symSize: 0x88 }
  - { offsetInCU: 0x36FB3, offset: 0x36FB3, size: 0x8, addend: 0x0, symName: __ZNSt3__115__tree_iteratorINS_12__value_typeIKN8QStrings7QStringIcLm52EEEPN4Pika6ScriptI19QuickerScriptConfigE6NativeEEEPNS_11__tree_nodeISC_PvEElEC2B8ue170006ESG_, symObjAddr: 0x23248, symBinAddr: 0x100027854, symSize: 0x20 }
  - { offsetInCU: 0x36FEC, offset: 0x36FEC, size: 0x8, addend: 0x0, symName: __ZNSt3__14pairINS_15__tree_iteratorINS_12__value_typeIKN8QStrings7QStringIcLm52EEEPN4Pika6ScriptI19QuickerScriptConfigE6NativeEEEPNS_11__tree_nodeISD_PvEElEEbEC2B8ue170006ERKSI_RKb, symObjAddr: 0x23268, symBinAddr: 0x100027874, symSize: 0x38 }
  - { offsetInCU: 0x37032, offset: 0x37032, size: 0x8, addend: 0x0, symName: __ZNSt3__14pairINS_14__map_iteratorINS_15__tree_iteratorINS_12__value_typeIKN8QStrings7QStringIcLm52EEEPN4Pika6ScriptI19QuickerScriptConfigE6NativeEEEPNS_11__tree_nodeISE_PvEElEEEEbEC2B8ue170006ISJ_bEERKNS0_IT_T0_EE, symObjAddr: 0x232A0, symBinAddr: 0x1000278AC, symSize: 0x50 }
  - { offsetInCU: 0x3707C, offset: 0x3707C, size: 0x8, addend: 0x0, symName: __ZNSt3__14pairIKN8QStrings7QStringIcLm52EEEPN4Pika6ScriptI19QuickerScriptConfigE6NativeEEC2B8ue170006ERS4_RKSA_, symObjAddr: 0x232F0, symBinAddr: 0x1000278FC, symSize: 0x44 }
  - { offsetInCU: 0x370C2, offset: 0x370C2, size: 0x8, addend: 0x0, symName: __ZN4Pika6ScriptI19QuickerScriptConfigE5FrameD2Ev, symObjAddr: 0x23334, symBinAddr: 0x100027940, symSize: 0x40 }
  - { offsetInCU: 0x370EC, offset: 0x370EC, size: 0x8, addend: 0x0, symName: __ZN4Pika6ScriptI19QuickerScriptConfigE4RootD1Ev, symObjAddr: 0x23374, symBinAddr: 0x100027980, symSize: 0x2C }
  - { offsetInCU: 0x37119, offset: 0x37119, size: 0x8, addend: 0x0, symName: __ZN4Pika6ScriptI19QuickerScriptConfigE4RootD0Ev, symObjAddr: 0x233A0, symBinAddr: 0x1000279AC, symSize: 0x58 }
  - { offsetInCU: 0x37146, offset: 0x37146, size: 0x8, addend: 0x0, symName: __ZN4Pika6ScriptI19QuickerScriptConfigE4Root5traceERNS2_5FrameERKN8QStrings7QStringIcLm52EEEmbRKNS_8STLValueIS8_EENS_10PrecedenceEb, symObjAddr: 0x233F8, symBinAddr: 0x100027A04, symSize: 0x324 }
  - { offsetInCU: 0x371F5, offset: 0x371F5, size: 0x8, addend: 0x0, symName: __ZN4Pika6ScriptI19QuickerScriptConfigE4Root9setTracerENS_10PrecedenceERKNS_8STLValueIN8QStrings7QStringIcLm52EEEEE, symObjAddr: 0x2371C, symBinAddr: 0x100027D28, symSize: 0x58 }
  - { offsetInCU: 0x3723B, offset: 0x3723B, size: 0x8, addend: 0x0, symName: __ZN4Pika6ScriptI19QuickerScriptConfigE5FrameD1Ev, symObjAddr: 0x23774, symBinAddr: 0x100027D80, symSize: 0x2C }
  - { offsetInCU: 0x37265, offset: 0x37265, size: 0x8, addend: 0x0, symName: __ZN4Pika6ScriptI19QuickerScriptConfigE5FrameD0Ev, symObjAddr: 0x237A0, symBinAddr: 0x100027DAC, symSize: 0x30 }
  - { offsetInCU: 0x3728F, offset: 0x3728F, size: 0x8, addend: 0x0, symName: __ZNK4Pika8STLValueIN8QStrings7QStringIcLm52EEEE6isVoidEv, symObjAddr: 0x237D0, symBinAddr: 0x100027DDC, symSize: 0x28 }
  - { offsetInCU: 0x372B5, offset: 0x372B5, size: 0x8, addend: 0x0, symName: __ZN4Pika8STLValueIN8QStrings7QStringIcLm52EEEEC1Em, symObjAddr: 0x237F8, symBinAddr: 0x100027E04, symSize: 0x34 }
  - { offsetInCU: 0x372ED, offset: 0x372ED, size: 0x8, addend: 0x0, symName: __ZN4Pika8STLValueIN8QStrings7QStringIcLm52EEEEC1Eb, symObjAddr: 0x2382C, symBinAddr: 0x100027E38, symSize: 0x40 }
  - { offsetInCU: 0x37325, offset: 0x37325, size: 0x8, addend: 0x0, symName: __ZN4Pika8STLValueIN8QStrings7QStringIcLm52EEEEC2Em, symObjAddr: 0x2386C, symBinAddr: 0x100027E78, symSize: 0x58 }
  - { offsetInCU: 0x3735D, offset: 0x3735D, size: 0x8, addend: 0x0, symName: __ZN4Pika8STLValueIN8QStrings7QStringIcLm52EEEEC2Eb, symObjAddr: 0x23B08, symBinAddr: 0x100028114, symSize: 0x84 }
  - { offsetInCU: 0x37395, offset: 0x37395, size: 0x8, addend: 0x0, symName: __ZN4Pika6ScriptINS_9StdConfigEE8FullRootD2Ev, symObjAddr: 0x23B8C, symBinAddr: 0x100028198, symSize: 0x68 }
  - { offsetInCU: 0x373C2, offset: 0x373C2, size: 0x8, addend: 0x0, symName: __ZNSt3__112basic_stringIcNS_11char_traitsIcEENS_9allocatorIcEEEC2B8ue170006ILi0EEEPKc, symObjAddr: 0x23BF4, symBinAddr: 0x100028200, symSize: 0x58 }
  - { offsetInCU: 0x37406, offset: 0x37406, size: 0x8, addend: 0x0, symName: __ZNSt3__117__compressed_pairINS_12basic_stringIcNS_11char_traitsIcEENS_9allocatorIcEEE5__repES5_EC1B8ue170006INS_18__default_init_tagESA_EEOT_OT0_, symObjAddr: 0x23C4C, symBinAddr: 0x100028258, symSize: 0x3C }
  - { offsetInCU: 0x3745E, offset: 0x3745E, size: 0x8, addend: 0x0, symName: __ZNSt3__111char_traitsIcE6lengthB8ue170006EPKc, symObjAddr: 0x23C88, symBinAddr: 0x100028294, symSize: 0x48 }
  - { offsetInCU: 0x37481, offset: 0x37481, size: 0x8, addend: 0x0, symName: __ZNSt3__117__compressed_pairINS_12basic_stringIcNS_11char_traitsIcEENS_9allocatorIcEEE5__repES5_EC2B8ue170006INS_18__default_init_tagESA_EEOT_OT0_, symObjAddr: 0x23CD0, symBinAddr: 0x1000282DC, symSize: 0x3C }
  - { offsetInCU: 0x374D9, offset: 0x374D9, size: 0x8, addend: 0x0, symName: __ZNSt3__122__compressed_pair_elemINS_12basic_stringIcNS_11char_traitsIcEENS_9allocatorIcEEE5__repELi0ELb0EEC2B8ue170006ENS_18__default_init_tagE, symObjAddr: 0x23D0C, symBinAddr: 0x100028318, symSize: 0x14 }
  - { offsetInCU: 0x3750D, offset: 0x3750D, size: 0x8, addend: 0x0, symName: __ZNSt3__122__compressed_pair_elemINS_9allocatorIcEELi1ELb1EEC2B8ue170006ENS_18__default_init_tagE, symObjAddr: 0x23D20, symBinAddr: 0x10002832C, symSize: 0x2C }
  - { offsetInCU: 0x37541, offset: 0x37541, size: 0x8, addend: 0x0, symName: __ZNSt3__19allocatorIcEC2B8ue170006Ev, symObjAddr: 0x23D4C, symBinAddr: 0x100028358, symSize: 0x2C }
  - { offsetInCU: 0x3756B, offset: 0x3756B, size: 0x8, addend: 0x0, symName: __ZNSt3__116__non_trivial_ifILb1ENS_9allocatorIcEEEC2B8ue170006Ev, symObjAddr: 0x23D78, symBinAddr: 0x100028384, symSize: 0x14 }
  - { offsetInCU: 0x37595, offset: 0x37595, size: 0x8, addend: 0x0, symName: __ZN4Pika9ExceptionINSt3__112basic_stringIcNS1_11char_traitsIcEENS1_9allocatorIcEEEEEC2ERKS7_, symObjAddr: 0x23DB0, symBinAddr: 0x1000283BC, symSize: 0xB8 }
  - { offsetInCU: 0x375CD, offset: 0x375CD, size: 0x8, addend: 0x0, symName: __ZNSt9exceptionC2B8ue170006Ev, symObjAddr: 0x23E68, symBinAddr: 0x100028474, symSize: 0x24 }
  - { offsetInCU: 0x375F7, offset: 0x375F7, size: 0x8, addend: 0x0, symName: __ZN4Pika9ExceptionINSt3__112basic_stringIcNS1_11char_traitsIcEENS1_9allocatorIcEEEEED0Ev, symObjAddr: 0x23E8C, symBinAddr: 0x100028498, symSize: 0x30 }
  - { offsetInCU: 0x37621, offset: 0x37621, size: 0x8, addend: 0x0, symName: __ZNK4Pika9ExceptionINSt3__112basic_stringIcNS1_11char_traitsIcEENS1_9allocatorIcEEEEE4whatEv, symObjAddr: 0x23EBC, symBinAddr: 0x1000284C8, symSize: 0xA0 }
  - { offsetInCU: 0x37647, offset: 0x37647, size: 0x8, addend: 0x0, symName: __ZNK4Pika9ExceptionINSt3__112basic_stringIcNS1_11char_traitsIcEENS1_9allocatorIcEEEEE8getErrorEv, symObjAddr: 0x23F5C, symBinAddr: 0x100028568, symSize: 0x58 }
  - { offsetInCU: 0x3766D, offset: 0x3766D, size: 0x8, addend: 0x0, symName: __ZN4Pika9ExceptionINSt3__112basic_stringIcNS1_11char_traitsIcEENS1_9allocatorIcEEEEED2Ev, symObjAddr: 0x23FB4, symBinAddr: 0x1000285C0, symSize: 0xA4 }
  - { offsetInCU: 0x37697, offset: 0x37697, size: 0x8, addend: 0x0, symName: __ZN4Pika8STLValueINSt3__112basic_stringIcNS1_11char_traitsIcEENS1_9allocatorIcEEEEEC2Ev, symObjAddr: 0x24058, symBinAddr: 0x100028664, symSize: 0x2C }
  - { offsetInCU: 0x376C1, offset: 0x376C1, size: 0x8, addend: 0x0, symName: __ZNSt3__112basic_stringIcNS_11char_traitsIcEENS_9allocatorIcEEEC2B8ue170006Ev, symObjAddr: 0x24084, symBinAddr: 0x100028690, symSize: 0x3C }
  - { offsetInCU: 0x376EB, offset: 0x376EB, size: 0x8, addend: 0x0, symName: __ZNSt3__112basic_stringIcNS_11char_traitsIcEENS_9allocatorIcEEE14__default_initB8ue170006Ev, symObjAddr: 0x240C0, symBinAddr: 0x1000286CC, symSize: 0xB0 }
  - { offsetInCU: 0x3773D, offset: 0x3773D, size: 0x8, addend: 0x0, symName: __ZNSt3__117__compressed_pairINS_12basic_stringIcNS_11char_traitsIcEENS_9allocatorIcEEE5__repES5_E5firstB8ue170006Ev, symObjAddr: 0x24170, symBinAddr: 0x10002877C, symSize: 0x24 }
  - { offsetInCU: 0x37763, offset: 0x37763, size: 0x8, addend: 0x0, symName: __ZNSt3__112basic_stringIcNS_11char_traitsIcEENS_9allocatorIcEEE11__recommendB8ue170006Em, symObjAddr: 0x24194, symBinAddr: 0x1000287A0, symSize: 0x9C }
  - { offsetInCU: 0x37796, offset: 0x37796, size: 0x8, addend: 0x0, symName: __ZNSt3__116allocator_traitsINS_9allocatorIcEEE8allocateB8ue170006ERS2_m, symObjAddr: 0x24230, symBinAddr: 0x10002883C, symSize: 0x2C }
  - { offsetInCU: 0x377C9, offset: 0x377C9, size: 0x8, addend: 0x0, symName: __ZNSt3__112basic_stringIcNS_11char_traitsIcEENS_9allocatorIcEEE7__allocB8ue170006Ev, symObjAddr: 0x2425C, symBinAddr: 0x100028868, symSize: 0x24 }
  - { offsetInCU: 0x377EF, offset: 0x377EF, size: 0x8, addend: 0x0, symName: __ZNSt3__112basic_stringIcNS_11char_traitsIcEENS_9allocatorIcEEE16__begin_lifetimeB8ue170006EPcm, symObjAddr: 0x24280, symBinAddr: 0x10002888C, symSize: 0x14 }
  - { offsetInCU: 0x37822, offset: 0x37822, size: 0x8, addend: 0x0, symName: __ZNSt3__112basic_stringIcNS_11char_traitsIcEENS_9allocatorIcEEE18__set_long_pointerB8ue170006EPc, symObjAddr: 0x24294, symBinAddr: 0x1000288A0, symSize: 0x38 }
  - { offsetInCU: 0x37857, offset: 0x37857, size: 0x8, addend: 0x0, symName: __ZNSt3__112basic_stringIcNS_11char_traitsIcEENS_9allocatorIcEEE14__set_long_capB8ue170006Em, symObjAddr: 0x242CC, symBinAddr: 0x1000288D8, symSize: 0x70 }
  - { offsetInCU: 0x3788C, offset: 0x3788C, size: 0x8, addend: 0x0, symName: __ZNSt3__112basic_stringIcNS_11char_traitsIcEENS_9allocatorIcEEE15__set_long_sizeB8ue170006Em, symObjAddr: 0x2433C, symBinAddr: 0x100028948, symSize: 0x38 }
  - { offsetInCU: 0x378C1, offset: 0x378C1, size: 0x8, addend: 0x0, symName: __ZNSt3__122__compressed_pair_elemINS_12basic_stringIcNS_11char_traitsIcEENS_9allocatorIcEEE5__repELi0ELb0EE5__getB8ue170006Ev, symObjAddr: 0x24374, symBinAddr: 0x100028980, symSize: 0x14 }
  - { offsetInCU: 0x378E7, offset: 0x378E7, size: 0x8, addend: 0x0, symName: __ZNSt3__112basic_stringIcNS_11char_traitsIcEENS_9allocatorIcEEE10__align_itB8ue170006ILm16EEEmm, symObjAddr: 0x24388, symBinAddr: 0x100028994, symSize: 0x1C }
  - { offsetInCU: 0x37915, offset: 0x37915, size: 0x8, addend: 0x0, symName: __ZNSt3__19allocatorIcE8allocateB8ue170006Em, symObjAddr: 0x243A4, symBinAddr: 0x1000289B0, symSize: 0x84 }
  - { offsetInCU: 0x37953, offset: 0x37953, size: 0x8, addend: 0x0, symName: __ZNSt3__116allocator_traitsINS_9allocatorIcEEE8max_sizeB8ue170006IS2_vEEmRKS2_, symObjAddr: 0x24428, symBinAddr: 0x100028A34, symSize: 0x24 }
  - { offsetInCU: 0x37981, offset: 0x37981, size: 0x8, addend: 0x0, symName: __ZNKSt3__19allocatorIcE8max_sizeB8ue170006Ev, symObjAddr: 0x2444C, symBinAddr: 0x100028A58, symSize: 0x14 }
  - { offsetInCU: 0x379A7, offset: 0x379A7, size: 0x8, addend: 0x0, symName: __ZNSt3__117__compressed_pairINS_12basic_stringIcNS_11char_traitsIcEENS_9allocatorIcEEE5__repES5_E6secondB8ue170006Ev, symObjAddr: 0x24460, symBinAddr: 0x100028A6C, symSize: 0x24 }
  - { offsetInCU: 0x379CD, offset: 0x379CD, size: 0x8, addend: 0x0, symName: __ZNSt3__122__compressed_pair_elemINS_9allocatorIcEELi1ELb1EE5__getB8ue170006Ev, symObjAddr: 0x24484, symBinAddr: 0x100028A90, symSize: 0x14 }
  - { offsetInCU: 0x379F3, offset: 0x379F3, size: 0x8, addend: 0x0, symName: __ZN4Pika8STLValueINSt3__112basic_stringIcNS1_11char_traitsIcEENS1_9allocatorIcEEEEEC2IS7_EERKT_, symObjAddr: 0x24510, symBinAddr: 0x100028B1C, symSize: 0x34 }
  - { offsetInCU: 0x37A34, offset: 0x37A34, size: 0x8, addend: 0x0, symName: __ZN4Pika8STLValueINSt3__112basic_stringIcNS1_11char_traitsIcEENS1_9allocatorIcEEEEEC2Em, symObjAddr: 0x24544, symBinAddr: 0x100028B50, symSize: 0x84 }
  - { offsetInCU: 0x37A6C, offset: 0x37A6C, size: 0x8, addend: 0x0, symName: __ZN4Pika8STLValueINSt3__112basic_stringIcNS1_11char_traitsIcEENS1_9allocatorIcEEEEEC2Eb, symObjAddr: 0x245C8, symBinAddr: 0x100028BD4, symSize: 0xAC }
  - { offsetInCU: 0x37AA4, offset: 0x37AA4, size: 0x8, addend: 0x0, symName: __ZN4Pika8STLValueINSt3__112basic_stringIcNS1_11char_traitsIcEENS1_9allocatorIcEEEEEC2Ei, symObjAddr: 0x24674, symBinAddr: 0x100028C80, symSize: 0x84 }
  - { offsetInCU: 0x37ADC, offset: 0x37ADC, size: 0x8, addend: 0x0, symName: __ZNSt3__112basic_stringIcNS_11char_traitsIcEENS_9allocatorIcEEEC2B8ue170006EPKcm, symObjAddr: 0x246F8, symBinAddr: 0x100028D04, symSize: 0x4C }
  - { offsetInCU: 0x37B24, offset: 0x37B24, size: 0x8, addend: 0x0, symName: __ZNSt3__112basic_stringIcNS_11char_traitsIcEENS_9allocatorIcEEEpLB8ue170006EPKc, symObjAddr: 0x249E4, symBinAddr: 0x100028FF0, symSize: 0x2C }
  - { offsetInCU: 0x37B59, offset: 0x37B59, size: 0x8, addend: 0x0, symName: __ZNSt3__118__unwrap_iter_implIPKcLb1EE8__rewrapB8ue170006ES2_S2_, symObjAddr: 0x24D54, symBinAddr: 0x100029360, symSize: 0x48 }
  - { offsetInCU: 0x37B8A, offset: 0x37B8A, size: 0x8, addend: 0x0, symName: __ZNSt3__118__unwrap_iter_implIPKcLb1EE8__unwrapB8ue170006ES2_, symObjAddr: 0x24E70, symBinAddr: 0x10002947C, symSize: 0x24 }
  - { offsetInCU: 0x37BAD, offset: 0x37BAD, size: 0x8, addend: 0x0, symName: __ZNSt3__112basic_stringIcNS_11char_traitsIcEENS_9allocatorIcEEE6appendB8ue170006ERKS5_, symObjAddr: 0x24E94, symBinAddr: 0x1000294A0, symSize: 0x4C }
  - { offsetInCU: 0x37BE2, offset: 0x37BE2, size: 0x8, addend: 0x0, symName: __ZNSt3__116allocator_traitsINS_9allocatorIcEEE37select_on_container_copy_constructionB8ue170006IS2_vvEES2_RKS2_, symObjAddr: 0x24EE0, symBinAddr: 0x1000294EC, symSize: 0x10 }
  - { offsetInCU: 0x37C11, offset: 0x37C11, size: 0x8, addend: 0x0, symName: __ZNKSt3__112basic_stringIcNS_11char_traitsIcEENS_9allocatorIcEEE13get_allocatorB8ue170006Ev, symObjAddr: 0x24EF0, symBinAddr: 0x1000294FC, symSize: 0x24 }
  - { offsetInCU: 0x37C37, offset: 0x37C37, size: 0x8, addend: 0x0, symName: __ZNSt3__112basic_stringIcNS_11char_traitsIcEENS_9allocatorIcEEEC1B8ue170006ENS_24__uninitialized_size_tagEmRKS4_, symObjAddr: 0x24F14, symBinAddr: 0x100029520, symSize: 0x3C }
  - { offsetInCU: 0x37C8B, offset: 0x37C8B, size: 0x8, addend: 0x0, symName: __ZNSt3__112basic_stringIcNS_11char_traitsIcEENS_9allocatorIcEEE13__get_pointerB8ue170006Ev, symObjAddr: 0x24F64, symBinAddr: 0x100029570, symSize: 0x54 }
  - { offsetInCU: 0x37CB1, offset: 0x37CB1, size: 0x8, addend: 0x0, symName: __ZNSt3__111char_traitsIcE4copyB8ue170006EPcPKcm, symObjAddr: 0x24FB8, symBinAddr: 0x1000295C4, symSize: 0x64 }
  - { offsetInCU: 0x37CF0, offset: 0x37CF0, size: 0x8, addend: 0x0, symName: __ZNSt3__111char_traitsIcE6assignB8ue170006EPcmc, symObjAddr: 0x2501C, symBinAddr: 0x100029628, symSize: 0x58 }
  - { offsetInCU: 0x37D2F, offset: 0x37D2F, size: 0x8, addend: 0x0, symName: __ZNKSt3__112basic_stringIcNS_11char_traitsIcEENS_9allocatorIcEEE7__allocB8ue170006Ev, symObjAddr: 0x25074, symBinAddr: 0x100029680, symSize: 0x24 }
  - { offsetInCU: 0x37D55, offset: 0x37D55, size: 0x8, addend: 0x0, symName: __ZNKSt3__117__compressed_pairINS_12basic_stringIcNS_11char_traitsIcEENS_9allocatorIcEEE5__repES5_E6secondB8ue170006Ev, symObjAddr: 0x25098, symBinAddr: 0x1000296A4, symSize: 0x24 }
  - { offsetInCU: 0x37D7B, offset: 0x37D7B, size: 0x8, addend: 0x0, symName: __ZNKSt3__122__compressed_pair_elemINS_9allocatorIcEELi1ELb1EE5__getB8ue170006Ev, symObjAddr: 0x250BC, symBinAddr: 0x1000296C8, symSize: 0x14 }
  - { offsetInCU: 0x37DA1, offset: 0x37DA1, size: 0x8, addend: 0x0, symName: __ZNSt3__112basic_stringIcNS_11char_traitsIcEENS_9allocatorIcEEEC2B8ue170006ENS_24__uninitialized_size_tagEmRKS4_, symObjAddr: 0x250D0, symBinAddr: 0x1000296DC, symSize: 0x110 }
  - { offsetInCU: 0x37E21, offset: 0x37E21, size: 0x8, addend: 0x0, symName: __ZNSt3__117__compressed_pairINS_12basic_stringIcNS_11char_traitsIcEENS_9allocatorIcEEE5__repES5_EC1B8ue170006INS_18__default_init_tagERKS5_EEOT_OT0_, symObjAddr: 0x251E0, symBinAddr: 0x1000297EC, symSize: 0x3C }
  - { offsetInCU: 0x37E79, offset: 0x37E79, size: 0x8, addend: 0x0, symName: __ZNKSt3__112basic_stringIcNS_11char_traitsIcEENS_9allocatorIcEEE8max_sizeB8ue170006Ev, symObjAddr: 0x2521C, symBinAddr: 0x100029828, symSize: 0xAC }
  - { offsetInCU: 0x37ECB, offset: 0x37ECB, size: 0x8, addend: 0x0, symName: __ZNKSt3__112basic_stringIcNS_11char_traitsIcEENS_9allocatorIcEEE20__throw_length_errorB8ue170006Ev, symObjAddr: 0x252C8, symBinAddr: 0x1000298D4, symSize: 0x1C }
  - { offsetInCU: 0x37EF1, offset: 0x37EF1, size: 0x8, addend: 0x0, symName: __ZNSt3__112basic_stringIcNS_11char_traitsIcEENS_9allocatorIcEEE13__fits_in_ssoB8ue170006Em, symObjAddr: 0x252E4, symBinAddr: 0x1000298F0, symSize: 0x4C }
  - { offsetInCU: 0x37F15, offset: 0x37F15, size: 0x8, addend: 0x0, symName: __ZNSt3__112basic_stringIcNS_11char_traitsIcEENS_9allocatorIcEEE16__set_short_sizeB8ue170006Em, symObjAddr: 0x25330, symBinAddr: 0x10002993C, symSize: 0x78 }
  - { offsetInCU: 0x37F4A, offset: 0x37F4A, size: 0x8, addend: 0x0, symName: __ZNSt3__117__compressed_pairINS_12basic_stringIcNS_11char_traitsIcEENS_9allocatorIcEEE5__repES5_EC2B8ue170006INS_18__default_init_tagERKS5_EEOT_OT0_, symObjAddr: 0x253A8, symBinAddr: 0x1000299B4, symSize: 0x40 }
  - { offsetInCU: 0x37FA2, offset: 0x37FA2, size: 0x8, addend: 0x0, symName: __ZNSt3__122__compressed_pair_elemINS_9allocatorIcEELi1ELb1EEC2B8ue170006IRKS2_vEEOT_, symObjAddr: 0x253E8, symBinAddr: 0x1000299F4, symSize: 0x18 }
  - { offsetInCU: 0x37FE4, offset: 0x37FE4, size: 0x8, addend: 0x0, symName: __ZNSt3__114numeric_limitsImE3maxB8ue170006Ev, symObjAddr: 0x25400, symBinAddr: 0x100029A0C, symSize: 0x14 }
  - { offsetInCU: 0x37FF8, offset: 0x37FF8, size: 0x8, addend: 0x0, symName: __ZNSt3__123__libcpp_numeric_limitsImLb1EE3maxB8ue170006Ev, symObjAddr: 0x25414, symBinAddr: 0x100029A20, symSize: 0x8 }
  - { offsetInCU: 0x3800C, offset: 0x3800C, size: 0x8, addend: 0x0, symName: __ZNKSt3__112basic_stringIcNS_11char_traitsIcEENS_9allocatorIcEEE9__is_longB8ue170006Ev, symObjAddr: 0x2541C, symBinAddr: 0x100029A28, symSize: 0x74 }
  - { offsetInCU: 0x38032, offset: 0x38032, size: 0x8, addend: 0x0, symName: __ZNSt3__112basic_stringIcNS_11char_traitsIcEENS_9allocatorIcEEE18__get_long_pointerB8ue170006Ev, symObjAddr: 0x25490, symBinAddr: 0x100029A9C, symSize: 0x28 }
  - { offsetInCU: 0x38058, offset: 0x38058, size: 0x8, addend: 0x0, symName: __ZNSt3__112basic_stringIcNS_11char_traitsIcEENS_9allocatorIcEEE19__get_short_pointerB8ue170006Ev, symObjAddr: 0x254B8, symBinAddr: 0x100029AC4, symSize: 0x28 }
  - { offsetInCU: 0x3807E, offset: 0x3807E, size: 0x8, addend: 0x0, symName: __ZNKSt3__117__compressed_pairINS_12basic_stringIcNS_11char_traitsIcEENS_9allocatorIcEEE5__repES5_E5firstB8ue170006Ev, symObjAddr: 0x254E0, symBinAddr: 0x100029AEC, symSize: 0x24 }
  - { offsetInCU: 0x380A4, offset: 0x380A4, size: 0x8, addend: 0x0, symName: __ZNKSt3__122__compressed_pair_elemINS_12basic_stringIcNS_11char_traitsIcEENS_9allocatorIcEEE5__repELi0ELb0EE5__getB8ue170006Ev, symObjAddr: 0x25504, symBinAddr: 0x100029B10, symSize: 0x14 }
  - { offsetInCU: 0x380CA, offset: 0x380CA, size: 0x8, addend: 0x0, symName: __ZNSt3__114pointer_traitsIPcE10pointer_toB8ue170006ERc, symObjAddr: 0x25518, symBinAddr: 0x100029B24, symSize: 0x14 }
  - { offsetInCU: 0x3811A, offset: 0x3811A, size: 0x8, addend: 0x0, symName: __ZNKSt3__114__copy_trivialclB8ue170006IKccLi0EEENS_4pairIPT_PT0_EES5_S5_S7_, symObjAddr: 0x2574C, symBinAddr: 0x100029D58, symSize: 0x48 }
  - { offsetInCU: 0x3819B, offset: 0x3819B, size: 0x8, addend: 0x0, symName: __ZNSt3__14pairIPKcS2_EC1B8ue170006ERKS2_S5_, symObjAddr: 0x258A4, symBinAddr: 0x100029EB0, symSize: 0x3C }
  - { offsetInCU: 0x381E1, offset: 0x381E1, size: 0x8, addend: 0x0, symName: __ZNSt3__14pairIPKcS2_EC2B8ue170006ERKS2_S5_, symObjAddr: 0x258E0, symBinAddr: 0x100029EEC, symSize: 0x34 }
  - { offsetInCU: 0x38227, offset: 0x38227, size: 0x8, addend: 0x0, symName: __ZNSt3__14pairIPKcPcEC1B8ue170006ERKS2_RKS3_, symObjAddr: 0x25A64, symBinAddr: 0x10002A070, symSize: 0x3C }
  - { offsetInCU: 0x3826D, offset: 0x3826D, size: 0x8, addend: 0x0, symName: __ZNSt3__14pairIPKcPcEC2B8ue170006ERKS2_RKS3_, symObjAddr: 0x25AA0, symBinAddr: 0x10002A0AC, symSize: 0x34 }
  - { offsetInCU: 0x382B3, offset: 0x382B3, size: 0x8, addend: 0x0, symName: __ZNSt3__118__unwrap_iter_implIPcLb1EE8__unwrapB8ue170006ES1_, symObjAddr: 0x25AD4, symBinAddr: 0x10002A0E0, symSize: 0x24 }
  - { offsetInCU: 0x382D6, offset: 0x382D6, size: 0x8, addend: 0x0, symName: __ZNSt3__118__unwrap_iter_implIPcLb1EE8__rewrapB8ue170006ES1_S1_, symObjAddr: 0x25AF8, symBinAddr: 0x10002A104, symSize: 0x48 }
  - { offsetInCU: 0x38307, offset: 0x38307, size: 0x8, addend: 0x0, symName: __ZNSt3__14pairIPN4Pika6ScriptINS1_9StdConfigEE5FrameENS_12basic_stringIcNS_11char_traitsIcEENS_9allocatorIcEEEEEC2B8ue170006ERKS6_RKSC_, symObjAddr: 0x25BFC, symBinAddr: 0x10002A208, symSize: 0x48 }
  - { offsetInCU: 0x3834D, offset: 0x3834D, size: 0x8, addend: 0x0, symName: __ZNKSt3__112basic_stringIcNS_11char_traitsIcEENS_9allocatorIcEEE21__make_const_iteratorB8ue170006EPKc, symObjAddr: 0x25C44, symBinAddr: 0x10002A250, symSize: 0x30 }
  - { offsetInCU: 0x38382, offset: 0x38382, size: 0x8, addend: 0x0, symName: __ZNKSt3__112basic_stringIcNS_11char_traitsIcEENS_9allocatorIcEEE13__get_pointerB8ue170006Ev, symObjAddr: 0x25C74, symBinAddr: 0x10002A280, symSize: 0x54 }
  - { offsetInCU: 0x383A8, offset: 0x383A8, size: 0x8, addend: 0x0, symName: __ZNSt3__111__wrap_iterIPKcEC1B8ue170006ES2_, symObjAddr: 0x25CC8, symBinAddr: 0x10002A2D4, symSize: 0x34 }
  - { offsetInCU: 0x383E0, offset: 0x383E0, size: 0x8, addend: 0x0, symName: __ZNSt3__111__wrap_iterIPKcEC2B8ue170006ES2_, symObjAddr: 0x25CFC, symBinAddr: 0x10002A308, symSize: 0x20 }
  - { offsetInCU: 0x38418, offset: 0x38418, size: 0x8, addend: 0x0, symName: __ZNKSt3__112basic_stringIcNS_11char_traitsIcEENS_9allocatorIcEEE18__get_long_pointerB8ue170006Ev, symObjAddr: 0x25D1C, symBinAddr: 0x10002A328, symSize: 0x28 }
  - { offsetInCU: 0x3843E, offset: 0x3843E, size: 0x8, addend: 0x0, symName: __ZNKSt3__112basic_stringIcNS_11char_traitsIcEENS_9allocatorIcEEE19__get_short_pointerB8ue170006Ev, symObjAddr: 0x25D44, symBinAddr: 0x10002A350, symSize: 0x28 }
  - { offsetInCU: 0x38464, offset: 0x38464, size: 0x8, addend: 0x0, symName: __ZNSt3__114pointer_traitsIPKcE10pointer_toB8ue170006ERS1_, symObjAddr: 0x25D6C, symBinAddr: 0x10002A378, symSize: 0x14 }
  - { offsetInCU: 0x38487, offset: 0x38487, size: 0x8, addend: 0x0, symName: __ZNSt3__112basic_stringIcNS_11char_traitsIcEENS_9allocatorIcEEEC2B8ue170006INS_11__wrap_iterIPKcEELi0EEET_SB_, symObjAddr: 0x25D80, symBinAddr: 0x10002A38C, symSize: 0x5C }
  - { offsetInCU: 0x384DE, offset: 0x384DE, size: 0x8, addend: 0x0, symName: __ZNSt3__112basic_stringIcNS_11char_traitsIcEENS_9allocatorIcEEE6__initINS_11__wrap_iterIPKcEELi0EEEvT_SB_, symObjAddr: 0x25DDC, symBinAddr: 0x10002A3E8, symSize: 0x74 }
  - { offsetInCU: 0x38542, offset: 0x38542, size: 0x8, addend: 0x0, symName: __ZNSt3__112basic_stringIcNS_11char_traitsIcEENS_9allocatorIcEEE16__init_with_sizeB8ue170006INS_11__wrap_iterIPKcEESA_EEvT_T0_m, symObjAddr: 0x25E8C, symBinAddr: 0x10002A498, symSize: 0x184 }
  - { offsetInCU: 0x385D6, offset: 0x385D6, size: 0x8, addend: 0x0, symName: __ZNSt3__111char_traitsIcE6assignB8ue170006ERcRKc, symObjAddr: 0x26080, symBinAddr: 0x10002A68C, symSize: 0x24 }
  - { offsetInCU: 0x38607, offset: 0x38607, size: 0x8, addend: 0x0, symName: __ZNSt3__13mapIKNS_12basic_stringIcNS_11char_traitsIcEENS_9allocatorIcEEEEN4Pika8STLValueIS6_EENS_4lessIS7_EENS4_INS_4pairIS7_SA_EEEEED2B8ue170006Ev, symObjAddr: 0x260A4, symBinAddr: 0x10002A6B0, symSize: 0x2C }
  - { offsetInCU: 0x38631, offset: 0x38631, size: 0x8, addend: 0x0, symName: __ZNSt3__16__treeINS_12__value_typeIKNS_12basic_stringIcNS_11char_traitsIcEENS_9allocatorIcEEEEN4Pika8STLValueIS7_EEEENS_19__map_value_compareIS8_SC_NS_4lessIS8_EELb1EEENS5_ISC_EEED1Ev, symObjAddr: 0x260D0, symBinAddr: 0x10002A6DC, symSize: 0x2C }
  - { offsetInCU: 0x3865D, offset: 0x3865D, size: 0x8, addend: 0x0, symName: __ZNSt3__16__treeINS_12__value_typeIKNS_12basic_stringIcNS_11char_traitsIcEENS_9allocatorIcEEEEN4Pika8STLValueIS7_EEEENS_19__map_value_compareIS8_SC_NS_4lessIS8_EELb1EEENS5_ISC_EEED2Ev, symObjAddr: 0x260FC, symBinAddr: 0x10002A708, symSize: 0x38 }
  - { offsetInCU: 0x38689, offset: 0x38689, size: 0x8, addend: 0x0, symName: __ZNSt3__16__treeINS_12__value_typeIKNS_12basic_stringIcNS_11char_traitsIcEENS_9allocatorIcEEEEN4Pika8STLValueIS7_EEEENS_19__map_value_compareIS8_SC_NS_4lessIS8_EELb1EEENS5_ISC_EEE7destroyEPNS_11__tree_nodeISC_PvEE, symObjAddr: 0x26134, symBinAddr: 0x10002A740, symSize: 0xC0 }
  - { offsetInCU: 0x386DD, offset: 0x386DD, size: 0x8, addend: 0x0, symName: __ZNKSt3__16__treeINS_12__value_typeIKNS_12basic_stringIcNS_11char_traitsIcEENS_9allocatorIcEEEEN4Pika8STLValueIS7_EEEENS_19__map_value_compareIS8_SC_NS_4lessIS8_EELb1EEENS5_ISC_EEE6__rootB8ue170006Ev, symObjAddr: 0x261F4, symBinAddr: 0x10002A800, symSize: 0x28 }
  - { offsetInCU: 0x38703, offset: 0x38703, size: 0x8, addend: 0x0, symName: __ZNSt3__16__treeINS_12__value_typeIKNS_12basic_stringIcNS_11char_traitsIcEENS_9allocatorIcEEEEN4Pika8STLValueIS7_EEEENS_19__map_value_compareIS8_SC_NS_4lessIS8_EELb1EEENS5_ISC_EEE12__node_allocB8ue170006Ev, symObjAddr: 0x2621C, symBinAddr: 0x10002A828, symSize: 0x28 }
  - { offsetInCU: 0x38729, offset: 0x38729, size: 0x8, addend: 0x0, symName: __ZNSt3__116allocator_traitsINS_9allocatorINS_11__tree_nodeINS_12__value_typeIKNS_12basic_stringIcNS_11char_traitsIcEENS1_IcEEEEN4Pika8STLValueIS8_EEEEPvEEEEE7destroyB8ue170006INS_4pairIS9_SC_EEvvEEvRSG_PT_, symObjAddr: 0x26244, symBinAddr: 0x10002A850, symSize: 0x28 }
  - { offsetInCU: 0x38764, offset: 0x38764, size: 0x8, addend: 0x0, symName: __ZNSt3__122__tree_key_value_typesINS_12__value_typeIKNS_12basic_stringIcNS_11char_traitsIcEENS_9allocatorIcEEEEN4Pika8STLValueIS7_EEEEE9__get_ptrB8ue170006ERSC_, symObjAddr: 0x2626C, symBinAddr: 0x10002A878, symSize: 0x24 }
  - { offsetInCU: 0x38788, offset: 0x38788, size: 0x8, addend: 0x0, symName: __ZNSt3__116allocator_traitsINS_9allocatorINS_11__tree_nodeINS_12__value_typeIKNS_12basic_stringIcNS_11char_traitsIcEENS1_IcEEEEN4Pika8STLValueIS8_EEEEPvEEEEE10deallocateB8ue170006ERSG_PSF_m, symObjAddr: 0x26290, symBinAddr: 0x10002A89C, symSize: 0x34 }
  - { offsetInCU: 0x387CA, offset: 0x387CA, size: 0x8, addend: 0x0, symName: __ZNSt3__117__compressed_pairINS_15__tree_end_nodeIPNS_16__tree_node_baseIPvEEEENS_9allocatorINS_11__tree_nodeINS_12__value_typeIKNS_12basic_stringIcNS_11char_traitsIcEENS7_IcEEEEN4Pika8STLValueISE_EEEES3_EEEEE6secondB8ue170006Ev, symObjAddr: 0x262C4, symBinAddr: 0x10002A8D0, symSize: 0x24 }
  - { offsetInCU: 0x387F0, offset: 0x387F0, size: 0x8, addend: 0x0, symName: __ZNSt3__122__compressed_pair_elemINS_9allocatorINS_11__tree_nodeINS_12__value_typeIKNS_12basic_stringIcNS_11char_traitsIcEENS1_IcEEEEN4Pika8STLValueIS8_EEEEPvEEEELi1ELb1EE5__getB8ue170006Ev, symObjAddr: 0x262E8, symBinAddr: 0x10002A8F4, symSize: 0x14 }
  - { offsetInCU: 0x38816, offset: 0x38816, size: 0x8, addend: 0x0, symName: __ZNSt3__14pairIKNS_12basic_stringIcNS_11char_traitsIcEENS_9allocatorIcEEEEN4Pika8STLValueIS6_EEED1Ev, symObjAddr: 0x262FC, symBinAddr: 0x10002A908, symSize: 0x2C }
  - { offsetInCU: 0x38842, offset: 0x38842, size: 0x8, addend: 0x0, symName: __ZNSt3__14pairIKNS_12basic_stringIcNS_11char_traitsIcEENS_9allocatorIcEEEEN4Pika8STLValueIS6_EEED2Ev, symObjAddr: 0x26328, symBinAddr: 0x10002A934, symSize: 0x68 }
  - { offsetInCU: 0x3886E, offset: 0x3886E, size: 0x8, addend: 0x0, symName: __ZNSt3__112__value_typeIKNS_12basic_stringIcNS_11char_traitsIcEENS_9allocatorIcEEEEN4Pika8STLValueIS6_EEE11__get_valueB8ue170006Ev, symObjAddr: 0x26390, symBinAddr: 0x10002A99C, symSize: 0x14 }
  - { offsetInCU: 0x38894, offset: 0x38894, size: 0x8, addend: 0x0, symName: __ZNSt3__19allocatorINS_11__tree_nodeINS_12__value_typeIKNS_12basic_stringIcNS_11char_traitsIcEENS0_IcEEEEN4Pika8STLValueIS7_EEEEPvEEE10deallocateB8ue170006EPSE_m, symObjAddr: 0x263A4, symBinAddr: 0x10002A9B0, symSize: 0x74 }
  - { offsetInCU: 0x388D6, offset: 0x388D6, size: 0x8, addend: 0x0, symName: __ZNKSt3__16__treeINS_12__value_typeIKNS_12basic_stringIcNS_11char_traitsIcEENS_9allocatorIcEEEEN4Pika8STLValueIS7_EEEENS_19__map_value_compareIS8_SC_NS_4lessIS8_EELb1EEENS5_ISC_EEE10__end_nodeB8ue170006Ev, symObjAddr: 0x26418, symBinAddr: 0x10002AA24, symSize: 0x2C }
  - { offsetInCU: 0x388FC, offset: 0x388FC, size: 0x8, addend: 0x0, symName: __ZNKSt3__117__compressed_pairINS_15__tree_end_nodeIPNS_16__tree_node_baseIPvEEEENS_9allocatorINS_11__tree_nodeINS_12__value_typeIKNS_12basic_stringIcNS_11char_traitsIcEENS7_IcEEEEN4Pika8STLValueISE_EEEES3_EEEEE5firstB8ue170006Ev, symObjAddr: 0x26444, symBinAddr: 0x10002AA50, symSize: 0x24 }
  - { offsetInCU: 0x38922, offset: 0x38922, size: 0x8, addend: 0x0, symName: __ZNSt3__13mapIKNS_12basic_stringIcNS_11char_traitsIcEENS_9allocatorIcEEEEPN4Pika6ScriptINS8_9StdConfigEE6NativeENS_4lessIS7_EENS4_INS_4pairIS7_SD_EEEEED2B8ue170006Ev, symObjAddr: 0x26468, symBinAddr: 0x10002AA74, symSize: 0x2C }
  - { offsetInCU: 0x3894C, offset: 0x3894C, size: 0x8, addend: 0x0, symName: __ZNSt3__16__treeINS_12__value_typeIKNS_12basic_stringIcNS_11char_traitsIcEENS_9allocatorIcEEEEPN4Pika6ScriptINS9_9StdConfigEE6NativeEEENS_19__map_value_compareIS8_SF_NS_4lessIS8_EELb1EEENS5_ISF_EEED1Ev, symObjAddr: 0x26494, symBinAddr: 0x10002AAA0, symSize: 0x2C }
  - { offsetInCU: 0x38978, offset: 0x38978, size: 0x8, addend: 0x0, symName: __ZNSt3__16__treeINS_12__value_typeIKNS_12basic_stringIcNS_11char_traitsIcEENS_9allocatorIcEEEEPN4Pika6ScriptINS9_9StdConfigEE6NativeEEENS_19__map_value_compareIS8_SF_NS_4lessIS8_EELb1EEENS5_ISF_EEED2Ev, symObjAddr: 0x264C0, symBinAddr: 0x10002AACC, symSize: 0x38 }
  - { offsetInCU: 0x389A4, offset: 0x389A4, size: 0x8, addend: 0x0, symName: __ZNSt3__16__treeINS_12__value_typeIKNS_12basic_stringIcNS_11char_traitsIcEENS_9allocatorIcEEEEPN4Pika6ScriptINS9_9StdConfigEE6NativeEEENS_19__map_value_compareIS8_SF_NS_4lessIS8_EELb1EEENS5_ISF_EEE7destroyEPNS_11__tree_nodeISF_PvEE, symObjAddr: 0x264F8, symBinAddr: 0x10002AB04, symSize: 0xC0 }
  - { offsetInCU: 0x389F8, offset: 0x389F8, size: 0x8, addend: 0x0, symName: __ZNKSt3__16__treeINS_12__value_typeIKNS_12basic_stringIcNS_11char_traitsIcEENS_9allocatorIcEEEEPN4Pika6ScriptINS9_9StdConfigEE6NativeEEENS_19__map_value_compareIS8_SF_NS_4lessIS8_EELb1EEENS5_ISF_EEE6__rootB8ue170006Ev, symObjAddr: 0x265B8, symBinAddr: 0x10002ABC4, symSize: 0x28 }
  - { offsetInCU: 0x38A1E, offset: 0x38A1E, size: 0x8, addend: 0x0, symName: __ZNSt3__16__treeINS_12__value_typeIKNS_12basic_stringIcNS_11char_traitsIcEENS_9allocatorIcEEEEPN4Pika6ScriptINS9_9StdConfigEE6NativeEEENS_19__map_value_compareIS8_SF_NS_4lessIS8_EELb1EEENS5_ISF_EEE12__node_allocB8ue170006Ev, symObjAddr: 0x265E0, symBinAddr: 0x10002ABEC, symSize: 0x28 }
  - { offsetInCU: 0x38A44, offset: 0x38A44, size: 0x8, addend: 0x0, symName: __ZNSt3__116allocator_traitsINS_9allocatorINS_11__tree_nodeINS_12__value_typeIKNS_12basic_stringIcNS_11char_traitsIcEENS1_IcEEEEPN4Pika6ScriptINSA_9StdConfigEE6NativeEEEPvEEEEE7destroyB8ue170006INS_4pairIS9_SF_EEvvEEvRSJ_PT_, symObjAddr: 0x26608, symBinAddr: 0x10002AC14, symSize: 0x28 }
  - { offsetInCU: 0x38A7F, offset: 0x38A7F, size: 0x8, addend: 0x0, symName: __ZNSt3__122__tree_key_value_typesINS_12__value_typeIKNS_12basic_stringIcNS_11char_traitsIcEENS_9allocatorIcEEEEPN4Pika6ScriptINS9_9StdConfigEE6NativeEEEE9__get_ptrB8ue170006ERSF_, symObjAddr: 0x26630, symBinAddr: 0x10002AC3C, symSize: 0x24 }
  - { offsetInCU: 0x38AA3, offset: 0x38AA3, size: 0x8, addend: 0x0, symName: __ZNSt3__116allocator_traitsINS_9allocatorINS_11__tree_nodeINS_12__value_typeIKNS_12basic_stringIcNS_11char_traitsIcEENS1_IcEEEEPN4Pika6ScriptINSA_9StdConfigEE6NativeEEEPvEEEEE10deallocateB8ue170006ERSJ_PSI_m, symObjAddr: 0x26654, symBinAddr: 0x10002AC60, symSize: 0x34 }
  - { offsetInCU: 0x38AE5, offset: 0x38AE5, size: 0x8, addend: 0x0, symName: __ZNSt3__117__compressed_pairINS_15__tree_end_nodeIPNS_16__tree_node_baseIPvEEEENS_9allocatorINS_11__tree_nodeINS_12__value_typeIKNS_12basic_stringIcNS_11char_traitsIcEENS7_IcEEEEPN4Pika6ScriptINSG_9StdConfigEE6NativeEEES3_EEEEE6secondB8ue170006Ev, symObjAddr: 0x26688, symBinAddr: 0x10002AC94, symSize: 0x24 }
  - { offsetInCU: 0x38B0B, offset: 0x38B0B, size: 0x8, addend: 0x0, symName: __ZNSt3__122__compressed_pair_elemINS_9allocatorINS_11__tree_nodeINS_12__value_typeIKNS_12basic_stringIcNS_11char_traitsIcEENS1_IcEEEEPN4Pika6ScriptINSA_9StdConfigEE6NativeEEEPvEEEELi1ELb1EE5__getB8ue170006Ev, symObjAddr: 0x266AC, symBinAddr: 0x10002ACB8, symSize: 0x14 }
  - { offsetInCU: 0x38B31, offset: 0x38B31, size: 0x8, addend: 0x0, symName: __ZNSt3__112__value_typeIKNS_12basic_stringIcNS_11char_traitsIcEENS_9allocatorIcEEEEPN4Pika6ScriptINS8_9StdConfigEE6NativeEE11__get_valueB8ue170006Ev, symObjAddr: 0x266C0, symBinAddr: 0x10002ACCC, symSize: 0x14 }
  - { offsetInCU: 0x38B57, offset: 0x38B57, size: 0x8, addend: 0x0, symName: __ZNSt3__19allocatorINS_11__tree_nodeINS_12__value_typeIKNS_12basic_stringIcNS_11char_traitsIcEENS0_IcEEEEPN4Pika6ScriptINS9_9StdConfigEE6NativeEEEPvEEE10deallocateB8ue170006EPSH_m, symObjAddr: 0x266D4, symBinAddr: 0x10002ACE0, symSize: 0x70 }
  - { offsetInCU: 0x38B99, offset: 0x38B99, size: 0x8, addend: 0x0, symName: __ZNKSt3__16__treeINS_12__value_typeIKNS_12basic_stringIcNS_11char_traitsIcEENS_9allocatorIcEEEEPN4Pika6ScriptINS9_9StdConfigEE6NativeEEENS_19__map_value_compareIS8_SF_NS_4lessIS8_EELb1EEENS5_ISF_EEE10__end_nodeB8ue170006Ev, symObjAddr: 0x26744, symBinAddr: 0x10002AD50, symSize: 0x2C }
  - { offsetInCU: 0x38BBF, offset: 0x38BBF, size: 0x8, addend: 0x0, symName: __ZNKSt3__117__compressed_pairINS_15__tree_end_nodeIPNS_16__tree_node_baseIPvEEEENS_9allocatorINS_11__tree_nodeINS_12__value_typeIKNS_12basic_stringIcNS_11char_traitsIcEENS7_IcEEEEPN4Pika6ScriptINSG_9StdConfigEE6NativeEEES3_EEEEE5firstB8ue170006Ev, symObjAddr: 0x26770, symBinAddr: 0x10002AD7C, symSize: 0x24 }
  - { offsetInCU: 0x38BE5, offset: 0x38BE5, size: 0x8, addend: 0x0, symName: __ZN4Pika8STLValueINSt3__112basic_stringIcNS1_11char_traitsIcEENS1_9allocatorIcEEEEEC2El, symObjAddr: 0x26794, symBinAddr: 0x10002ADA0, symSize: 0x84 }
  - { offsetInCU: 0x38C1D, offset: 0x38C1D, size: 0x8, addend: 0x0, symName: __ZNKSt3__111__wrap_iterIPKcE4baseB8ue170006Ev, symObjAddr: 0x26818, symBinAddr: 0x10002AE24, symSize: 0x18 }
  - { offsetInCU: 0x38C43, offset: 0x38C43, size: 0x8, addend: 0x0, symName: __ZNSt3__14pairIbN4Pika8STLValueINS_12basic_stringIcNS_11char_traitsIcEENS_9allocatorIcEEEEEEEC2B8ue170006Ev, symObjAddr: 0x26830, symBinAddr: 0x10002AE3C, symSize: 0x34 }
  - { offsetInCU: 0x38C6D, offset: 0x38C6D, size: 0x8, addend: 0x0, symName: __ZNSt3__14pairIbN4Pika8STLValueINS_12basic_stringIcNS_11char_traitsIcEENS_9allocatorIcEEEEEEEC2B8ue170006ERKbRKS9_, symObjAddr: 0x26864, symBinAddr: 0x10002AE70, symSize: 0x4C }
  - { offsetInCU: 0x38CB3, offset: 0x38CB3, size: 0x8, addend: 0x0, symName: __ZNSt3__112basic_stringIcNS_11char_traitsIcEENS_9allocatorIcEEEC2B8ue170006IPKcLi0EEET_S9_, symObjAddr: 0x268B0, symBinAddr: 0x10002AEBC, symSize: 0x4C }
  - { offsetInCU: 0x38D0A, offset: 0x38D0A, size: 0x8, addend: 0x0, symName: __ZNSt3__112basic_stringIcNS_11char_traitsIcEENS_9allocatorIcEEE6__initIPKcLi0EEEvT_S9_, symObjAddr: 0x268FC, symBinAddr: 0x10002AF08, symSize: 0x54 }
  - { offsetInCU: 0x38D6E, offset: 0x38D6E, size: 0x8, addend: 0x0, symName: __ZNSt3__112basic_stringIcNS_11char_traitsIcEENS_9allocatorIcEEE16__init_with_sizeB8ue170006IPKcS8_EEvT_T0_m, symObjAddr: 0x2697C, symBinAddr: 0x10002AF88, symSize: 0x17C }
  - { offsetInCU: 0x38E01, offset: 0x38E01, size: 0x8, addend: 0x0, symName: __ZN4Pika8STLValueINSt3__112basic_stringIcNS1_11char_traitsIcEENS1_9allocatorIcEEEEEC2IA18_cEERKT_, symObjAddr: 0x26B18, symBinAddr: 0x10002B124, symSize: 0x34 }
  - { offsetInCU: 0x38E4C, offset: 0x38E4C, size: 0x8, addend: 0x0, symName: __ZNKSt3__110__equal_toclB8ue170006IccEEbRKT_RKT0_, symObjAddr: 0x26C1C, symBinAddr: 0x10002B228, symSize: 0x34 }
  - { offsetInCU: 0x38EBE, offset: 0x38EBE, size: 0x8, addend: 0x0, symName: __ZNSt3__14pairINS_11__wrap_iterIPKcEES4_EC1B8ue170006ERKS4_S7_, symObjAddr: 0x26FF4, symBinAddr: 0x10002B600, symSize: 0x3C }
  - { offsetInCU: 0x38F04, offset: 0x38F04, size: 0x8, addend: 0x0, symName: __ZNSt3__14pairINS_11__wrap_iterIPKcEES4_EC2B8ue170006ERKS4_S7_, symObjAddr: 0x27030, symBinAddr: 0x10002B63C, symSize: 0x34 }
  - { offsetInCU: 0x38F4A, offset: 0x38F4A, size: 0x8, addend: 0x0, symName: __ZNSt3__18_IterOpsINS_17_ClassicAlgPolicyEE12__advance_toB8ue170006INS_11__wrap_iterIPKcEEEEvRT_S8_, symObjAddr: 0x27064, symBinAddr: 0x10002B670, symSize: 0x20 }
  - { offsetInCU: 0x38F8E, offset: 0x38F8E, size: 0x8, addend: 0x0, symName: __ZNKSt3__110__identityclB8ue170006IRKcEEOT_S5_, symObjAddr: 0x27120, symBinAddr: 0x10002B72C, symSize: 0x18 }
  - { offsetInCU: 0x38FCB, offset: 0x38FCB, size: 0x8, addend: 0x0, symName: __ZNSt3__118__unwrap_iter_implINS_11__wrap_iterIPKcEELb1EE8__rewrapB8ue170006ES4_S3_, symObjAddr: 0x271C4, symBinAddr: 0x10002B7D0, symSize: 0x54 }
  - { offsetInCU: 0x39001, offset: 0x39001, size: 0x8, addend: 0x0, symName: __ZNSt3__119__to_address_helperINS_11__wrap_iterIPKcEEvE6__callB8ue170006ERKS4_, symObjAddr: 0x2723C, symBinAddr: 0x10002B848, symSize: 0x30 }
  - { offsetInCU: 0x39024, offset: 0x39024, size: 0x8, addend: 0x0, symName: __ZNSt3__114pointer_traitsINS_11__wrap_iterIPKcEEE10to_addressB8ue170006ES4_, symObjAddr: 0x2726C, symBinAddr: 0x10002B878, symSize: 0x2C }
  - { offsetInCU: 0x39047, offset: 0x39047, size: 0x8, addend: 0x0, symName: __ZNSt3__118__unwrap_iter_implINS_11__wrap_iterIPKcEELb1EE8__unwrapB8ue170006ES4_, symObjAddr: 0x27298, symBinAddr: 0x10002B8A4, symSize: 0x28 }
  - { offsetInCU: 0x3906A, offset: 0x3906A, size: 0x8, addend: 0x0, symName: __ZNSt3__112basic_stringIcNS_11char_traitsIcEENS_9allocatorIcEEEC1IN4Pika8STLValueIS5_EELi0EEERKT_, symObjAddr: 0x27380, symBinAddr: 0x10002B98C, symSize: 0x34 }
  - { offsetInCU: 0x390B2, offset: 0x390B2, size: 0x8, addend: 0x0, symName: __ZNSt3__112basic_stringIcNS_11char_traitsIcEENS_9allocatorIcEEEC2IN4Pika8STLValueIS5_EELi0EEERKT_, symObjAddr: 0x273B4, symBinAddr: 0x10002B9C0, symSize: 0x78 }
  - { offsetInCU: 0x39117, offset: 0x39117, size: 0x8, addend: 0x0, symName: __ZNKSt3__112basic_stringIcNS_11char_traitsIcEENS_9allocatorIcEEEcvNS_17basic_string_viewIcS2_EEB8ue170006Ev, symObjAddr: 0x2742C, symBinAddr: 0x10002BA38, symSize: 0x50 }
  - { offsetInCU: 0x3913D, offset: 0x3913D, size: 0x8, addend: 0x0, symName: __ZNKSt3__117basic_string_viewIcNS_11char_traitsIcEEE4dataB8ue170006Ev, symObjAddr: 0x2747C, symBinAddr: 0x10002BA88, symSize: 0x18 }
  - { offsetInCU: 0x39163, offset: 0x39163, size: 0x8, addend: 0x0, symName: __ZNKSt3__117basic_string_viewIcNS_11char_traitsIcEEE4sizeB8ue170006Ev, symObjAddr: 0x27494, symBinAddr: 0x10002BAA0, symSize: 0x18 }
  - { offsetInCU: 0x39189, offset: 0x39189, size: 0x8, addend: 0x0, symName: __ZNSt3__117basic_string_viewIcNS_11char_traitsIcEEEC1B8ue170006EPKcm, symObjAddr: 0x274AC, symBinAddr: 0x10002BAB8, symSize: 0x3C }
  - { offsetInCU: 0x391D1, offset: 0x391D1, size: 0x8, addend: 0x0, symName: __ZNSt3__117basic_string_viewIcNS_11char_traitsIcEEEC2B8ue170006EPKcm, symObjAddr: 0x274E8, symBinAddr: 0x10002BAF4, symSize: 0x2C }
  - { offsetInCU: 0x39219, offset: 0x39219, size: 0x8, addend: 0x0, symName: __ZNSt3__114numeric_limitsIdE8infinityB8ue170006Ev, symObjAddr: 0x27CC8, symBinAddr: 0x10002C2D4, symSize: 0x14 }
  - { offsetInCU: 0x3922D, offset: 0x3922D, size: 0x8, addend: 0x0, symName: __ZNSt3__123__libcpp_numeric_limitsIdLb1EE8infinityB8ue170006Ev, symObjAddr: 0x2806C, symBinAddr: 0x10002C678, symSize: 0xC }
  - { offsetInCU: 0x39241, offset: 0x39241, size: 0x8, addend: 0x0, symName: __ZN4Pika8STLValueINSt3__112basic_stringIcNS1_11char_traitsIcEENS1_9allocatorIcEEEEEC2Ed, symObjAddr: 0x28078, symBinAddr: 0x10002C684, symSize: 0x80 }
  - { offsetInCU: 0x39279, offset: 0x39279, size: 0x8, addend: 0x0, symName: __ZN4Pika6ScriptINS_9StdConfigEE5Frame8binaryOpINSt3__17dividesIdEEEEbRNS5_11__wrap_iterIPKcEERKSB_RNS5_4pairIbNS_8STLValueINS5_12basic_stringIcNS5_11char_traitsIcEENS5_9allocatorIcEEEEEEEEbNS_10PrecedenceEiSQ_T_, symObjAddr: 0x280F8, symBinAddr: 0x10002C704, symSize: 0x2F4 }
  - { offsetInCU: 0x39334, offset: 0x39334, size: 0x8, addend: 0x0, symName: __ZNKSt3__17dividesIdEclB8ue170006ERKdS3_, symObjAddr: 0x283EC, symBinAddr: 0x10002C9F8, symSize: 0x2C }
  - { offsetInCU: 0x39376, offset: 0x39376, size: 0x8, addend: 0x0, symName: __ZN4Pika6ScriptINS_9StdConfigEE5Frame12assignableOpINSt3__14plusIdEEEEbRNS5_11__wrap_iterIPKcEERKSB_RNS5_4pairIbNS_8STLValueINS5_12basic_stringIcNS5_11char_traitsIcEENS5_9allocatorIcEEEEEEEEbNS_10PrecedenceEiSQ_T_, symObjAddr: 0x28418, symBinAddr: 0x10002CA24, symSize: 0x3BC }
  - { offsetInCU: 0x39431, offset: 0x39431, size: 0x8, addend: 0x0, symName: __ZNKSt3__14plusIdEclB8ue170006ERKdS3_, symObjAddr: 0x287D4, symBinAddr: 0x10002CDE0, symSize: 0x2C }
  - { offsetInCU: 0x39473, offset: 0x39473, size: 0x8, addend: 0x0, symName: __ZN4Pika6ScriptINS_9StdConfigEE5Frame8binaryOpINSt3__14plusIdEEEEbRNS5_11__wrap_iterIPKcEERKSB_RNS5_4pairIbNS_8STLValueINS5_12basic_stringIcNS5_11char_traitsIcEENS5_9allocatorIcEEEEEEEEbNS_10PrecedenceEiSQ_T_, symObjAddr: 0x28800, symBinAddr: 0x10002CE0C, symSize: 0x2F4 }
  - { offsetInCU: 0x3952E, offset: 0x3952E, size: 0x8, addend: 0x0, symName: __ZN4Pika6ScriptINS_9StdConfigEE5Frame12assignableOpINSt3__15minusIdEEEEbRNS5_11__wrap_iterIPKcEERKSB_RNS5_4pairIbNS_8STLValueINS5_12basic_stringIcNS5_11char_traitsIcEENS5_9allocatorIcEEEEEEEEbNS_10PrecedenceEiSQ_T_, symObjAddr: 0x28AF4, symBinAddr: 0x10002D100, symSize: 0x3BC }
  - { offsetInCU: 0x395E9, offset: 0x395E9, size: 0x8, addend: 0x0, symName: __ZNKSt3__15minusIdEclB8ue170006ERKdS3_, symObjAddr: 0x28EB0, symBinAddr: 0x10002D4BC, symSize: 0x2C }
  - { offsetInCU: 0x3962B, offset: 0x3962B, size: 0x8, addend: 0x0, symName: __ZN4Pika6ScriptINS_9StdConfigEE5Frame8binaryOpINSt3__15minusIdEEEEbRNS5_11__wrap_iterIPKcEERKSB_RNS5_4pairIbNS_8STLValueINS5_12basic_stringIcNS5_11char_traitsIcEENS5_9allocatorIcEEEEEEEEbNS_10PrecedenceEiSQ_T_, symObjAddr: 0x28EDC, symBinAddr: 0x10002D4E8, symSize: 0x2F4 }
  - { offsetInCU: 0x396E6, offset: 0x396E6, size: 0x8, addend: 0x0, symName: __ZN4Pika6ScriptINS_9StdConfigEE5Frame8binaryOpINSt3__14plusINS5_12basic_stringIcNS5_11char_traitsIcEENS5_9allocatorIcEEEEEEEEbRNS5_11__wrap_iterIPKcEERKSH_RNS5_4pairIbNS_8STLValueISC_EEEEbNS_10PrecedenceEiSQ_T_, symObjAddr: 0x291D0, symBinAddr: 0x10002D7DC, symSize: 0x2F0 }
  - { offsetInCU: 0x397A1, offset: 0x397A1, size: 0x8, addend: 0x0, symName: __ZNKSt3__14plusINS_12basic_stringIcNS_11char_traitsIcEENS_9allocatorIcEEEEEclB8ue170006ERKS6_S9_, symObjAddr: 0x294C0, symBinAddr: 0x10002DACC, symSize: 0x38 }
  - { offsetInCU: 0x397E3, offset: 0x397E3, size: 0x8, addend: 0x0, symName: __ZN4Pika6ScriptINS_9StdConfigEE5Frame8binaryOpINSt3__110multipliesIdEEEEbRNS5_11__wrap_iterIPKcEERKSB_RNS5_4pairIbNS_8STLValueINS5_12basic_stringIcNS5_11char_traitsIcEENS5_9allocatorIcEEEEEEEEbNS_10PrecedenceEiSQ_T_, symObjAddr: 0x294F8, symBinAddr: 0x10002DB04, symSize: 0x2F4 }
  - { offsetInCU: 0x3989E, offset: 0x3989E, size: 0x8, addend: 0x0, symName: __ZNKSt3__110multipliesIdEclB8ue170006ERKdS3_, symObjAddr: 0x297EC, symBinAddr: 0x10002DDF8, symSize: 0x2C }
  - { offsetInCU: 0x398E0, offset: 0x398E0, size: 0x8, addend: 0x0, symName: __ZN4Pika6ScriptINS_9StdConfigEE5Frame8binaryOpIPFlllEEEbRNSt3__111__wrap_iterIPKcEERKSB_RNS7_4pairIbNS_8STLValueINS7_12basic_stringIcNS7_11char_traitsIcEENS7_9allocatorIcEEEEEEEEbNS_10PrecedenceEiSQ_T_, symObjAddr: 0x29818, symBinAddr: 0x10002DE24, symSize: 0x2F4 }
  - { offsetInCU: 0x3999C, offset: 0x3999C, size: 0x8, addend: 0x0, symName: __ZN4Pika6ScriptINS_9StdConfigEE5Frame8binaryOpIPFdddEEEbRNSt3__111__wrap_iterIPKcEERKSB_RNS7_4pairIbNS_8STLValueINS7_12basic_stringIcNS7_11char_traitsIcEENS7_9allocatorIcEEEEEEEEbNS_10PrecedenceEiSQ_T_, symObjAddr: 0x29B0C, symBinAddr: 0x10002E118, symSize: 0x2F4 }
  - { offsetInCU: 0x39A58, offset: 0x39A58, size: 0x8, addend: 0x0, symName: __ZN4Pika6ScriptINS_9StdConfigEE5Frame8binaryOpIPFmmmEEEbRNSt3__111__wrap_iterIPKcEERKSB_RNS7_4pairIbNS_8STLValueINS7_12basic_stringIcNS7_11char_traitsIcEENS7_9allocatorIcEEEEEEEEbNS_10PrecedenceEiSQ_T_, symObjAddr: 0x29E00, symBinAddr: 0x10002E40C, symSize: 0x2F4 }
  - { offsetInCU: 0x39B14, offset: 0x39B14, size: 0x8, addend: 0x0, symName: __ZN4Pika6ScriptINS_9StdConfigEE5Frame12assignableOpIPFmmiEEEbRNSt3__111__wrap_iterIPKcEERKSB_RNS7_4pairIbNS_8STLValueINS7_12basic_stringIcNS7_11char_traitsIcEENS7_9allocatorIcEEEEEEEEbNS_10PrecedenceEiSQ_T_, symObjAddr: 0x2A0F4, symBinAddr: 0x10002E700, symSize: 0x3C8 }
  - { offsetInCU: 0x39BD0, offset: 0x39BD0, size: 0x8, addend: 0x0, symName: __ZN4Pika6ScriptINS_9StdConfigEE5Frame8binaryOpINSt3__110less_equalINS_8STLValueINS5_12basic_stringIcNS5_11char_traitsIcEENS5_9allocatorIcEEEEEEEEEEbRNS5_11__wrap_iterIPKcEERKSJ_RNS5_4pairIbSE_EEbNS_10PrecedenceEiSQ_T_, symObjAddr: 0x2A4BC, symBinAddr: 0x10002EAC8, symSize: 0x2C8 }
  - { offsetInCU: 0x39C8B, offset: 0x39C8B, size: 0x8, addend: 0x0, symName: __ZN4Pika6ScriptINS_9StdConfigEE5Frame8binaryOpINSt3__14lessINS_8STLValueINS5_12basic_stringIcNS5_11char_traitsIcEENS5_9allocatorIcEEEEEEEEEEbRNS5_11__wrap_iterIPKcEERKSJ_RNS5_4pairIbSE_EEbNS_10PrecedenceEiSQ_T_, symObjAddr: 0x2A784, symBinAddr: 0x10002ED90, symSize: 0x2C8 }
  - { offsetInCU: 0x39D46, offset: 0x39D46, size: 0x8, addend: 0x0, symName: __ZN4Pika6ScriptINS_9StdConfigEE5Frame8binaryOpIPFmmiEEEbRNSt3__111__wrap_iterIPKcEERKSB_RNS7_4pairIbNS_8STLValueINS7_12basic_stringIcNS7_11char_traitsIcEENS7_9allocatorIcEEEEEEEEbNS_10PrecedenceEiSQ_T_, symObjAddr: 0x2AA4C, symBinAddr: 0x10002F058, symSize: 0x2F4 }
  - { offsetInCU: 0x39E02, offset: 0x39E02, size: 0x8, addend: 0x0, symName: __ZNKSt3__110less_equalIN4Pika8STLValueINS_12basic_stringIcNS_11char_traitsIcEENS_9allocatorIcEEEEEEEclB8ue170006ERKS9_SC_, symObjAddr: 0x2AD40, symBinAddr: 0x10002F34C, symSize: 0x34 }
  - { offsetInCU: 0x39E46, offset: 0x39E46, size: 0x8, addend: 0x0, symName: __ZNK4Pika8STLValueINSt3__112basic_stringIcNS1_11char_traitsIcEENS1_9allocatorIcEEEEEleERKS8_, symObjAddr: 0x2AD74, symBinAddr: 0x10002F380, symSize: 0x34 }
  - { offsetInCU: 0x39E7A, offset: 0x39E7A, size: 0x8, addend: 0x0, symName: __ZNK4Pika8STLValueINSt3__112basic_stringIcNS1_11char_traitsIcEENS1_9allocatorIcEEEEEltERKS8_, symObjAddr: 0x2ADA8, symBinAddr: 0x10002F3B4, symSize: 0xD0 }
  - { offsetInCU: 0x39EEC, offset: 0x39EEC, size: 0x8, addend: 0x0, symName: __ZNKSt3__112basic_stringIcNS_11char_traitsIcEENS_9allocatorIcEEE7compareB8ue170006ERKS5_, symObjAddr: 0x2AEB0, symBinAddr: 0x10002F4BC, symSize: 0x4C }
  - { offsetInCU: 0x39F23, offset: 0x39F23, size: 0x8, addend: 0x0, symName: __ZNKSt3__112basic_stringIcNS_11char_traitsIcEENS_9allocatorIcEEE7compareINS_17basic_string_viewIcS2_EELi0EEEiRKT_, symObjAddr: 0x2AEFC, symBinAddr: 0x10002F508, symSize: 0x140 }
  - { offsetInCU: 0x39FA6, offset: 0x39FA6, size: 0x8, addend: 0x0, symName: __ZNSt3__111char_traitsIcE7compareB8ue170006EPKcS3_m, symObjAddr: 0x2B03C, symBinAddr: 0x10002F648, symSize: 0x64 }
  - { offsetInCU: 0x39FE5, offset: 0x39FE5, size: 0x8, addend: 0x0, symName: __ZNKSt3__14lessIN4Pika8STLValueINS_12basic_stringIcNS_11char_traitsIcEENS_9allocatorIcEEEEEEEclB8ue170006ERKS9_SC_, symObjAddr: 0x2B0A0, symBinAddr: 0x10002F6AC, symSize: 0x34 }
  - { offsetInCU: 0x3A029, offset: 0x3A029, size: 0x8, addend: 0x0, symName: __ZN4Pika6ScriptINS_9StdConfigEE5Frame8binaryOpINSt3__113greater_equalINS_8STLValueINS5_12basic_stringIcNS5_11char_traitsIcEENS5_9allocatorIcEEEEEEEEEEbRNS5_11__wrap_iterIPKcEERKSJ_RNS5_4pairIbSE_EEbNS_10PrecedenceEiSQ_T_, symObjAddr: 0x2B0D4, symBinAddr: 0x10002F6E0, symSize: 0x2C8 }
  - { offsetInCU: 0x3A0E4, offset: 0x3A0E4, size: 0x8, addend: 0x0, symName: __ZN4Pika6ScriptINS_9StdConfigEE5Frame8binaryOpINSt3__17greaterINS_8STLValueINS5_12basic_stringIcNS5_11char_traitsIcEENS5_9allocatorIcEEEEEEEEEEbRNS5_11__wrap_iterIPKcEERKSJ_RNS5_4pairIbSE_EEbNS_10PrecedenceEiSQ_T_, symObjAddr: 0x2B39C, symBinAddr: 0x10002F9A8, symSize: 0x2C8 }
  - { offsetInCU: 0x3A19F, offset: 0x3A19F, size: 0x8, addend: 0x0, symName: __ZNKSt3__113greater_equalIN4Pika8STLValueINS_12basic_stringIcNS_11char_traitsIcEENS_9allocatorIcEEEEEEEclB8ue170006ERKS9_SC_, symObjAddr: 0x2B664, symBinAddr: 0x10002FC70, symSize: 0x34 }
  - { offsetInCU: 0x3A1E3, offset: 0x3A1E3, size: 0x8, addend: 0x0, symName: __ZNK4Pika8STLValueINSt3__112basic_stringIcNS1_11char_traitsIcEENS1_9allocatorIcEEEEEgeERKS8_, symObjAddr: 0x2B698, symBinAddr: 0x10002FCA4, symSize: 0x34 }
  - { offsetInCU: 0x3A217, offset: 0x3A217, size: 0x8, addend: 0x0, symName: __ZNKSt3__17greaterIN4Pika8STLValueINS_12basic_stringIcNS_11char_traitsIcEENS_9allocatorIcEEEEEEEclB8ue170006ERKS9_SC_, symObjAddr: 0x2B6CC, symBinAddr: 0x10002FCD8, symSize: 0x34 }
  - { offsetInCU: 0x3A25B, offset: 0x3A25B, size: 0x8, addend: 0x0, symName: __ZNK4Pika8STLValueINSt3__112basic_stringIcNS1_11char_traitsIcEENS1_9allocatorIcEEEEEgtERKS8_, symObjAddr: 0x2B700, symBinAddr: 0x10002FD0C, symSize: 0x30 }
  - { offsetInCU: 0x3A28F, offset: 0x3A28F, size: 0x8, addend: 0x0, symName: __ZNKSt3__112not_equal_toINS_12basic_stringIcNS_11char_traitsIcEENS_9allocatorIcEEEEEclB8ue170006ERKS6_S9_, symObjAddr: 0x2B730, symBinAddr: 0x10002FD3C, symSize: 0x34 }
  - { offsetInCU: 0x3A2D3, offset: 0x3A2D3, size: 0x8, addend: 0x0, symName: __ZNKSt3__112not_equal_toIN4Pika8STLValueINS_12basic_stringIcNS_11char_traitsIcEENS_9allocatorIcEEEEEEEclB8ue170006ERKS9_SC_, symObjAddr: 0x2B764, symBinAddr: 0x10002FD70, symSize: 0x34 }
  - { offsetInCU: 0x3A317, offset: 0x3A317, size: 0x8, addend: 0x0, symName: __ZNK4Pika8STLValueINSt3__112basic_stringIcNS1_11char_traitsIcEENS1_9allocatorIcEEEEEneERKS8_, symObjAddr: 0x2B798, symBinAddr: 0x10002FDA4, symSize: 0x34 }
  - { offsetInCU: 0x3A34B, offset: 0x3A34B, size: 0x8, addend: 0x0, symName: __ZNK4Pika8STLValueINSt3__112basic_stringIcNS1_11char_traitsIcEENS1_9allocatorIcEEEEEeqERKS8_, symObjAddr: 0x2B7CC, symBinAddr: 0x10002FDD8, symSize: 0xCC }
  - { offsetInCU: 0x3A3BD, offset: 0x3A3BD, size: 0x8, addend: 0x0, symName: __ZNKSt3__18equal_toINS_12basic_stringIcNS_11char_traitsIcEENS_9allocatorIcEEEEEclB8ue170006ERKS6_S9_, symObjAddr: 0x2B898, symBinAddr: 0x10002FEA4, symSize: 0x34 }
  - { offsetInCU: 0x3A401, offset: 0x3A401, size: 0x8, addend: 0x0, symName: __ZNKSt3__18equal_toIN4Pika8STLValueINS_12basic_stringIcNS_11char_traitsIcEENS_9allocatorIcEEEEEEEclB8ue170006ERKS9_SC_, symObjAddr: 0x2B8CC, symBinAddr: 0x10002FED8, symSize: 0x34 }
  - { offsetInCU: 0x3A445, offset: 0x3A445, size: 0x8, addend: 0x0, symName: __ZNKSt3__112basic_stringIcNS_11char_traitsIcEENS_9allocatorIcEEE15__get_long_sizeB8ue170006Ev, symObjAddr: 0x2BA40, symBinAddr: 0x10003004C, symSize: 0x28 }
  - { offsetInCU: 0x3A46B, offset: 0x3A46B, size: 0x8, addend: 0x0, symName: __ZNKSt3__112basic_stringIcNS_11char_traitsIcEENS_9allocatorIcEEE16__get_short_sizeB8ue170006Ev, symObjAddr: 0x2BA68, symBinAddr: 0x100030074, symSize: 0x34 }
  - { offsetInCU: 0x3A491, offset: 0x3A491, size: 0x8, addend: 0x0, symName: __ZNSt3__19allocatorIcEC1B8ue170006Ev, symObjAddr: 0x2BA9C, symBinAddr: 0x1000300A8, symSize: 0x2C }
  - { offsetInCU: 0x3A4BB, offset: 0x3A4BB, size: 0x8, addend: 0x0, symName: __ZNSt3__16__treeINS_12__value_typeIKNS_12basic_stringIcNS_11char_traitsIcEENS_9allocatorIcEEEEN4Pika8STLValueIS7_EEEENS_19__map_value_compareIS8_SC_NS_4lessIS8_EELb1EEENS5_ISC_EEE4findIS7_EENS_15__tree_iteratorISC_PNS_11__tree_nodeISC_PvEElEERKT_, symObjAddr: 0x2BAC8, symBinAddr: 0x1000300D4, symSize: 0xF8 }
  - { offsetInCU: 0x3A50A, offset: 0x3A50A, size: 0x8, addend: 0x0, symName: __ZNSt3__114__map_iteratorINS_15__tree_iteratorINS_12__value_typeIKNS_12basic_stringIcNS_11char_traitsIcEENS_9allocatorIcEEEEN4Pika8STLValueIS8_EEEEPNS_11__tree_nodeISD_PvEElEEEC1B8ue170006ESI_, symObjAddr: 0x2BBC0, symBinAddr: 0x1000301CC, symSize: 0x34 }
  - { offsetInCU: 0x3A543, offset: 0x3A543, size: 0x8, addend: 0x0, symName: __ZNSt3__16__treeINS_12__value_typeIKNS_12basic_stringIcNS_11char_traitsIcEENS_9allocatorIcEEEEN4Pika8STLValueIS7_EEEENS_19__map_value_compareIS8_SC_NS_4lessIS8_EELb1EEENS5_ISC_EEE13__lower_boundIS7_EENS_15__tree_iteratorISC_PNS_11__tree_nodeISC_PvEElEERKT_SO_PNS_15__tree_end_nodeIPNS_16__tree_node_baseISM_EEEE, symObjAddr: 0x2BBF4, symBinAddr: 0x100030200, symSize: 0xA4 }
  - { offsetInCU: 0x3A5A1, offset: 0x3A5A1, size: 0x8, addend: 0x0, symName: __ZNSt3__16__treeINS_12__value_typeIKNS_12basic_stringIcNS_11char_traitsIcEENS_9allocatorIcEEEEN4Pika8STLValueIS7_EEEENS_19__map_value_compareIS8_SC_NS_4lessIS8_EELb1EEENS5_ISC_EEE3endB8ue170006Ev, symObjAddr: 0x2BCCC, symBinAddr: 0x1000302D8, symSize: 0x34 }
  - { offsetInCU: 0x3A5C7, offset: 0x3A5C7, size: 0x8, addend: 0x0, symName: __ZNSt3__16__treeINS_12__value_typeIKNS_12basic_stringIcNS_11char_traitsIcEENS_9allocatorIcEEEEN4Pika8STLValueIS7_EEEENS_19__map_value_compareIS8_SC_NS_4lessIS8_EELb1EEENS5_ISC_EEE10value_compB8ue170006Ev, symObjAddr: 0x2BD00, symBinAddr: 0x10003030C, symSize: 0x28 }
  - { offsetInCU: 0x3A5ED, offset: 0x3A5ED, size: 0x8, addend: 0x0, symName: __ZNKSt3__119__map_value_compareIKNS_12basic_stringIcNS_11char_traitsIcEENS_9allocatorIcEEEENS_12__value_typeIS7_N4Pika8STLValueIS6_EEEENS_4lessIS7_EELb1EEclB8ue170006ERS7_RKSC_, symObjAddr: 0x2BD28, symBinAddr: 0x100030334, symSize: 0x50 }
  - { offsetInCU: 0x3A631, offset: 0x3A631, size: 0x8, addend: 0x0, symName: __ZNKSt3__115__tree_iteratorINS_12__value_typeIKNS_12basic_stringIcNS_11char_traitsIcEENS_9allocatorIcEEEEN4Pika8STLValueIS7_EEEEPNS_11__tree_nodeISC_PvEElEdeB8ue170006Ev, symObjAddr: 0x2BD78, symBinAddr: 0x100030384, symSize: 0x28 }
  - { offsetInCU: 0x3A657, offset: 0x3A657, size: 0x8, addend: 0x0, symName: __ZNKSt3__119__map_value_compareIKNS_12basic_stringIcNS_11char_traitsIcEENS_9allocatorIcEEEENS_12__value_typeIS7_N4Pika8STLValueIS6_EEEENS_4lessIS7_EELb1EEclB8ue170006ERKSC_RS7_, symObjAddr: 0x2BDA0, symBinAddr: 0x1000303AC, symSize: 0x48 }
  - { offsetInCU: 0x3A69B, offset: 0x3A69B, size: 0x8, addend: 0x0, symName: __ZNSt3__115__tree_iteratorINS_12__value_typeIKNS_12basic_stringIcNS_11char_traitsIcEENS_9allocatorIcEEEEN4Pika8STLValueIS7_EEEEPNS_11__tree_nodeISC_PvEElEC1B8ue170006EPNS_15__tree_end_nodeIPNS_16__tree_node_baseISE_EEEE, symObjAddr: 0x2BDE8, symBinAddr: 0x1000303F4, symSize: 0x34 }
  - { offsetInCU: 0x3A6D4, offset: 0x3A6D4, size: 0x8, addend: 0x0, symName: __ZNKSt3__14lessIKNS_12basic_stringIcNS_11char_traitsIcEENS_9allocatorIcEEEEEclB8ue170006ERS7_S9_, symObjAddr: 0x2BE1C, symBinAddr: 0x100030428, symSize: 0x34 }
  - { offsetInCU: 0x3A718, offset: 0x3A718, size: 0x8, addend: 0x0, symName: __ZNKSt3__112__value_typeIKNS_12basic_stringIcNS_11char_traitsIcEENS_9allocatorIcEEEEN4Pika8STLValueIS6_EEE11__get_valueB8ue170006Ev, symObjAddr: 0x2BE50, symBinAddr: 0x10003045C, symSize: 0x14 }
  - { offsetInCU: 0x3A73E, offset: 0x3A73E, size: 0x8, addend: 0x0, symName: __ZNSt3__115__tree_iteratorINS_12__value_typeIKNS_12basic_stringIcNS_11char_traitsIcEENS_9allocatorIcEEEEN4Pika8STLValueIS7_EEEEPNS_11__tree_nodeISC_PvEElEC2B8ue170006EPNS_15__tree_end_nodeIPNS_16__tree_node_baseISE_EEEE, symObjAddr: 0x2BE64, symBinAddr: 0x100030470, symSize: 0x20 }
  - { offsetInCU: 0x3A777, offset: 0x3A777, size: 0x8, addend: 0x0, symName: __ZNSt3__117__compressed_pairImNS_19__map_value_compareIKNS_12basic_stringIcNS_11char_traitsIcEENS_9allocatorIcEEEENS_12__value_typeIS8_N4Pika8STLValueIS7_EEEENS_4lessIS8_EELb1EEEE6secondB8ue170006Ev, symObjAddr: 0x2BEB4, symBinAddr: 0x1000304C0, symSize: 0x24 }
  - { offsetInCU: 0x3A79D, offset: 0x3A79D, size: 0x8, addend: 0x0, symName: __ZNSt3__122__compressed_pair_elemINS_19__map_value_compareIKNS_12basic_stringIcNS_11char_traitsIcEENS_9allocatorIcEEEENS_12__value_typeIS8_N4Pika8STLValueIS7_EEEENS_4lessIS8_EELb1EEELi1ELb1EE5__getB8ue170006Ev, symObjAddr: 0x2BED8, symBinAddr: 0x1000304E4, symSize: 0x14 }
  - { offsetInCU: 0x3A7C3, offset: 0x3A7C3, size: 0x8, addend: 0x0, symName: __ZNKSt3__115__tree_iteratorINS_12__value_typeIKNS_12basic_stringIcNS_11char_traitsIcEENS_9allocatorIcEEEEN4Pika8STLValueIS7_EEEEPNS_11__tree_nodeISC_PvEElE8__get_npB8ue170006Ev, symObjAddr: 0x2BEEC, symBinAddr: 0x1000304F8, symSize: 0x18 }
  - { offsetInCU: 0x3A7E9, offset: 0x3A7E9, size: 0x8, addend: 0x0, symName: __ZNSt3__114__map_iteratorINS_15__tree_iteratorINS_12__value_typeIKNS_12basic_stringIcNS_11char_traitsIcEENS_9allocatorIcEEEEN4Pika8STLValueIS8_EEEEPNS_11__tree_nodeISD_PvEElEEEC2B8ue170006ESI_, symObjAddr: 0x2BF04, symBinAddr: 0x100030510, symSize: 0x20 }
  - { offsetInCU: 0x3A822, offset: 0x3A822, size: 0x8, addend: 0x0, symName: __ZNSt3__120__map_const_iteratorINS_21__tree_const_iteratorINS_12__value_typeIKNS_12basic_stringIcNS_11char_traitsIcEENS_9allocatorIcEEEEN4Pika8STLValueIS8_EEEEPNS_11__tree_nodeISD_PvEElEEEC2B8ue170006ENS_14__map_iteratorINS_15__tree_iteratorISD_SH_lEEEE, symObjAddr: 0x2BF24, symBinAddr: 0x100030530, symSize: 0x3C }
  - { offsetInCU: 0x3A85B, offset: 0x3A85B, size: 0x8, addend: 0x0, symName: __ZNSt3__121__tree_const_iteratorINS_12__value_typeIKNS_12basic_stringIcNS_11char_traitsIcEENS_9allocatorIcEEEEN4Pika8STLValueIS7_EEEEPNS_11__tree_nodeISC_PvEElEC1B8ue170006ENS_15__tree_iteratorISC_SG_lEE, symObjAddr: 0x2BF60, symBinAddr: 0x10003056C, symSize: 0x34 }
  - { offsetInCU: 0x3A894, offset: 0x3A894, size: 0x8, addend: 0x0, symName: __ZNSt3__121__tree_const_iteratorINS_12__value_typeIKNS_12basic_stringIcNS_11char_traitsIcEENS_9allocatorIcEEEEN4Pika8STLValueIS7_EEEEPNS_11__tree_nodeISC_PvEElEC2B8ue170006ENS_15__tree_iteratorISC_SG_lEE, symObjAddr: 0x2BF94, symBinAddr: 0x1000305A0, symSize: 0x20 }
  - { offsetInCU: 0x3A8CD, offset: 0x3A8CD, size: 0x8, addend: 0x0, symName: __ZNSt3__114pointer_traitsIPKNS_4pairIKNS_12basic_stringIcNS_11char_traitsIcEENS_9allocatorIcEEEEN4Pika8STLValueIS7_EEEEE10pointer_toB8ue170006ERSD_, symObjAddr: 0x2BFE4, symBinAddr: 0x1000305F0, symSize: 0x14 }
  - { offsetInCU: 0x3A8F0, offset: 0x3A8F0, size: 0x8, addend: 0x0, symName: __ZNKSt3__121__tree_const_iteratorINS_12__value_typeIKNS_12basic_stringIcNS_11char_traitsIcEENS_9allocatorIcEEEEN4Pika8STLValueIS7_EEEEPNS_11__tree_nodeISC_PvEElEptB8ue170006Ev, symObjAddr: 0x2BFF8, symBinAddr: 0x100030604, symSize: 0x2C }
  - { offsetInCU: 0x3A916, offset: 0x3A916, size: 0x8, addend: 0x0, symName: __ZNSt3__114pointer_traitsIPKNS_12__value_typeIKNS_12basic_stringIcNS_11char_traitsIcEENS_9allocatorIcEEEEN4Pika8STLValueIS7_EEEEE10pointer_toB8ue170006ERSD_, symObjAddr: 0x2C024, symBinAddr: 0x100030630, symSize: 0x14 }
  - { offsetInCU: 0x3A939, offset: 0x3A939, size: 0x8, addend: 0x0, symName: __ZNKSt3__121__tree_const_iteratorINS_12__value_typeIKNS_12basic_stringIcNS_11char_traitsIcEENS_9allocatorIcEEEEN4Pika8STLValueIS7_EEEEPNS_11__tree_nodeISC_PvEElE8__get_npB8ue170006Ev, symObjAddr: 0x2C038, symBinAddr: 0x100030644, symSize: 0x18 }
  - { offsetInCU: 0x3A95F, offset: 0x3A95F, size: 0x8, addend: 0x0, symName: __ZNSt3__16__treeINS_12__value_typeIKNS_12basic_stringIcNS_11char_traitsIcEENS_9allocatorIcEEEEN4Pika8STLValueIS7_EEEENS_19__map_value_compareIS8_SC_NS_4lessIS8_EELb1EEENS5_ISC_EEE12__find_equalIS7_EERPNS_16__tree_node_baseIPvEERPNS_15__tree_end_nodeISN_EERKT_, symObjAddr: 0x2C050, symBinAddr: 0x10003065C, symSize: 0x184 }
  - { offsetInCU: 0x3A9CC, offset: 0x3A9CC, size: 0x8, addend: 0x0, symName: __ZNSt3__13mapIKNS_12basic_stringIcNS_11char_traitsIcEENS_9allocatorIcEEEEN4Pika8STLValueIS6_EENS_4lessIS7_EENS4_INS_4pairIS7_SA_EEEEE25__construct_node_with_keyERS7_, symObjAddr: 0x2C1D4, symBinAddr: 0x1000307E0, symSize: 0x144 }
  - { offsetInCU: 0x3AA22, offset: 0x3AA22, size: 0x8, addend: 0x0, symName: __ZNSt3__16__treeINS_12__value_typeIKNS_12basic_stringIcNS_11char_traitsIcEENS_9allocatorIcEEEEN4Pika8STLValueIS7_EEEENS_19__map_value_compareIS8_SC_NS_4lessIS8_EELb1EEENS5_ISC_EEE16__insert_node_atEPNS_15__tree_end_nodeIPNS_16__tree_node_baseIPvEEEERSN_SN_, symObjAddr: 0x2C318, symBinAddr: 0x100030924, symSize: 0xCC }
  - { offsetInCU: 0x3AA77, offset: 0x3AA77, size: 0x8, addend: 0x0, symName: __ZNKSt3__110unique_ptrINS_11__tree_nodeINS_12__value_typeIKNS_12basic_stringIcNS_11char_traitsIcEENS_9allocatorIcEEEEN4Pika8STLValueIS8_EEEEPvEENS_21__map_node_destructorINS6_ISF_EEEEE3getB8ue170006Ev, symObjAddr: 0x2C3E4, symBinAddr: 0x1000309F0, symSize: 0x28 }
  - { offsetInCU: 0x3AA9D, offset: 0x3AA9D, size: 0x8, addend: 0x0, symName: __ZNSt3__110unique_ptrINS_11__tree_nodeINS_12__value_typeIKNS_12basic_stringIcNS_11char_traitsIcEENS_9allocatorIcEEEEN4Pika8STLValueIS8_EEEEPvEENS_21__map_node_destructorINS6_ISF_EEEEE7releaseB8ue170006Ev, symObjAddr: 0x2C40C, symBinAddr: 0x100030A18, symSize: 0x44 }
  - { offsetInCU: 0x3AAD2, offset: 0x3AAD2, size: 0x8, addend: 0x0, symName: __ZNSt3__110unique_ptrINS_11__tree_nodeINS_12__value_typeIKNS_12basic_stringIcNS_11char_traitsIcEENS_9allocatorIcEEEEN4Pika8STLValueIS8_EEEEPvEENS_21__map_node_destructorINS6_ISF_EEEEED1B8ue170006Ev, symObjAddr: 0x2C450, symBinAddr: 0x100030A5C, symSize: 0x2C }
  - { offsetInCU: 0x3AAFC, offset: 0x3AAFC, size: 0x8, addend: 0x0, symName: __ZNKSt3__16__treeINS_12__value_typeIKNS_12basic_stringIcNS_11char_traitsIcEENS_9allocatorIcEEEEN4Pika8STLValueIS7_EEEENS_19__map_value_compareIS8_SC_NS_4lessIS8_EELb1EEENS5_ISC_EEE10__root_ptrB8ue170006Ev, symObjAddr: 0x2C47C, symBinAddr: 0x100030A88, symSize: 0x24 }
  - { offsetInCU: 0x3AB22, offset: 0x3AB22, size: 0x8, addend: 0x0, symName: __ZNSt3__116allocator_traitsINS_9allocatorINS_11__tree_nodeINS_12__value_typeIKNS_12basic_stringIcNS_11char_traitsIcEENS1_IcEEEEN4Pika8STLValueIS8_EEEEPvEEEEE8allocateB8ue170006ERSG_m, symObjAddr: 0x2C4A0, symBinAddr: 0x100030AAC, symSize: 0x2C }
  - { offsetInCU: 0x3AB55, offset: 0x3AB55, size: 0x8, addend: 0x0, symName: __ZNSt3__121__map_node_destructorINS_9allocatorINS_11__tree_nodeINS_12__value_typeIKNS_12basic_stringIcNS_11char_traitsIcEENS1_IcEEEEN4Pika8STLValueIS8_EEEEPvEEEEEC1B8ue170006ERSG_, symObjAddr: 0x2C4CC, symBinAddr: 0x100030AD8, symSize: 0x34 }
  - { offsetInCU: 0x3AB93, offset: 0x3AB93, size: 0x8, addend: 0x0, symName: __ZNSt3__110unique_ptrINS_11__tree_nodeINS_12__value_typeIKNS_12basic_stringIcNS_11char_traitsIcEENS_9allocatorIcEEEEN4Pika8STLValueIS8_EEEEPvEENS_21__map_node_destructorINS6_ISF_EEEEEC1B8ue170006ILb1EvEEPSF_NS_16__dependent_typeINS_27__unique_ptr_deleter_sfinaeISI_EEXT_EE20__good_rval_ref_typeE, symObjAddr: 0x2C500, symBinAddr: 0x100030B0C, symSize: 0x3C }
  - { offsetInCU: 0x3ABE9, offset: 0x3ABE9, size: 0x8, addend: 0x0, symName: __ZNSt3__116allocator_traitsINS_9allocatorINS_11__tree_nodeINS_12__value_typeIKNS_12basic_stringIcNS_11char_traitsIcEENS1_IcEEEEN4Pika8STLValueIS8_EEEEPvEEEEE9constructB8ue170006IS9_JRS9_EvEEvRSG_PT_DpOT0_, symObjAddr: 0x2C53C, symBinAddr: 0x100030B48, symSize: 0x34 }
  - { offsetInCU: 0x3AC40, offset: 0x3AC40, size: 0x8, addend: 0x0, symName: __ZNKSt3__110unique_ptrINS_11__tree_nodeINS_12__value_typeIKNS_12basic_stringIcNS_11char_traitsIcEENS_9allocatorIcEEEEN4Pika8STLValueIS8_EEEEPvEENS_21__map_node_destructorINS6_ISF_EEEEEptB8ue170006Ev, symObjAddr: 0x2C570, symBinAddr: 0x100030B7C, symSize: 0x28 }
  - { offsetInCU: 0x3AC66, offset: 0x3AC66, size: 0x8, addend: 0x0, symName: __ZNSt3__110unique_ptrINS_11__tree_nodeINS_12__value_typeIKNS_12basic_stringIcNS_11char_traitsIcEENS_9allocatorIcEEEEN4Pika8STLValueIS8_EEEEPvEENS_21__map_node_destructorINS6_ISF_EEEEE11get_deleterB8ue170006Ev, symObjAddr: 0x2C598, symBinAddr: 0x100030BA4, symSize: 0x24 }
  - { offsetInCU: 0x3AC8C, offset: 0x3AC8C, size: 0x8, addend: 0x0, symName: __ZNSt3__116allocator_traitsINS_9allocatorINS_11__tree_nodeINS_12__value_typeIKNS_12basic_stringIcNS_11char_traitsIcEENS1_IcEEEEN4Pika8STLValueIS8_EEEEPvEEEEE9constructB8ue170006ISC_JEvEEvRSG_PT_DpOT0_, symObjAddr: 0x2C5BC, symBinAddr: 0x100030BC8, symSize: 0x2C }
  - { offsetInCU: 0x3ACCE, offset: 0x3ACCE, size: 0x8, addend: 0x0, symName: __ZNSt3__19allocatorINS_11__tree_nodeINS_12__value_typeIKNS_12basic_stringIcNS_11char_traitsIcEENS0_IcEEEEN4Pika8STLValueIS7_EEEEPvEEE8allocateB8ue170006Em, symObjAddr: 0x2C5E8, symBinAddr: 0x100030BF4, symSize: 0x8C }
  - { offsetInCU: 0x3AD0C, offset: 0x3AD0C, size: 0x8, addend: 0x0, symName: __ZNSt3__116allocator_traitsINS_9allocatorINS_11__tree_nodeINS_12__value_typeIKNS_12basic_stringIcNS_11char_traitsIcEENS1_IcEEEEN4Pika8STLValueIS8_EEEEPvEEEEE8max_sizeB8ue170006ISG_vEEmRKSG_, symObjAddr: 0x2C674, symBinAddr: 0x100030C80, symSize: 0x24 }
  - { offsetInCU: 0x3AD3A, offset: 0x3AD3A, size: 0x8, addend: 0x0, symName: __ZNKSt3__19allocatorINS_11__tree_nodeINS_12__value_typeIKNS_12basic_stringIcNS_11char_traitsIcEENS0_IcEEEEN4Pika8STLValueIS7_EEEEPvEEE8max_sizeB8ue170006Ev, symObjAddr: 0x2C698, symBinAddr: 0x100030CA4, symSize: 0x18 }
  - { offsetInCU: 0x3AD60, offset: 0x3AD60, size: 0x8, addend: 0x0, symName: __ZNSt3__121__map_node_destructorINS_9allocatorINS_11__tree_nodeINS_12__value_typeIKNS_12basic_stringIcNS_11char_traitsIcEENS1_IcEEEEN4Pika8STLValueIS8_EEEEPvEEEEEC2B8ue170006ERSG_, symObjAddr: 0x2C6B0, symBinAddr: 0x100030CBC, symSize: 0x28 }
  - { offsetInCU: 0x3AD99, offset: 0x3AD99, size: 0x8, addend: 0x0, symName: __ZNSt3__110unique_ptrINS_11__tree_nodeINS_12__value_typeIKNS_12basic_stringIcNS_11char_traitsIcEENS_9allocatorIcEEEEN4Pika8STLValueIS8_EEEEPvEENS_21__map_node_destructorINS6_ISF_EEEEEC2B8ue170006ILb1EvEEPSF_NS_16__dependent_typeINS_27__unique_ptr_deleter_sfinaeISI_EEXT_EE20__good_rval_ref_typeE, symObjAddr: 0x2C6D8, symBinAddr: 0x100030CE4, symSize: 0x5C }
  - { offsetInCU: 0x3ADEA, offset: 0x3ADEA, size: 0x8, addend: 0x0, symName: __ZNSt3__117__compressed_pairIPNS_11__tree_nodeINS_12__value_typeIKNS_12basic_stringIcNS_11char_traitsIcEENS_9allocatorIcEEEEN4Pika8STLValueIS8_EEEEPvEENS_21__map_node_destructorINS6_ISF_EEEEEC1B8ue170006IRSG_SJ_EEOT_OT0_, symObjAddr: 0x2C734, symBinAddr: 0x100030D40, symSize: 0x3C }
  - { offsetInCU: 0x3AE42, offset: 0x3AE42, size: 0x8, addend: 0x0, symName: __ZNSt3__117__compressed_pairIPNS_11__tree_nodeINS_12__value_typeIKNS_12basic_stringIcNS_11char_traitsIcEENS_9allocatorIcEEEEN4Pika8STLValueIS8_EEEEPvEENS_21__map_node_destructorINS6_ISF_EEEEEC2B8ue170006IRSG_SJ_EEOT_OT0_, symObjAddr: 0x2C770, symBinAddr: 0x100030D7C, symSize: 0x48 }
  - { offsetInCU: 0x3AE9A, offset: 0x3AE9A, size: 0x8, addend: 0x0, symName: __ZNSt3__122__compressed_pair_elemIPNS_11__tree_nodeINS_12__value_typeIKNS_12basic_stringIcNS_11char_traitsIcEENS_9allocatorIcEEEEN4Pika8STLValueIS8_EEEEPvEELi0ELb0EEC2B8ue170006IRSG_vEEOT_, symObjAddr: 0x2C7B8, symBinAddr: 0x100030DC4, symSize: 0x24 }
  - { offsetInCU: 0x3AEDC, offset: 0x3AEDC, size: 0x8, addend: 0x0, symName: __ZNSt3__122__compressed_pair_elemINS_21__map_node_destructorINS_9allocatorINS_11__tree_nodeINS_12__value_typeIKNS_12basic_stringIcNS_11char_traitsIcEENS2_IcEEEEN4Pika8STLValueIS9_EEEEPvEEEEEELi1ELb0EEC2B8ue170006ISI_vEEOT_, symObjAddr: 0x2C7DC, symBinAddr: 0x100030DE8, symSize: 0x24 }
  - { offsetInCU: 0x3AF1E, offset: 0x3AF1E, size: 0x8, addend: 0x0, symName: __ZNSt3__19allocatorINS_11__tree_nodeINS_12__value_typeIKNS_12basic_stringIcNS_11char_traitsIcEENS0_IcEEEEN4Pika8STLValueIS7_EEEEPvEEE9constructB8ue170006IS8_JRS8_EEEvPT_DpOT0_, symObjAddr: 0x2C800, symBinAddr: 0x100030E0C, symSize: 0x30 }
  - { offsetInCU: 0x3AF74, offset: 0x3AF74, size: 0x8, addend: 0x0, symName: __ZNKSt3__117__compressed_pairIPNS_11__tree_nodeINS_12__value_typeIKNS_12basic_stringIcNS_11char_traitsIcEENS_9allocatorIcEEEEN4Pika8STLValueIS8_EEEEPvEENS_21__map_node_destructorINS6_ISF_EEEEE5firstB8ue170006Ev, symObjAddr: 0x2C830, symBinAddr: 0x100030E3C, symSize: 0x24 }
  - { offsetInCU: 0x3AF9A, offset: 0x3AF9A, size: 0x8, addend: 0x0, symName: __ZNKSt3__122__compressed_pair_elemIPNS_11__tree_nodeINS_12__value_typeIKNS_12basic_stringIcNS_11char_traitsIcEENS_9allocatorIcEEEEN4Pika8STLValueIS8_EEEEPvEELi0ELb0EE5__getB8ue170006Ev, symObjAddr: 0x2C854, symBinAddr: 0x100030E60, symSize: 0x14 }
  - { offsetInCU: 0x3AFC0, offset: 0x3AFC0, size: 0x8, addend: 0x0, symName: __ZNSt3__117__compressed_pairIPNS_11__tree_nodeINS_12__value_typeIKNS_12basic_stringIcNS_11char_traitsIcEENS_9allocatorIcEEEEN4Pika8STLValueIS8_EEEEPvEENS_21__map_node_destructorINS6_ISF_EEEEE6secondB8ue170006Ev, symObjAddr: 0x2C868, symBinAddr: 0x100030E74, symSize: 0x28 }
  - { offsetInCU: 0x3AFE6, offset: 0x3AFE6, size: 0x8, addend: 0x0, symName: __ZNSt3__122__compressed_pair_elemINS_21__map_node_destructorINS_9allocatorINS_11__tree_nodeINS_12__value_typeIKNS_12basic_stringIcNS_11char_traitsIcEENS2_IcEEEEN4Pika8STLValueIS9_EEEEPvEEEEEELi1ELb0EE5__getB8ue170006Ev, symObjAddr: 0x2C890, symBinAddr: 0x100030E9C, symSize: 0x14 }
  - { offsetInCU: 0x3B00C, offset: 0x3B00C, size: 0x8, addend: 0x0, symName: __ZNSt3__19allocatorINS_11__tree_nodeINS_12__value_typeIKNS_12basic_stringIcNS_11char_traitsIcEENS0_IcEEEEN4Pika8STLValueIS7_EEEEPvEEE9constructB8ue170006ISB_JEEEvPT_DpOT0_, symObjAddr: 0x2C8A4, symBinAddr: 0x100030EB0, symSize: 0x28 }
  - { offsetInCU: 0x3B04E, offset: 0x3B04E, size: 0x8, addend: 0x0, symName: __ZNSt3__16__treeINS_12__value_typeIKNS_12basic_stringIcNS_11char_traitsIcEENS_9allocatorIcEEEEN4Pika8STLValueIS7_EEEENS_19__map_value_compareIS8_SC_NS_4lessIS8_EELb1EEENS5_ISC_EEE4sizeB8ue170006Ev, symObjAddr: 0x2C8CC, symBinAddr: 0x100030ED8, symSize: 0x28 }
  - { offsetInCU: 0x3B074, offset: 0x3B074, size: 0x8, addend: 0x0, symName: __ZNSt3__117__compressed_pairImNS_19__map_value_compareIKNS_12basic_stringIcNS_11char_traitsIcEENS_9allocatorIcEEEENS_12__value_typeIS8_N4Pika8STLValueIS7_EEEENS_4lessIS8_EELb1EEEE5firstB8ue170006Ev, symObjAddr: 0x2C8F4, symBinAddr: 0x100030F00, symSize: 0x24 }
  - { offsetInCU: 0x3B09A, offset: 0x3B09A, size: 0x8, addend: 0x0, symName: __ZNSt3__117__compressed_pairIPNS_11__tree_nodeINS_12__value_typeIKNS_12basic_stringIcNS_11char_traitsIcEENS_9allocatorIcEEEEN4Pika8STLValueIS8_EEEEPvEENS_21__map_node_destructorINS6_ISF_EEEEE5firstB8ue170006Ev, symObjAddr: 0x2C918, symBinAddr: 0x100030F24, symSize: 0x24 }
  - { offsetInCU: 0x3B0C0, offset: 0x3B0C0, size: 0x8, addend: 0x0, symName: __ZNSt3__122__compressed_pair_elemIPNS_11__tree_nodeINS_12__value_typeIKNS_12basic_stringIcNS_11char_traitsIcEENS_9allocatorIcEEEEN4Pika8STLValueIS8_EEEEPvEELi0ELb0EE5__getB8ue170006Ev, symObjAddr: 0x2C93C, symBinAddr: 0x100030F48, symSize: 0x14 }
  - { offsetInCU: 0x3B0E6, offset: 0x3B0E6, size: 0x8, addend: 0x0, symName: __ZNSt3__110unique_ptrINS_11__tree_nodeINS_12__value_typeIKNS_12basic_stringIcNS_11char_traitsIcEENS_9allocatorIcEEEEN4Pika8STLValueIS8_EEEEPvEENS_21__map_node_destructorINS6_ISF_EEEEED2B8ue170006Ev, symObjAddr: 0x2C950, symBinAddr: 0x100030F5C, symSize: 0x30 }
  - { offsetInCU: 0x3B110, offset: 0x3B110, size: 0x8, addend: 0x0, symName: __ZNSt3__110unique_ptrINS_11__tree_nodeINS_12__value_typeIKNS_12basic_stringIcNS_11char_traitsIcEENS_9allocatorIcEEEEN4Pika8STLValueIS8_EEEEPvEENS_21__map_node_destructorINS6_ISF_EEEEE5resetB8ue170006EPSF_, symObjAddr: 0x2C980, symBinAddr: 0x100030F8C, symSize: 0x78 }
  - { offsetInCU: 0x3B154, offset: 0x3B154, size: 0x8, addend: 0x0, symName: __ZNSt3__121__map_node_destructorINS_9allocatorINS_11__tree_nodeINS_12__value_typeIKNS_12basic_stringIcNS_11char_traitsIcEENS1_IcEEEEN4Pika8STLValueIS8_EEEEPvEEEEEclB8ue170006EPSF_, symObjAddr: 0x2C9F8, symBinAddr: 0x100031004, symSize: 0xE4 }
  - { offsetInCU: 0x3B189, offset: 0x3B189, size: 0x8, addend: 0x0, symName: __ZNSt3__116allocator_traitsINS_9allocatorINS_11__tree_nodeINS_12__value_typeIKNS_12basic_stringIcNS_11char_traitsIcEENS1_IcEEEEN4Pika8STLValueIS8_EEEEPvEEEEE7destroyB8ue170006ISC_vvEEvRSG_PT_, symObjAddr: 0x2CADC, symBinAddr: 0x1000310E8, symSize: 0x28 }
  - { offsetInCU: 0x3B1C4, offset: 0x3B1C4, size: 0x8, addend: 0x0, symName: __ZNSt3__116allocator_traitsINS_9allocatorINS_11__tree_nodeINS_12__value_typeIKNS_12basic_stringIcNS_11char_traitsIcEENS1_IcEEEEN4Pika8STLValueIS8_EEEEPvEEEEE7destroyB8ue170006IS9_vvEEvRSG_PT_, symObjAddr: 0x2CB04, symBinAddr: 0x100031110, symSize: 0x28 }
  - { offsetInCU: 0x3B1FF, offset: 0x3B1FF, size: 0x8, addend: 0x0, symName: __ZNSt3__16__treeINS_12__value_typeIKNS_12basic_stringIcNS_11char_traitsIcEENS_9allocatorIcEEEEN4Pika8STLValueIS7_EEEENS_19__map_value_compareIS8_SC_NS_4lessIS8_EELb1EEENS5_ISC_EEE14__erase_uniqueIS7_EEmRKT_, symObjAddr: 0x2CB2C, symBinAddr: 0x100031138, symSize: 0xA0 }
  - { offsetInCU: 0x3B24E, offset: 0x3B24E, size: 0x8, addend: 0x0, symName: __ZNSt3__16__treeINS_12__value_typeIKNS_12basic_stringIcNS_11char_traitsIcEENS_9allocatorIcEEEEN4Pika8STLValueIS7_EEEENS_19__map_value_compareIS8_SC_NS_4lessIS8_EELb1EEENS5_ISC_EEE5eraseENS_21__tree_const_iteratorISC_PNS_11__tree_nodeISC_PvEElEE, symObjAddr: 0x2CBCC, symBinAddr: 0x1000311D8, symSize: 0x98 }
  - { offsetInCU: 0x3B2B2, offset: 0x3B2B2, size: 0x8, addend: 0x0, symName: __ZNSt3__16__treeINS_12__value_typeIKNS_12basic_stringIcNS_11char_traitsIcEENS_9allocatorIcEEEEN4Pika8STLValueIS7_EEEENS_19__map_value_compareIS8_SC_NS_4lessIS8_EELb1EEENS5_ISC_EEE21__remove_node_pointerEPNS_11__tree_nodeISC_PvEE, symObjAddr: 0x2CC64, symBinAddr: 0x100031270, symSize: 0xC8 }
  - { offsetInCU: 0x3B2F8, offset: 0x3B2F8, size: 0x8, addend: 0x0, symName: __ZNKSt3__121__tree_const_iteratorINS_12__value_typeIKNS_12basic_stringIcNS_11char_traitsIcEENS_9allocatorIcEEEEN4Pika8STLValueIS7_EEEEPNS_11__tree_nodeISC_PvEElEdeB8ue170006Ev, symObjAddr: 0x2CD2C, symBinAddr: 0x100031338, symSize: 0x28 }
  - { offsetInCU: 0x3B31E, offset: 0x3B31E, size: 0x8, addend: 0x0, symName: __ZNSt3__115__tree_iteratorINS_12__value_typeIKNS_12basic_stringIcNS_11char_traitsIcEENS_9allocatorIcEEEEN4Pika8STLValueIS7_EEEEPNS_11__tree_nodeISC_PvEElEC1B8ue170006ESG_, symObjAddr: 0x2CD54, symBinAddr: 0x100031360, symSize: 0x34 }
  - { offsetInCU: 0x3B357, offset: 0x3B357, size: 0x8, addend: 0x0, symName: __ZNSt3__115__tree_iteratorINS_12__value_typeIKNS_12basic_stringIcNS_11char_traitsIcEENS_9allocatorIcEEEEN4Pika8STLValueIS7_EEEEPNS_11__tree_nodeISC_PvEElEppB8ue170006Ev, symObjAddr: 0x2CD88, symBinAddr: 0x100031394, symSize: 0x38 }
  - { offsetInCU: 0x3B37D, offset: 0x3B37D, size: 0x8, addend: 0x0, symName: __ZNSt3__115__tree_iteratorINS_12__value_typeIKNS_12basic_stringIcNS_11char_traitsIcEENS_9allocatorIcEEEEN4Pika8STLValueIS7_EEEEPNS_11__tree_nodeISC_PvEElEC2B8ue170006ESG_, symObjAddr: 0x2CDC0, symBinAddr: 0x1000313CC, symSize: 0x20 }
  - { offsetInCU: 0x3B3B6, offset: 0x3B3B6, size: 0x8, addend: 0x0, symName: __ZNSt3__16__treeINS_12__value_typeIKNS_12basic_stringIcNS_11char_traitsIcEENS_9allocatorIcEEEEN4Pika8STLValueIS7_EEEENS_19__map_value_compareIS8_SC_NS_4lessIS8_EELb1EEENS5_ISC_EEE11lower_boundB8ue170006IS7_EENS_15__tree_iteratorISC_PNS_11__tree_nodeISC_PvEElEERKT_, symObjAddr: 0x2CDE0, symBinAddr: 0x1000313EC, symSize: 0x60 }
  - { offsetInCU: 0x3B3F4, offset: 0x3B3F4, size: 0x8, addend: 0x0, symName: __ZNSt3__121__tree_const_iteratorINS_12__value_typeIKNS_12basic_stringIcNS_11char_traitsIcEENS_9allocatorIcEEEEN4Pika8STLValueIS7_EEEEPNS_11__tree_nodeISC_PvEElEppB8ue170006Ev, symObjAddr: 0x2CE74, symBinAddr: 0x100031480, symSize: 0x38 }
  - { offsetInCU: 0x3B41A, offset: 0x3B41A, size: 0x8, addend: 0x0, symName: __ZNSt3__16vectorINS_4pairINS_12basic_stringIcNS_11char_traitsIcEENS_9allocatorIcEEEEN4Pika8STLValueIS7_EEEENS5_ISB_EEE9__end_capB8ue170006Ev, symObjAddr: 0x2CEAC, symBinAddr: 0x1000314B8, symSize: 0x28 }
  - { offsetInCU: 0x3B440, offset: 0x3B440, size: 0x8, addend: 0x0, symName: __ZNSt3__16vectorINS_4pairINS_12basic_stringIcNS_11char_traitsIcEENS_9allocatorIcEEEEN4Pika8STLValueIS7_EEEENS5_ISB_EEE22__construct_one_at_endB8ue170006IJSB_EEEvDpOT_, symObjAddr: 0x2CED4, symBinAddr: 0x1000314E0, symSize: 0x98 }
  - { offsetInCU: 0x3B48F, offset: 0x3B48F, size: 0x8, addend: 0x0, symName: __ZNSt3__16vectorINS_4pairINS_12basic_stringIcNS_11char_traitsIcEENS_9allocatorIcEEEEN4Pika8STLValueIS7_EEEENS5_ISB_EEE21__push_back_slow_pathISB_EEvOT_, symObjAddr: 0x2CF6C, symBinAddr: 0x100031578, symSize: 0xE0 }
  - { offsetInCU: 0x3B4ED, offset: 0x3B4ED, size: 0x8, addend: 0x0, symName: __ZNSt3__117__compressed_pairIPNS_4pairINS_12basic_stringIcNS_11char_traitsIcEENS_9allocatorIcEEEEN4Pika8STLValueIS7_EEEENS5_ISB_EEE5firstB8ue170006Ev, symObjAddr: 0x2D04C, symBinAddr: 0x100031658, symSize: 0x24 }
  - { offsetInCU: 0x3B513, offset: 0x3B513, size: 0x8, addend: 0x0, symName: __ZNSt3__122__compressed_pair_elemIPNS_4pairINS_12basic_stringIcNS_11char_traitsIcEENS_9allocatorIcEEEEN4Pika8STLValueIS7_EEEELi0ELb0EE5__getB8ue170006Ev, symObjAddr: 0x2D070, symBinAddr: 0x10003167C, symSize: 0x14 }
  - { offsetInCU: 0x3B552, offset: 0x3B552, size: 0x8, addend: 0x0, symName: __ZNSt3__16vectorINS_4pairINS_12basic_stringIcNS_11char_traitsIcEENS_9allocatorIcEEEEN4Pika8STLValueIS7_EEEENS5_ISB_EEE21_ConstructTransactionC1B8ue170006ERSD_m, symObjAddr: 0x2D084, symBinAddr: 0x100031690, symSize: 0x3C }
  - { offsetInCU: 0x3B59A, offset: 0x3B59A, size: 0x8, addend: 0x0, symName: __ZNSt3__116allocator_traitsINS_9allocatorINS_4pairINS_12basic_stringIcNS_11char_traitsIcEENS1_IcEEEEN4Pika8STLValueIS7_EEEEEEE9constructB8ue170006ISB_JSB_EvEEvRSC_PT_DpOT0_, symObjAddr: 0x2D0C0, symBinAddr: 0x1000316CC, symSize: 0x34 }
  - { offsetInCU: 0x3B5F1, offset: 0x3B5F1, size: 0x8, addend: 0x0, symName: __ZNSt3__16vectorINS_4pairINS_12basic_stringIcNS_11char_traitsIcEENS_9allocatorIcEEEEN4Pika8STLValueIS7_EEEENS5_ISB_EEE7__allocB8ue170006Ev, symObjAddr: 0x2D0F4, symBinAddr: 0x100031700, symSize: 0x28 }
  - { offsetInCU: 0x3B617, offset: 0x3B617, size: 0x8, addend: 0x0, symName: __ZNSt3__16vectorINS_4pairINS_12basic_stringIcNS_11char_traitsIcEENS_9allocatorIcEEEEN4Pika8STLValueIS7_EEEENS5_ISB_EEE21_ConstructTransactionD1B8ue170006Ev, symObjAddr: 0x2D130, symBinAddr: 0x10003173C, symSize: 0x2C }
  - { offsetInCU: 0x3B641, offset: 0x3B641, size: 0x8, addend: 0x0, symName: __ZNSt3__16vectorINS_4pairINS_12basic_stringIcNS_11char_traitsIcEENS_9allocatorIcEEEEN4Pika8STLValueIS7_EEEENS5_ISB_EEE21_ConstructTransactionC2B8ue170006ERSD_m, symObjAddr: 0x2D15C, symBinAddr: 0x100031768, symSize: 0x4C }
  - { offsetInCU: 0x3B689, offset: 0x3B689, size: 0x8, addend: 0x0, symName: __ZNSt3__19allocatorINS_4pairINS_12basic_stringIcNS_11char_traitsIcEENS0_IcEEEEN4Pika8STLValueIS6_EEEEE9constructB8ue170006ISA_JSA_EEEvPT_DpOT0_, symObjAddr: 0x2D1A8, symBinAddr: 0x1000317B4, symSize: 0x30 }
  - { offsetInCU: 0x3B6DF, offset: 0x3B6DF, size: 0x8, addend: 0x0, symName: __ZNSt3__14pairINS_12basic_stringIcNS_11char_traitsIcEENS_9allocatorIcEEEEN4Pika8STLValueIS6_EEEC1B8ue170006EOSA_, symObjAddr: 0x2D1D8, symBinAddr: 0x1000317E4, symSize: 0x34 }
  - { offsetInCU: 0x3B713, offset: 0x3B713, size: 0x8, addend: 0x0, symName: __ZNSt3__14pairINS_12basic_stringIcNS_11char_traitsIcEENS_9allocatorIcEEEEN4Pika8STLValueIS6_EEEC2B8ue170006EOSA_, symObjAddr: 0x2D20C, symBinAddr: 0x100031818, symSize: 0x78 }
  - { offsetInCU: 0x3B747, offset: 0x3B747, size: 0x8, addend: 0x0, symName: __ZNSt3__117__compressed_pairIPNS_4pairINS_12basic_stringIcNS_11char_traitsIcEENS_9allocatorIcEEEEN4Pika8STLValueIS7_EEEENS5_ISB_EEE6secondB8ue170006Ev, symObjAddr: 0x2D284, symBinAddr: 0x100031890, symSize: 0x24 }
  - { offsetInCU: 0x3B76D, offset: 0x3B76D, size: 0x8, addend: 0x0, symName: __ZNSt3__122__compressed_pair_elemINS_9allocatorINS_4pairINS_12basic_stringIcNS_11char_traitsIcEENS1_IcEEEEN4Pika8STLValueIS7_EEEEEELi1ELb1EE5__getB8ue170006Ev, symObjAddr: 0x2D2A8, symBinAddr: 0x1000318B4, symSize: 0x14 }
  - { offsetInCU: 0x3B793, offset: 0x3B793, size: 0x8, addend: 0x0, symName: __ZNSt3__16vectorINS_4pairINS_12basic_stringIcNS_11char_traitsIcEENS_9allocatorIcEEEEN4Pika8STLValueIS7_EEEENS5_ISB_EEE21_ConstructTransactionD2B8ue170006Ev, symObjAddr: 0x2D2BC, symBinAddr: 0x1000318C8, symSize: 0x20 }
  - { offsetInCU: 0x3B7BD, offset: 0x3B7BD, size: 0x8, addend: 0x0, symName: __ZNKSt3__16vectorINS_4pairINS_12basic_stringIcNS_11char_traitsIcEENS_9allocatorIcEEEEN4Pika8STLValueIS7_EEEENS5_ISB_EEE11__recommendB8ue170006Em, symObjAddr: 0x2D2DC, symBinAddr: 0x1000318E8, symSize: 0xB4 }
  - { offsetInCU: 0x3B812, offset: 0x3B812, size: 0x8, addend: 0x0, symName: __ZNKSt3__16vectorINS_4pairINS_12basic_stringIcNS_11char_traitsIcEENS_9allocatorIcEEEEN4Pika8STLValueIS7_EEEENS5_ISB_EEE4sizeB8ue170006Ev, symObjAddr: 0x2D390, symBinAddr: 0x10003199C, symSize: 0x28 }
  - { offsetInCU: 0x3B838, offset: 0x3B838, size: 0x8, addend: 0x0, symName: __ZNSt3__114__split_bufferINS_4pairINS_12basic_stringIcNS_11char_traitsIcEENS_9allocatorIcEEEEN4Pika8STLValueIS7_EEEERNS5_ISB_EEEC1EmmSD_, symObjAddr: 0x2D3B8, symBinAddr: 0x1000319C4, symSize: 0x44 }
  - { offsetInCU: 0x3B88E, offset: 0x3B88E, size: 0x8, addend: 0x0, symName: __ZNSt3__114__split_bufferINS_4pairINS_12basic_stringIcNS_11char_traitsIcEENS_9allocatorIcEEEEN4Pika8STLValueIS7_EEEERNS5_ISB_EEED1Ev, symObjAddr: 0x2D50C, symBinAddr: 0x100031B18, symSize: 0x2C }
  - { offsetInCU: 0x3B8BA, offset: 0x3B8BA, size: 0x8, addend: 0x0, symName: __ZNKSt3__16vectorINS_4pairINS_12basic_stringIcNS_11char_traitsIcEENS_9allocatorIcEEEEN4Pika8STLValueIS7_EEEENS5_ISB_EEE8max_sizeEv, symObjAddr: 0x2D538, symBinAddr: 0x100031B44, symSize: 0x74 }
  - { offsetInCU: 0x3B8E2, offset: 0x3B8E2, size: 0x8, addend: 0x0, symName: __ZNKSt3__16vectorINS_4pairINS_12basic_stringIcNS_11char_traitsIcEENS_9allocatorIcEEEEN4Pika8STLValueIS7_EEEENS5_ISB_EEE20__throw_length_errorB8ue170006Ev, symObjAddr: 0x2D5AC, symBinAddr: 0x100031BB8, symSize: 0x1C }
  - { offsetInCU: 0x3B908, offset: 0x3B908, size: 0x8, addend: 0x0, symName: __ZNKSt3__16vectorINS_4pairINS_12basic_stringIcNS_11char_traitsIcEENS_9allocatorIcEEEEN4Pika8STLValueIS7_EEEENS5_ISB_EEE8capacityB8ue170006Ev, symObjAddr: 0x2D5C8, symBinAddr: 0x100031BD4, symSize: 0x40 }
  - { offsetInCU: 0x3B938, offset: 0x3B938, size: 0x8, addend: 0x0, symName: __ZNSt3__116allocator_traitsINS_9allocatorINS_4pairINS_12basic_stringIcNS_11char_traitsIcEENS1_IcEEEEN4Pika8STLValueIS7_EEEEEEE8max_sizeB8ue170006ISC_vEEmRKSC_, symObjAddr: 0x2D608, symBinAddr: 0x100031C14, symSize: 0x24 }
  - { offsetInCU: 0x3B966, offset: 0x3B966, size: 0x8, addend: 0x0, symName: __ZNKSt3__16vectorINS_4pairINS_12basic_stringIcNS_11char_traitsIcEENS_9allocatorIcEEEEN4Pika8STLValueIS7_EEEENS5_ISB_EEE7__allocB8ue170006Ev, symObjAddr: 0x2D62C, symBinAddr: 0x100031C38, symSize: 0x28 }
  - { offsetInCU: 0x3B98C, offset: 0x3B98C, size: 0x8, addend: 0x0, symName: __ZNKSt3__19allocatorINS_4pairINS_12basic_stringIcNS_11char_traitsIcEENS0_IcEEEEN4Pika8STLValueIS6_EEEEE8max_sizeB8ue170006Ev, symObjAddr: 0x2D654, symBinAddr: 0x100031C60, symSize: 0x18 }
  - { offsetInCU: 0x3B9B2, offset: 0x3B9B2, size: 0x8, addend: 0x0, symName: __ZNKSt3__117__compressed_pairIPNS_4pairINS_12basic_stringIcNS_11char_traitsIcEENS_9allocatorIcEEEEN4Pika8STLValueIS7_EEEENS5_ISB_EEE6secondB8ue170006Ev, symObjAddr: 0x2D66C, symBinAddr: 0x100031C78, symSize: 0x24 }
  - { offsetInCU: 0x3B9D8, offset: 0x3B9D8, size: 0x8, addend: 0x0, symName: __ZNKSt3__122__compressed_pair_elemINS_9allocatorINS_4pairINS_12basic_stringIcNS_11char_traitsIcEENS1_IcEEEEN4Pika8STLValueIS7_EEEEEELi1ELb1EE5__getB8ue170006Ev, symObjAddr: 0x2D690, symBinAddr: 0x100031C9C, symSize: 0x14 }
  - { offsetInCU: 0x3B9FE, offset: 0x3B9FE, size: 0x8, addend: 0x0, symName: __ZNKSt3__16vectorINS_4pairINS_12basic_stringIcNS_11char_traitsIcEENS_9allocatorIcEEEEN4Pika8STLValueIS7_EEEENS5_ISB_EEE9__end_capB8ue170006Ev, symObjAddr: 0x2D6A4, symBinAddr: 0x100031CB0, symSize: 0x28 }
  - { offsetInCU: 0x3BA24, offset: 0x3BA24, size: 0x8, addend: 0x0, symName: __ZNKSt3__117__compressed_pairIPNS_4pairINS_12basic_stringIcNS_11char_traitsIcEENS_9allocatorIcEEEEN4Pika8STLValueIS7_EEEENS5_ISB_EEE5firstB8ue170006Ev, symObjAddr: 0x2D6CC, symBinAddr: 0x100031CD8, symSize: 0x24 }
  - { offsetInCU: 0x3BA4A, offset: 0x3BA4A, size: 0x8, addend: 0x0, symName: __ZNKSt3__122__compressed_pair_elemIPNS_4pairINS_12basic_stringIcNS_11char_traitsIcEENS_9allocatorIcEEEEN4Pika8STLValueIS7_EEEELi0ELb0EE5__getB8ue170006Ev, symObjAddr: 0x2D6F0, symBinAddr: 0x100031CFC, symSize: 0x14 }
  - { offsetInCU: 0x3BA70, offset: 0x3BA70, size: 0x8, addend: 0x0, symName: __ZNSt3__114__split_bufferINS_4pairINS_12basic_stringIcNS_11char_traitsIcEENS_9allocatorIcEEEEN4Pika8STLValueIS7_EEEERNS5_ISB_EEEC2EmmSD_, symObjAddr: 0x2D704, symBinAddr: 0x100031D10, symSize: 0xE0 }
  - { offsetInCU: 0x3BAE3, offset: 0x3BAE3, size: 0x8, addend: 0x0, symName: __ZNSt3__117__compressed_pairIPNS_4pairINS_12basic_stringIcNS_11char_traitsIcEENS_9allocatorIcEEEEN4Pika8STLValueIS7_EEEERNS5_ISB_EEEC1B8ue170006IDnSE_EEOT_OT0_, symObjAddr: 0x2D7E4, symBinAddr: 0x100031DF0, symSize: 0x3C }
  - { offsetInCU: 0x3BB3B, offset: 0x3BB3B, size: 0x8, addend: 0x0, symName: __ZNSt3__114__split_bufferINS_4pairINS_12basic_stringIcNS_11char_traitsIcEENS_9allocatorIcEEEEN4Pika8STLValueIS7_EEEERNS5_ISB_EEE7__allocB8ue170006Ev, symObjAddr: 0x2D860, symBinAddr: 0x100031E6C, symSize: 0x28 }
  - { offsetInCU: 0x3BB61, offset: 0x3BB61, size: 0x8, addend: 0x0, symName: __ZNSt3__114__split_bufferINS_4pairINS_12basic_stringIcNS_11char_traitsIcEENS_9allocatorIcEEEEN4Pika8STLValueIS7_EEEERNS5_ISB_EEE9__end_capB8ue170006Ev, symObjAddr: 0x2D888, symBinAddr: 0x100031E94, symSize: 0x28 }
  - { offsetInCU: 0x3BB87, offset: 0x3BB87, size: 0x8, addend: 0x0, symName: __ZNSt3__117__compressed_pairIPNS_4pairINS_12basic_stringIcNS_11char_traitsIcEENS_9allocatorIcEEEEN4Pika8STLValueIS7_EEEERNS5_ISB_EEEC2B8ue170006IDnSE_EEOT_OT0_, symObjAddr: 0x2D8B0, symBinAddr: 0x100031EBC, symSize: 0x48 }
  - { offsetInCU: 0x3BBDF, offset: 0x3BBDF, size: 0x8, addend: 0x0, symName: __ZNSt3__122__compressed_pair_elemIPNS_4pairINS_12basic_stringIcNS_11char_traitsIcEENS_9allocatorIcEEEEN4Pika8STLValueIS7_EEEELi0ELb0EEC2B8ue170006IDnvEEOT_, symObjAddr: 0x2D8F8, symBinAddr: 0x100031F04, symSize: 0x1C }
  - { offsetInCU: 0x3BC21, offset: 0x3BC21, size: 0x8, addend: 0x0, symName: __ZNSt3__122__compressed_pair_elemIRNS_9allocatorINS_4pairINS_12basic_stringIcNS_11char_traitsIcEENS1_IcEEEEN4Pika8STLValueIS7_EEEEEELi1ELb0EEC2B8ue170006ISD_vEEOT_, symObjAddr: 0x2D914, symBinAddr: 0x100031F20, symSize: 0x20 }
  - { offsetInCU: 0x3BC63, offset: 0x3BC63, size: 0x8, addend: 0x0, symName: __ZNSt3__19allocatorINS_4pairINS_12basic_stringIcNS_11char_traitsIcEENS0_IcEEEEN4Pika8STLValueIS6_EEEEE8allocateB8ue170006Em, symObjAddr: 0x2D934, symBinAddr: 0x100031F40, symSize: 0x8C }
  - { offsetInCU: 0x3BC97, offset: 0x3BC97, size: 0x8, addend: 0x0, symName: __ZNSt3__117__compressed_pairIPNS_4pairINS_12basic_stringIcNS_11char_traitsIcEENS_9allocatorIcEEEEN4Pika8STLValueIS7_EEEERNS5_ISB_EEE6secondB8ue170006Ev, symObjAddr: 0x2D9C0, symBinAddr: 0x100031FCC, symSize: 0x28 }
  - { offsetInCU: 0x3BCBD, offset: 0x3BCBD, size: 0x8, addend: 0x0, symName: __ZNSt3__122__compressed_pair_elemIRNS_9allocatorINS_4pairINS_12basic_stringIcNS_11char_traitsIcEENS1_IcEEEEN4Pika8STLValueIS7_EEEEEELi1ELb0EE5__getB8ue170006Ev, symObjAddr: 0x2D9E8, symBinAddr: 0x100031FF4, symSize: 0x18 }
  - { offsetInCU: 0x3BCE3, offset: 0x3BCE3, size: 0x8, addend: 0x0, symName: __ZNSt3__117__compressed_pairIPNS_4pairINS_12basic_stringIcNS_11char_traitsIcEENS_9allocatorIcEEEEN4Pika8STLValueIS7_EEEERNS5_ISB_EEE5firstB8ue170006Ev, symObjAddr: 0x2DA00, symBinAddr: 0x10003200C, symSize: 0x24 }
  - { offsetInCU: 0x3BD09, offset: 0x3BD09, size: 0x8, addend: 0x0, symName: __ZNKSt3__16vectorINS_4pairINS_12basic_stringIcNS_11char_traitsIcEENS_9allocatorIcEEEEN4Pika8STLValueIS7_EEEENS5_ISB_EEE17__annotate_deleteB8ue170006Ev, symObjAddr: 0x2DA24, symBinAddr: 0x100032030, symSize: 0xD4 }
  - { offsetInCU: 0x3BD2F, offset: 0x3BD2F, size: 0x8, addend: 0x0, symName: __ZNSt3__116reverse_iteratorIPNS_4pairINS_12basic_stringIcNS_11char_traitsIcEENS_9allocatorIcEEEEN4Pika8STLValueIS7_EEEEEC1B8ue170006ESC_, symObjAddr: 0x2DC2C, symBinAddr: 0x100032238, symSize: 0x34 }
  - { offsetInCU: 0x3BD67, offset: 0x3BD67, size: 0x8, addend: 0x0, symName: __ZNKSt3__116reverse_iteratorIPNS_4pairINS_12basic_stringIcNS_11char_traitsIcEENS_9allocatorIcEEEEN4Pika8STLValueIS7_EEEEE4baseB8ue170006Ev, symObjAddr: 0x2DC60, symBinAddr: 0x10003226C, symSize: 0x18 }
  - { offsetInCU: 0x3BD8D, offset: 0x3BD8D, size: 0x8, addend: 0x0, symName: __ZNKSt3__16vectorINS_4pairINS_12basic_stringIcNS_11char_traitsIcEENS_9allocatorIcEEEEN4Pika8STLValueIS7_EEEENS5_ISB_EEE14__annotate_newB8ue170006Em, symObjAddr: 0x2DCB4, symBinAddr: 0x1000322C0, symSize: 0xC8 }
  - { offsetInCU: 0x3BDC2, offset: 0x3BDC2, size: 0x8, addend: 0x0, symName: __ZNKSt3__16vectorINS_4pairINS_12basic_stringIcNS_11char_traitsIcEENS_9allocatorIcEEEEN4Pika8STLValueIS7_EEEENS5_ISB_EEE31__annotate_contiguous_containerB8ue170006EPKvSF_SF_SF_, symObjAddr: 0x2DD7C, symBinAddr: 0x100032388, symSize: 0x20 }
  - { offsetInCU: 0x3BE18, offset: 0x3BE18, size: 0x8, addend: 0x0, symName: __ZNKSt3__16vectorINS_4pairINS_12basic_stringIcNS_11char_traitsIcEENS_9allocatorIcEEEEN4Pika8STLValueIS7_EEEENS5_ISB_EEE4dataB8ue170006Ev, symObjAddr: 0x2DD9C, symBinAddr: 0x1000323A8, symSize: 0x28 }
  - { offsetInCU: 0x3BE3E, offset: 0x3BE3E, size: 0x8, addend: 0x0, symName: __ZNSt3__129_AllocatorDestroyRangeReverseINS_9allocatorINS_4pairINS_12basic_stringIcNS_11char_traitsIcEENS1_IcEEEEN4Pika8STLValueIS7_EEEEEENS_16reverse_iteratorIPSB_EEEC1B8ue170006ERSC_RSF_SI_, symObjAddr: 0x2DE10, symBinAddr: 0x10003241C, symSize: 0x44 }
  - { offsetInCU: 0x3BE95, offset: 0x3BE95, size: 0x8, addend: 0x0, symName: __ZNSt3__116allocator_traitsINS_9allocatorINS_4pairINS_12basic_stringIcNS_11char_traitsIcEENS1_IcEEEEN4Pika8STLValueIS7_EEEEEEE9constructB8ue170006ISB_JRKSB_EvEEvRSC_PT_DpOT0_, symObjAddr: 0x2DE9C, symBinAddr: 0x1000324A8, symSize: 0x34 }
  - { offsetInCU: 0x3BEEC, offset: 0x3BEEC, size: 0x8, addend: 0x0, symName: __ZNKSt3__116reverse_iteratorIPNS_4pairINS_12basic_stringIcNS_11char_traitsIcEENS_9allocatorIcEEEEN4Pika8STLValueIS7_EEEEEdeB8ue170006Ev, symObjAddr: 0x2DEF4, symBinAddr: 0x100032500, symSize: 0x28 }
  - { offsetInCU: 0x3BF20, offset: 0x3BF20, size: 0x8, addend: 0x0, symName: __ZNSt3__116reverse_iteratorIPNS_4pairINS_12basic_stringIcNS_11char_traitsIcEENS_9allocatorIcEEEEN4Pika8STLValueIS7_EEEEEppB8ue170006Ev, symObjAddr: 0x2DF1C, symBinAddr: 0x100032528, symSize: 0x20 }
  - { offsetInCU: 0x3BF46, offset: 0x3BF46, size: 0x8, addend: 0x0, symName: __ZNSt3__128__exception_guard_exceptionsINS_29_AllocatorDestroyRangeReverseINS_9allocatorINS_4pairINS_12basic_stringIcNS_11char_traitsIcEENS2_IcEEEEN4Pika8STLValueIS8_EEEEEENS_16reverse_iteratorIPSC_EEEEE10__completeB8ue170006Ev, symObjAddr: 0x2DF3C, symBinAddr: 0x100032548, symSize: 0x1C }
  - { offsetInCU: 0x3BF6C, offset: 0x3BF6C, size: 0x8, addend: 0x0, symName: __ZNSt3__128__exception_guard_exceptionsINS_29_AllocatorDestroyRangeReverseINS_9allocatorINS_4pairINS_12basic_stringIcNS_11char_traitsIcEENS2_IcEEEEN4Pika8STLValueIS8_EEEEEENS_16reverse_iteratorIPSC_EEEEED1B8ue170006Ev, symObjAddr: 0x2DF58, symBinAddr: 0x100032564, symSize: 0x2C }
  - { offsetInCU: 0x3BF96, offset: 0x3BF96, size: 0x8, addend: 0x0, symName: __ZNSt3__128__exception_guard_exceptionsINS_29_AllocatorDestroyRangeReverseINS_9allocatorINS_4pairINS_12basic_stringIcNS_11char_traitsIcEENS2_IcEEEEN4Pika8STLValueIS8_EEEEEENS_16reverse_iteratorIPSC_EEEEEC1B8ue170006ESH_, symObjAddr: 0x2DF84, symBinAddr: 0x100032590, symSize: 0x34 }
  - { offsetInCU: 0x3BFCF, offset: 0x3BFCF, size: 0x8, addend: 0x0, symName: __ZNSt3__128__exception_guard_exceptionsINS_29_AllocatorDestroyRangeReverseINS_9allocatorINS_4pairINS_12basic_stringIcNS_11char_traitsIcEENS2_IcEEEEN4Pika8STLValueIS8_EEEEEENS_16reverse_iteratorIPSC_EEEEEC2B8ue170006ESH_, symObjAddr: 0x2DFB8, symBinAddr: 0x1000325C4, symSize: 0x30 }
  - { offsetInCU: 0x3C008, offset: 0x3C008, size: 0x8, addend: 0x0, symName: __ZNSt3__129_AllocatorDestroyRangeReverseINS_9allocatorINS_4pairINS_12basic_stringIcNS_11char_traitsIcEENS1_IcEEEEN4Pika8STLValueIS7_EEEEEENS_16reverse_iteratorIPSB_EEEC2B8ue170006ERSC_RSF_SI_, symObjAddr: 0x2DFE8, symBinAddr: 0x1000325F4, symSize: 0x38 }
  - { offsetInCU: 0x3C05F, offset: 0x3C05F, size: 0x8, addend: 0x0, symName: __ZNSt3__19allocatorINS_4pairINS_12basic_stringIcNS_11char_traitsIcEENS0_IcEEEEN4Pika8STLValueIS6_EEEEE9constructB8ue170006ISA_JRKSA_EEEvPT_DpOT0_, symObjAddr: 0x2E020, symBinAddr: 0x10003262C, symSize: 0x30 }
  - { offsetInCU: 0x3C0B5, offset: 0x3C0B5, size: 0x8, addend: 0x0, symName: __ZNSt3__14pairINS_12basic_stringIcNS_11char_traitsIcEENS_9allocatorIcEEEEN4Pika8STLValueIS6_EEEC1B8ue170006ERKSA_, symObjAddr: 0x2E050, symBinAddr: 0x10003265C, symSize: 0x34 }
  - { offsetInCU: 0x3C0E9, offset: 0x3C0E9, size: 0x8, addend: 0x0, symName: __ZNSt3__14pairINS_12basic_stringIcNS_11char_traitsIcEENS_9allocatorIcEEEEN4Pika8STLValueIS6_EEEC2B8ue170006ERKSA_, symObjAddr: 0x2E084, symBinAddr: 0x100032690, symSize: 0x78 }
  - { offsetInCU: 0x3C122, offset: 0x3C122, size: 0x8, addend: 0x0, symName: __ZNSt3__119__to_address_helperINS_16reverse_iteratorIPNS_4pairINS_12basic_stringIcNS_11char_traitsIcEENS_9allocatorIcEEEEN4Pika8STLValueIS8_EEEEEEvE6__callB8ue170006ERKSE_, symObjAddr: 0x2E0FC, symBinAddr: 0x100032708, symSize: 0x4C }
  - { offsetInCU: 0x3C145, offset: 0x3C145, size: 0x8, addend: 0x0, symName: __ZNKSt3__116reverse_iteratorIPNS_4pairINS_12basic_stringIcNS_11char_traitsIcEENS_9allocatorIcEEEEN4Pika8STLValueIS7_EEEEEptB8ue170006Ev, symObjAddr: 0x2E148, symBinAddr: 0x100032754, symSize: 0x24 }
  - { offsetInCU: 0x3C16B, offset: 0x3C16B, size: 0x8, addend: 0x0, symName: __ZNSt3__128__exception_guard_exceptionsINS_29_AllocatorDestroyRangeReverseINS_9allocatorINS_4pairINS_12basic_stringIcNS_11char_traitsIcEENS2_IcEEEEN4Pika8STLValueIS8_EEEEEENS_16reverse_iteratorIPSC_EEEEED2B8ue170006Ev, symObjAddr: 0x2E16C, symBinAddr: 0x100032778, symSize: 0x48 }
  - { offsetInCU: 0x3C195, offset: 0x3C195, size: 0x8, addend: 0x0, symName: __ZNKSt3__129_AllocatorDestroyRangeReverseINS_9allocatorINS_4pairINS_12basic_stringIcNS_11char_traitsIcEENS1_IcEEEEN4Pika8STLValueIS7_EEEEEENS_16reverse_iteratorIPSB_EEEclB8ue170006Ev, symObjAddr: 0x2E1B4, symBinAddr: 0x1000327C0, symSize: 0xB4 }
  - { offsetInCU: 0x3C1BC, offset: 0x3C1BC, size: 0x8, addend: 0x0, symName: __ZNSt3__116reverse_iteratorINS0_IPNS_4pairINS_12basic_stringIcNS_11char_traitsIcEENS_9allocatorIcEEEEN4Pika8STLValueIS7_EEEEEEEC1B8ue170006ESD_, symObjAddr: 0x2E2D8, symBinAddr: 0x1000328E4, symSize: 0x3C }
  - { offsetInCU: 0x3C1F4, offset: 0x3C1F4, size: 0x8, addend: 0x0, symName: __ZNSt3__116allocator_traitsINS_9allocatorINS_4pairINS_12basic_stringIcNS_11char_traitsIcEENS1_IcEEEEN4Pika8STLValueIS7_EEEEEEE7destroyB8ue170006ISB_vEEvRSC_PT_, symObjAddr: 0x2E374, symBinAddr: 0x100032980, symSize: 0x2C }
  - { offsetInCU: 0x3C231, offset: 0x3C231, size: 0x8, addend: 0x0, symName: __ZNSt3__116reverse_iteratorINS0_IPNS_4pairINS_12basic_stringIcNS_11char_traitsIcEENS_9allocatorIcEEEEN4Pika8STLValueIS7_EEEEEEEppB8ue170006Ev, symObjAddr: 0x2E3C4, symBinAddr: 0x1000329D0, symSize: 0x30 }
  - { offsetInCU: 0x3C257, offset: 0x3C257, size: 0x8, addend: 0x0, symName: __ZNKSt3__116reverse_iteratorINS0_IPNS_4pairINS_12basic_stringIcNS_11char_traitsIcEENS_9allocatorIcEEEEN4Pika8STLValueIS7_EEEEEEE4baseB8ue170006Ev, symObjAddr: 0x2E3F4, symBinAddr: 0x100032A00, symSize: 0x24 }
  - { offsetInCU: 0x3C27D, offset: 0x3C27D, size: 0x8, addend: 0x0, symName: __ZNSt3__19allocatorINS_4pairINS_12basic_stringIcNS_11char_traitsIcEENS0_IcEEEEN4Pika8STLValueIS6_EEEEE7destroyB8ue170006EPSA_, symObjAddr: 0x2E418, symBinAddr: 0x100032A24, symSize: 0x28 }
  - { offsetInCU: 0x3C2B6, offset: 0x3C2B6, size: 0x8, addend: 0x0, symName: __ZNSt3__119__to_address_helperINS_16reverse_iteratorINS1_IPNS_4pairINS_12basic_stringIcNS_11char_traitsIcEENS_9allocatorIcEEEEN4Pika8STLValueIS8_EEEEEEEEvE6__callB8ue170006ERKSF_, symObjAddr: 0x2E440, symBinAddr: 0x100032A4C, symSize: 0x4C }
  - { offsetInCU: 0x3C2D9, offset: 0x3C2D9, size: 0x8, addend: 0x0, symName: __ZNKSt3__116reverse_iteratorINS0_IPNS_4pairINS_12basic_stringIcNS_11char_traitsIcEENS_9allocatorIcEEEEN4Pika8STLValueIS7_EEEEEEEptB8ue170006Ev, symObjAddr: 0x2E48C, symBinAddr: 0x100032A98, symSize: 0x24 }
  - { offsetInCU: 0x3C2FF, offset: 0x3C2FF, size: 0x8, addend: 0x0, symName: __ZNKSt3__116reverse_iteratorINS0_IPNS_4pairINS_12basic_stringIcNS_11char_traitsIcEENS_9allocatorIcEEEEN4Pika8STLValueIS7_EEEEEEEdeB8ue170006Ev, symObjAddr: 0x2E4B0, symBinAddr: 0x100032ABC, symSize: 0x34 }
  - { offsetInCU: 0x3C333, offset: 0x3C333, size: 0x8, addend: 0x0, symName: __ZNSt3__116reverse_iteratorIPNS_4pairINS_12basic_stringIcNS_11char_traitsIcEENS_9allocatorIcEEEEN4Pika8STLValueIS7_EEEEEmmB8ue170006Ev, symObjAddr: 0x2E4E4, symBinAddr: 0x100032AF0, symSize: 0x20 }
  - { offsetInCU: 0x3C359, offset: 0x3C359, size: 0x8, addend: 0x0, symName: __ZNSt3__116reverse_iteratorINS0_IPNS_4pairINS_12basic_stringIcNS_11char_traitsIcEENS_9allocatorIcEEEEN4Pika8STLValueIS7_EEEEEEEC2B8ue170006ESD_, symObjAddr: 0x2E504, symBinAddr: 0x100032B10, symSize: 0x2C }
  - { offsetInCU: 0x3C391, offset: 0x3C391, size: 0x8, addend: 0x0, symName: __ZNSt3__116reverse_iteratorIPNS_4pairINS_12basic_stringIcNS_11char_traitsIcEENS_9allocatorIcEEEEN4Pika8STLValueIS7_EEEEEC2B8ue170006ESC_, symObjAddr: 0x2E530, symBinAddr: 0x100032B3C, symSize: 0x28 }
  - { offsetInCU: 0x3C3C9, offset: 0x3C3C9, size: 0x8, addend: 0x0, symName: __ZNSt3__114__split_bufferINS_4pairINS_12basic_stringIcNS_11char_traitsIcEENS_9allocatorIcEEEEN4Pika8STLValueIS7_EEEERNS5_ISB_EEED2Ev, symObjAddr: 0x2E558, symBinAddr: 0x100032B64, symSize: 0x80 }
  - { offsetInCU: 0x3C3F5, offset: 0x3C3F5, size: 0x8, addend: 0x0, symName: __ZNSt3__114__split_bufferINS_4pairINS_12basic_stringIcNS_11char_traitsIcEENS_9allocatorIcEEEEN4Pika8STLValueIS7_EEEERNS5_ISB_EEE5clearB8ue170006Ev, symObjAddr: 0x2E5D8, symBinAddr: 0x100032BE4, symSize: 0x28 }
  - { offsetInCU: 0x3C41B, offset: 0x3C41B, size: 0x8, addend: 0x0, symName: __ZNSt3__116allocator_traitsINS_9allocatorINS_4pairINS_12basic_stringIcNS_11char_traitsIcEENS1_IcEEEEN4Pika8STLValueIS7_EEEEEEE10deallocateB8ue170006ERSC_PSB_m, symObjAddr: 0x2E600, symBinAddr: 0x100032C0C, symSize: 0x34 }
  - { offsetInCU: 0x3C45D, offset: 0x3C45D, size: 0x8, addend: 0x0, symName: __ZNKSt3__114__split_bufferINS_4pairINS_12basic_stringIcNS_11char_traitsIcEENS_9allocatorIcEEEEN4Pika8STLValueIS7_EEEERNS5_ISB_EEE8capacityB8ue170006Ev, symObjAddr: 0x2E634, symBinAddr: 0x100032C40, symSize: 0x40 }
  - { offsetInCU: 0x3C483, offset: 0x3C483, size: 0x8, addend: 0x0, symName: __ZNSt3__114__split_bufferINS_4pairINS_12basic_stringIcNS_11char_traitsIcEENS_9allocatorIcEEEEN4Pika8STLValueIS7_EEEERNS5_ISB_EEE17__destruct_at_endB8ue170006EPSB_, symObjAddr: 0x2E674, symBinAddr: 0x100032C80, symSize: 0x2C }
  - { offsetInCU: 0x3C4B7, offset: 0x3C4B7, size: 0x8, addend: 0x0, symName: __ZNSt3__114__split_bufferINS_4pairINS_12basic_stringIcNS_11char_traitsIcEENS_9allocatorIcEEEEN4Pika8STLValueIS7_EEEERNS5_ISB_EEE17__destruct_at_endB8ue170006EPSB_NS_17integral_constantIbLb0EEE, symObjAddr: 0x2E6A0, symBinAddr: 0x100032CAC, symSize: 0x94 }
  - { offsetInCU: 0x3C4F7, offset: 0x3C4F7, size: 0x8, addend: 0x0, symName: __ZNSt3__19allocatorINS_4pairINS_12basic_stringIcNS_11char_traitsIcEENS0_IcEEEEN4Pika8STLValueIS6_EEEEE10deallocateB8ue170006EPSA_m, symObjAddr: 0x2E734, symBinAddr: 0x100032D40, symSize: 0x74 }
  - { offsetInCU: 0x3C539, offset: 0x3C539, size: 0x8, addend: 0x0, symName: __ZNKSt3__114__split_bufferINS_4pairINS_12basic_stringIcNS_11char_traitsIcEENS_9allocatorIcEEEEN4Pika8STLValueIS7_EEEERNS5_ISB_EEE9__end_capB8ue170006Ev, symObjAddr: 0x2E7A8, symBinAddr: 0x100032DB4, symSize: 0x28 }
  - { offsetInCU: 0x3C55F, offset: 0x3C55F, size: 0x8, addend: 0x0, symName: __ZNKSt3__117__compressed_pairIPNS_4pairINS_12basic_stringIcNS_11char_traitsIcEENS_9allocatorIcEEEEN4Pika8STLValueIS7_EEEERNS5_ISB_EEE5firstB8ue170006Ev, symObjAddr: 0x2E7D0, symBinAddr: 0x100032DDC, symSize: 0x24 }
  - { offsetInCU: 0x3C585, offset: 0x3C585, size: 0x8, addend: 0x0, symName: __ZNSt3__14pairINS_12basic_stringIcNS_11char_traitsIcEENS_9allocatorIcEEEEN4Pika8STLValueIS6_EEEC2B8ue170006IKS6_S9_EERKNS0_IT_T0_EE, symObjAddr: 0x2E7F4, symBinAddr: 0x100032E00, symSize: 0x78 }
  - { offsetInCU: 0x3C5CF, offset: 0x3C5CF, size: 0x8, addend: 0x0, symName: __ZNSt3__16__treeINS_12__value_typeIKNS_12basic_stringIcNS_11char_traitsIcEENS_9allocatorIcEEEEPN4Pika6ScriptINS9_9StdConfigEE6NativeEEENS_19__map_value_compareIS8_SF_NS_4lessIS8_EELb1EEENS5_ISF_EEE4findIS7_EENS_15__tree_iteratorISF_PNS_11__tree_nodeISF_PvEElEERKT_, symObjAddr: 0x2E86C, symBinAddr: 0x100032E78, symSize: 0xF8 }
  - { offsetInCU: 0x3C61E, offset: 0x3C61E, size: 0x8, addend: 0x0, symName: __ZNSt3__114__map_iteratorINS_15__tree_iteratorINS_12__value_typeIKNS_12basic_stringIcNS_11char_traitsIcEENS_9allocatorIcEEEEPN4Pika6ScriptINSA_9StdConfigEE6NativeEEEPNS_11__tree_nodeISG_PvEElEEEC1B8ue170006ESL_, symObjAddr: 0x2E964, symBinAddr: 0x100032F70, symSize: 0x34 }
  - { offsetInCU: 0x3C657, offset: 0x3C657, size: 0x8, addend: 0x0, symName: __ZNSt3__16__treeINS_12__value_typeIKNS_12basic_stringIcNS_11char_traitsIcEENS_9allocatorIcEEEEPN4Pika6ScriptINS9_9StdConfigEE6NativeEEENS_19__map_value_compareIS8_SF_NS_4lessIS8_EELb1EEENS5_ISF_EEE13__lower_boundIS7_EENS_15__tree_iteratorISF_PNS_11__tree_nodeISF_PvEElEERKT_SR_PNS_15__tree_end_nodeIPNS_16__tree_node_baseISP_EEEE, symObjAddr: 0x2E998, symBinAddr: 0x100032FA4, symSize: 0xA4 }
  - { offsetInCU: 0x3C6B5, offset: 0x3C6B5, size: 0x8, addend: 0x0, symName: __ZNSt3__16__treeINS_12__value_typeIKNS_12basic_stringIcNS_11char_traitsIcEENS_9allocatorIcEEEEPN4Pika6ScriptINS9_9StdConfigEE6NativeEEENS_19__map_value_compareIS8_SF_NS_4lessIS8_EELb1EEENS5_ISF_EEE3endB8ue170006Ev, symObjAddr: 0x2EA70, symBinAddr: 0x10003307C, symSize: 0x34 }
  - { offsetInCU: 0x3C6DB, offset: 0x3C6DB, size: 0x8, addend: 0x0, symName: __ZNSt3__16__treeINS_12__value_typeIKNS_12basic_stringIcNS_11char_traitsIcEENS_9allocatorIcEEEEPN4Pika6ScriptINS9_9StdConfigEE6NativeEEENS_19__map_value_compareIS8_SF_NS_4lessIS8_EELb1EEENS5_ISF_EEE10value_compB8ue170006Ev, symObjAddr: 0x2EAA4, symBinAddr: 0x1000330B0, symSize: 0x28 }
  - { offsetInCU: 0x3C701, offset: 0x3C701, size: 0x8, addend: 0x0, symName: __ZNKSt3__119__map_value_compareIKNS_12basic_stringIcNS_11char_traitsIcEENS_9allocatorIcEEEENS_12__value_typeIS7_PN4Pika6ScriptINS9_9StdConfigEE6NativeEEENS_4lessIS7_EELb1EEclB8ue170006ERS7_RKSF_, symObjAddr: 0x2EACC, symBinAddr: 0x1000330D8, symSize: 0x50 }
  - { offsetInCU: 0x3C745, offset: 0x3C745, size: 0x8, addend: 0x0, symName: __ZNKSt3__115__tree_iteratorINS_12__value_typeIKNS_12basic_stringIcNS_11char_traitsIcEENS_9allocatorIcEEEEPN4Pika6ScriptINS9_9StdConfigEE6NativeEEEPNS_11__tree_nodeISF_PvEElEdeB8ue170006Ev, symObjAddr: 0x2EB1C, symBinAddr: 0x100033128, symSize: 0x28 }
  - { offsetInCU: 0x3C76B, offset: 0x3C76B, size: 0x8, addend: 0x0, symName: __ZNKSt3__119__map_value_compareIKNS_12basic_stringIcNS_11char_traitsIcEENS_9allocatorIcEEEENS_12__value_typeIS7_PN4Pika6ScriptINS9_9StdConfigEE6NativeEEENS_4lessIS7_EELb1EEclB8ue170006ERKSF_RS7_, symObjAddr: 0x2EB44, symBinAddr: 0x100033150, symSize: 0x48 }
  - { offsetInCU: 0x3C7AF, offset: 0x3C7AF, size: 0x8, addend: 0x0, symName: __ZNSt3__115__tree_iteratorINS_12__value_typeIKNS_12basic_stringIcNS_11char_traitsIcEENS_9allocatorIcEEEEPN4Pika6ScriptINS9_9StdConfigEE6NativeEEEPNS_11__tree_nodeISF_PvEElEC1B8ue170006EPNS_15__tree_end_nodeIPNS_16__tree_node_baseISH_EEEE, symObjAddr: 0x2EB8C, symBinAddr: 0x100033198, symSize: 0x34 }
  - { offsetInCU: 0x3C7E8, offset: 0x3C7E8, size: 0x8, addend: 0x0, symName: __ZNKSt3__112__value_typeIKNS_12basic_stringIcNS_11char_traitsIcEENS_9allocatorIcEEEEPN4Pika6ScriptINS8_9StdConfigEE6NativeEE11__get_valueB8ue170006Ev, symObjAddr: 0x2EBC0, symBinAddr: 0x1000331CC, symSize: 0x14 }
  - { offsetInCU: 0x3C80E, offset: 0x3C80E, size: 0x8, addend: 0x0, symName: __ZNSt3__115__tree_iteratorINS_12__value_typeIKNS_12basic_stringIcNS_11char_traitsIcEENS_9allocatorIcEEEEPN4Pika6ScriptINS9_9StdConfigEE6NativeEEEPNS_11__tree_nodeISF_PvEElEC2B8ue170006EPNS_15__tree_end_nodeIPNS_16__tree_node_baseISH_EEEE, symObjAddr: 0x2EBD4, symBinAddr: 0x1000331E0, symSize: 0x20 }
  - { offsetInCU: 0x3C847, offset: 0x3C847, size: 0x8, addend: 0x0, symName: __ZNSt3__117__compressed_pairImNS_19__map_value_compareIKNS_12basic_stringIcNS_11char_traitsIcEENS_9allocatorIcEEEENS_12__value_typeIS8_PN4Pika6ScriptINSA_9StdConfigEE6NativeEEENS_4lessIS8_EELb1EEEE6secondB8ue170006Ev, symObjAddr: 0x2EC24, symBinAddr: 0x100033230, symSize: 0x24 }
  - { offsetInCU: 0x3C86D, offset: 0x3C86D, size: 0x8, addend: 0x0, symName: __ZNSt3__122__compressed_pair_elemINS_19__map_value_compareIKNS_12basic_stringIcNS_11char_traitsIcEENS_9allocatorIcEEEENS_12__value_typeIS8_PN4Pika6ScriptINSA_9StdConfigEE6NativeEEENS_4lessIS8_EELb1EEELi1ELb1EE5__getB8ue170006Ev, symObjAddr: 0x2EC48, symBinAddr: 0x100033254, symSize: 0x14 }
  - { offsetInCU: 0x3C893, offset: 0x3C893, size: 0x8, addend: 0x0, symName: __ZNKSt3__115__tree_iteratorINS_12__value_typeIKNS_12basic_stringIcNS_11char_traitsIcEENS_9allocatorIcEEEEPN4Pika6ScriptINS9_9StdConfigEE6NativeEEEPNS_11__tree_nodeISF_PvEElE8__get_npB8ue170006Ev, symObjAddr: 0x2EC5C, symBinAddr: 0x100033268, symSize: 0x18 }
  - { offsetInCU: 0x3C8B9, offset: 0x3C8B9, size: 0x8, addend: 0x0, symName: __ZNSt3__114__map_iteratorINS_15__tree_iteratorINS_12__value_typeIKNS_12basic_stringIcNS_11char_traitsIcEENS_9allocatorIcEEEEPN4Pika6ScriptINSA_9StdConfigEE6NativeEEEPNS_11__tree_nodeISG_PvEElEEEC2B8ue170006ESL_, symObjAddr: 0x2EC74, symBinAddr: 0x100033280, symSize: 0x20 }
  - { offsetInCU: 0x3C8F2, offset: 0x3C8F2, size: 0x8, addend: 0x0, symName: __ZNSt3__114pointer_traitsIPNS_4pairIKNS_12basic_stringIcNS_11char_traitsIcEENS_9allocatorIcEEEEPN4Pika6ScriptINS9_9StdConfigEE6NativeEEEE10pointer_toB8ue170006ERSF_, symObjAddr: 0x2EC94, symBinAddr: 0x1000332A0, symSize: 0x14 }
  - { offsetInCU: 0x3C915, offset: 0x3C915, size: 0x8, addend: 0x0, symName: __ZNKSt3__115__tree_iteratorINS_12__value_typeIKNS_12basic_stringIcNS_11char_traitsIcEENS_9allocatorIcEEEEPN4Pika6ScriptINS9_9StdConfigEE6NativeEEEPNS_11__tree_nodeISF_PvEElEptB8ue170006Ev, symObjAddr: 0x2ECA8, symBinAddr: 0x1000332B4, symSize: 0x2C }
  - { offsetInCU: 0x3C93B, offset: 0x3C93B, size: 0x8, addend: 0x0, symName: __ZNSt3__114pointer_traitsIPNS_12__value_typeIKNS_12basic_stringIcNS_11char_traitsIcEENS_9allocatorIcEEEEPN4Pika6ScriptINS9_9StdConfigEE6NativeEEEE10pointer_toB8ue170006ERSF_, symObjAddr: 0x2ECD4, symBinAddr: 0x1000332E0, symSize: 0x14 }
  - { offsetInCU: 0x3C95E, offset: 0x3C95E, size: 0x8, addend: 0x0, symName: __ZNSt3__14pairIKNS_12basic_stringIcNS_11char_traitsIcEENS_9allocatorIcEEEEPN4Pika6ScriptINS8_9StdConfigEE6NativeEEC2B8ue170006ERS7_RKSD_, symObjAddr: 0x2ECE8, symBinAddr: 0x1000332F4, symSize: 0x44 }
  - { offsetInCU: 0x3C9A4, offset: 0x3C9A4, size: 0x8, addend: 0x0, symName: __ZNSt3__16__treeINS_12__value_typeIKNS_12basic_stringIcNS_11char_traitsIcEENS_9allocatorIcEEEEPN4Pika6ScriptINS9_9StdConfigEE6NativeEEENS_19__map_value_compareIS8_SF_NS_4lessIS8_EELb1EEENS5_ISF_EEE15__insert_uniqueB8ue170006ERKNS_4pairIS8_SE_EE, symObjAddr: 0x2ED2C, symBinAddr: 0x100033338, symSize: 0x50 }
  - { offsetInCU: 0x3C9D9, offset: 0x3C9D9, size: 0x8, addend: 0x0, symName: __ZNSt3__14pairINS_14__map_iteratorINS_15__tree_iteratorINS_12__value_typeIKNS_12basic_stringIcNS_11char_traitsIcEENS_9allocatorIcEEEEPN4Pika6ScriptINSB_9StdConfigEE6NativeEEEPNS_11__tree_nodeISH_PvEElEEEEbEC1B8ue170006ISM_bEERKNS0_IT_T0_EE, symObjAddr: 0x2ED7C, symBinAddr: 0x100033388, symSize: 0x34 }
  - { offsetInCU: 0x3CA23, offset: 0x3CA23, size: 0x8, addend: 0x0, symName: __ZNSt3__16__treeINS_12__value_typeIKNS_12basic_stringIcNS_11char_traitsIcEENS_9allocatorIcEEEEPN4Pika6ScriptINS9_9StdConfigEE6NativeEEENS_19__map_value_compareIS8_SF_NS_4lessIS8_EELb1EEENS5_ISF_EEE25__emplace_unique_key_argsIS7_JRKNS_4pairIS8_SE_EEEEENSN_INS_15__tree_iteratorISF_PNS_11__tree_nodeISF_PvEElEEbEERKT_DpOT0_, symObjAddr: 0x2EDB0, symBinAddr: 0x1000333BC, symSize: 0xF0 }
  - { offsetInCU: 0x3CACF, offset: 0x3CACF, size: 0x8, addend: 0x0, symName: __ZNSt3__122__tree_key_value_typesINS_12__value_typeIKNS_12basic_stringIcNS_11char_traitsIcEENS_9allocatorIcEEEEPN4Pika6ScriptINS9_9StdConfigEE6NativeEEEE9__get_keyB8ue170006IKNS_4pairIS8_SE_EEEENS_9enable_ifIXsr17__is_same_uncvrefIT_SJ_EE5valueERS8_E4typeERSM_, symObjAddr: 0x2EEA0, symBinAddr: 0x1000334AC, symSize: 0x14 }
  - { offsetInCU: 0x3CAFC, offset: 0x3CAFC, size: 0x8, addend: 0x0, symName: __ZNSt3__16__treeINS_12__value_typeIKNS_12basic_stringIcNS_11char_traitsIcEENS_9allocatorIcEEEEPN4Pika6ScriptINS9_9StdConfigEE6NativeEEENS_19__map_value_compareIS8_SF_NS_4lessIS8_EELb1EEENS5_ISF_EEE12__find_equalIS7_EERPNS_16__tree_node_baseIPvEERPNS_15__tree_end_nodeISQ_EERKT_, symObjAddr: 0x2EEB4, symBinAddr: 0x1000334C0, symSize: 0x184 }
  - { offsetInCU: 0x3CB69, offset: 0x3CB69, size: 0x8, addend: 0x0, symName: __ZNSt3__16__treeINS_12__value_typeIKNS_12basic_stringIcNS_11char_traitsIcEENS_9allocatorIcEEEEPN4Pika6ScriptINS9_9StdConfigEE6NativeEEENS_19__map_value_compareIS8_SF_NS_4lessIS8_EELb1EEENS5_ISF_EEE16__construct_nodeIJRKNS_4pairIS8_SE_EEEEENS_10unique_ptrINS_11__tree_nodeISF_PvEENS_22__tree_node_destructorINS5_ISU_EEEEEEDpOT_, symObjAddr: 0x2F038, symBinAddr: 0x100033644, symSize: 0x118 }
  - { offsetInCU: 0x3CBCA, offset: 0x3CBCA, size: 0x8, addend: 0x0, symName: __ZNSt3__16__treeINS_12__value_typeIKNS_12basic_stringIcNS_11char_traitsIcEENS_9allocatorIcEEEEPN4Pika6ScriptINS9_9StdConfigEE6NativeEEENS_19__map_value_compareIS8_SF_NS_4lessIS8_EELb1EEENS5_ISF_EEE16__insert_node_atEPNS_15__tree_end_nodeIPNS_16__tree_node_baseIPvEEEERSQ_SQ_, symObjAddr: 0x2F150, symBinAddr: 0x10003375C, symSize: 0xCC }
  - { offsetInCU: 0x3CC1F, offset: 0x3CC1F, size: 0x8, addend: 0x0, symName: __ZNKSt3__110unique_ptrINS_11__tree_nodeINS_12__value_typeIKNS_12basic_stringIcNS_11char_traitsIcEENS_9allocatorIcEEEEPN4Pika6ScriptINSA_9StdConfigEE6NativeEEEPvEENS_22__tree_node_destructorINS6_ISI_EEEEE3getB8ue170006Ev, symObjAddr: 0x2F21C, symBinAddr: 0x100033828, symSize: 0x28 }
  - { offsetInCU: 0x3CC45, offset: 0x3CC45, size: 0x8, addend: 0x0, symName: __ZNSt3__110unique_ptrINS_11__tree_nodeINS_12__value_typeIKNS_12basic_stringIcNS_11char_traitsIcEENS_9allocatorIcEEEEPN4Pika6ScriptINSA_9StdConfigEE6NativeEEEPvEENS_22__tree_node_destructorINS6_ISI_EEEEE7releaseB8ue170006Ev, symObjAddr: 0x2F244, symBinAddr: 0x100033850, symSize: 0x44 }
  - { offsetInCU: 0x3CC7A, offset: 0x3CC7A, size: 0x8, addend: 0x0, symName: __ZNSt3__110unique_ptrINS_11__tree_nodeINS_12__value_typeIKNS_12basic_stringIcNS_11char_traitsIcEENS_9allocatorIcEEEEPN4Pika6ScriptINSA_9StdConfigEE6NativeEEEPvEENS_22__tree_node_destructorINS6_ISI_EEEEED1B8ue170006Ev, symObjAddr: 0x2F288, symBinAddr: 0x100033894, symSize: 0x2C }
  - { offsetInCU: 0x3CCA4, offset: 0x3CCA4, size: 0x8, addend: 0x0, symName: __ZNSt3__115__tree_iteratorINS_12__value_typeIKNS_12basic_stringIcNS_11char_traitsIcEENS_9allocatorIcEEEEPN4Pika6ScriptINS9_9StdConfigEE6NativeEEEPNS_11__tree_nodeISF_PvEElEC1B8ue170006ESJ_, symObjAddr: 0x2F2B4, symBinAddr: 0x1000338C0, symSize: 0x34 }
  - { offsetInCU: 0x3CCDD, offset: 0x3CCDD, size: 0x8, addend: 0x0, symName: __ZNSt3__14pairINS_15__tree_iteratorINS_12__value_typeIKNS_12basic_stringIcNS_11char_traitsIcEENS_9allocatorIcEEEEPN4Pika6ScriptINSA_9StdConfigEE6NativeEEEPNS_11__tree_nodeISG_PvEElEEbEC1B8ue170006ERKSL_RKb, symObjAddr: 0x2F2E8, symBinAddr: 0x1000338F4, symSize: 0x3C }
  - { offsetInCU: 0x3CD23, offset: 0x3CD23, size: 0x8, addend: 0x0, symName: __ZNKSt3__16__treeINS_12__value_typeIKNS_12basic_stringIcNS_11char_traitsIcEENS_9allocatorIcEEEEPN4Pika6ScriptINS9_9StdConfigEE6NativeEEENS_19__map_value_compareIS8_SF_NS_4lessIS8_EELb1EEENS5_ISF_EEE10__root_ptrB8ue170006Ev, symObjAddr: 0x2F324, symBinAddr: 0x100033930, symSize: 0x24 }
  - { offsetInCU: 0x3CD49, offset: 0x3CD49, size: 0x8, addend: 0x0, symName: __ZNSt3__116allocator_traitsINS_9allocatorINS_11__tree_nodeINS_12__value_typeIKNS_12basic_stringIcNS_11char_traitsIcEENS1_IcEEEEPN4Pika6ScriptINSA_9StdConfigEE6NativeEEEPvEEEEE8allocateB8ue170006ERSJ_m, symObjAddr: 0x2F348, symBinAddr: 0x100033954, symSize: 0x2C }
  - { offsetInCU: 0x3CD7C, offset: 0x3CD7C, size: 0x8, addend: 0x0, symName: __ZNSt3__122__tree_node_destructorINS_9allocatorINS_11__tree_nodeINS_12__value_typeIKNS_12basic_stringIcNS_11char_traitsIcEENS1_IcEEEEPN4Pika6ScriptINSA_9StdConfigEE6NativeEEEPvEEEEEC1B8ue170006ERSJ_b, symObjAddr: 0x2F374, symBinAddr: 0x100033980, symSize: 0x48 }
  - { offsetInCU: 0x3CDC9, offset: 0x3CDC9, size: 0x8, addend: 0x0, symName: __ZNSt3__110unique_ptrINS_11__tree_nodeINS_12__value_typeIKNS_12basic_stringIcNS_11char_traitsIcEENS_9allocatorIcEEEEPN4Pika6ScriptINSA_9StdConfigEE6NativeEEEPvEENS_22__tree_node_destructorINS6_ISI_EEEEEC1B8ue170006ILb1EvEEPSI_NS_16__dependent_typeINS_27__unique_ptr_deleter_sfinaeISL_EEXT_EE20__good_rval_ref_typeE, symObjAddr: 0x2F3BC, symBinAddr: 0x1000339C8, symSize: 0x3C }
  - { offsetInCU: 0x3CE1A, offset: 0x3CE1A, size: 0x8, addend: 0x0, symName: __ZNSt3__116allocator_traitsINS_9allocatorINS_11__tree_nodeINS_12__value_typeIKNS_12basic_stringIcNS_11char_traitsIcEENS1_IcEEEEPN4Pika6ScriptINSA_9StdConfigEE6NativeEEEPvEEEEE9constructB8ue170006INS_4pairIS9_SF_EEJRKSN_EvEEvRSJ_PT_DpOT0_, symObjAddr: 0x2F3F8, symBinAddr: 0x100033A04, symSize: 0x34 }
  - { offsetInCU: 0x3CE71, offset: 0x3CE71, size: 0x8, addend: 0x0, symName: __ZNKSt3__110unique_ptrINS_11__tree_nodeINS_12__value_typeIKNS_12basic_stringIcNS_11char_traitsIcEENS_9allocatorIcEEEEPN4Pika6ScriptINSA_9StdConfigEE6NativeEEEPvEENS_22__tree_node_destructorINS6_ISI_EEEEEptB8ue170006Ev, symObjAddr: 0x2F42C, symBinAddr: 0x100033A38, symSize: 0x28 }
  - { offsetInCU: 0x3CE97, offset: 0x3CE97, size: 0x8, addend: 0x0, symName: __ZNSt3__110unique_ptrINS_11__tree_nodeINS_12__value_typeIKNS_12basic_stringIcNS_11char_traitsIcEENS_9allocatorIcEEEEPN4Pika6ScriptINSA_9StdConfigEE6NativeEEEPvEENS_22__tree_node_destructorINS6_ISI_EEEEE11get_deleterB8ue170006Ev, symObjAddr: 0x2F454, symBinAddr: 0x100033A60, symSize: 0x24 }
  - { offsetInCU: 0x3CEBD, offset: 0x3CEBD, size: 0x8, addend: 0x0, symName: __ZNSt3__19allocatorINS_11__tree_nodeINS_12__value_typeIKNS_12basic_stringIcNS_11char_traitsIcEENS0_IcEEEEPN4Pika6ScriptINS9_9StdConfigEE6NativeEEEPvEEE8allocateB8ue170006Em, symObjAddr: 0x2F478, symBinAddr: 0x100033A84, symSize: 0x84 }
  - { offsetInCU: 0x3CEFB, offset: 0x3CEFB, size: 0x8, addend: 0x0, symName: __ZNSt3__116allocator_traitsINS_9allocatorINS_11__tree_nodeINS_12__value_typeIKNS_12basic_stringIcNS_11char_traitsIcEENS1_IcEEEEPN4Pika6ScriptINSA_9StdConfigEE6NativeEEEPvEEEEE8max_sizeB8ue170006ISJ_vEEmRKSJ_, symObjAddr: 0x2F4FC, symBinAddr: 0x100033B08, symSize: 0x24 }
  - { offsetInCU: 0x3CF29, offset: 0x3CF29, size: 0x8, addend: 0x0, symName: __ZNKSt3__19allocatorINS_11__tree_nodeINS_12__value_typeIKNS_12basic_stringIcNS_11char_traitsIcEENS0_IcEEEEPN4Pika6ScriptINS9_9StdConfigEE6NativeEEEPvEEE8max_sizeB8ue170006Ev, symObjAddr: 0x2F520, symBinAddr: 0x100033B2C, symSize: 0x14 }
  - { offsetInCU: 0x3CF4F, offset: 0x3CF4F, size: 0x8, addend: 0x0, symName: __ZNSt3__122__tree_node_destructorINS_9allocatorINS_11__tree_nodeINS_12__value_typeIKNS_12basic_stringIcNS_11char_traitsIcEENS1_IcEEEEPN4Pika6ScriptINSA_9StdConfigEE6NativeEEEPvEEEEEC2B8ue170006ERSJ_b, symObjAddr: 0x2F534, symBinAddr: 0x100033B40, symSize: 0x38 }
  - { offsetInCU: 0x3CF97, offset: 0x3CF97, size: 0x8, addend: 0x0, symName: __ZNSt3__110unique_ptrINS_11__tree_nodeINS_12__value_typeIKNS_12basic_stringIcNS_11char_traitsIcEENS_9allocatorIcEEEEPN4Pika6ScriptINSA_9StdConfigEE6NativeEEEPvEENS_22__tree_node_destructorINS6_ISI_EEEEEC2B8ue170006ILb1EvEEPSI_NS_16__dependent_typeINS_27__unique_ptr_deleter_sfinaeISL_EEXT_EE20__good_rval_ref_typeE, symObjAddr: 0x2F56C, symBinAddr: 0x100033B78, symSize: 0x5C }
  - { offsetInCU: 0x3CFE8, offset: 0x3CFE8, size: 0x8, addend: 0x0, symName: __ZNSt3__117__compressed_pairIPNS_11__tree_nodeINS_12__value_typeIKNS_12basic_stringIcNS_11char_traitsIcEENS_9allocatorIcEEEEPN4Pika6ScriptINSA_9StdConfigEE6NativeEEEPvEENS_22__tree_node_destructorINS6_ISI_EEEEEC1B8ue170006IRSJ_SM_EEOT_OT0_, symObjAddr: 0x2F5C8, symBinAddr: 0x100033BD4, symSize: 0x3C }
  - { offsetInCU: 0x3D040, offset: 0x3D040, size: 0x8, addend: 0x0, symName: __ZNSt3__117__compressed_pairIPNS_11__tree_nodeINS_12__value_typeIKNS_12basic_stringIcNS_11char_traitsIcEENS_9allocatorIcEEEEPN4Pika6ScriptINSA_9StdConfigEE6NativeEEEPvEENS_22__tree_node_destructorINS6_ISI_EEEEEC2B8ue170006IRSJ_SM_EEOT_OT0_, symObjAddr: 0x2F604, symBinAddr: 0x100033C10, symSize: 0x48 }
  - { offsetInCU: 0x3D098, offset: 0x3D098, size: 0x8, addend: 0x0, symName: __ZNSt3__122__compressed_pair_elemIPNS_11__tree_nodeINS_12__value_typeIKNS_12basic_stringIcNS_11char_traitsIcEENS_9allocatorIcEEEEPN4Pika6ScriptINSA_9StdConfigEE6NativeEEEPvEELi0ELb0EEC2B8ue170006IRSJ_vEEOT_, symObjAddr: 0x2F64C, symBinAddr: 0x100033C58, symSize: 0x24 }
  - { offsetInCU: 0x3D0DA, offset: 0x3D0DA, size: 0x8, addend: 0x0, symName: __ZNSt3__122__compressed_pair_elemINS_22__tree_node_destructorINS_9allocatorINS_11__tree_nodeINS_12__value_typeIKNS_12basic_stringIcNS_11char_traitsIcEENS2_IcEEEEPN4Pika6ScriptINSB_9StdConfigEE6NativeEEEPvEEEEEELi1ELb0EEC2B8ue170006ISL_vEEOT_, symObjAddr: 0x2F670, symBinAddr: 0x100033C7C, symSize: 0x24 }
  - { offsetInCU: 0x3D11C, offset: 0x3D11C, size: 0x8, addend: 0x0, symName: __ZNSt3__19allocatorINS_11__tree_nodeINS_12__value_typeIKNS_12basic_stringIcNS_11char_traitsIcEENS0_IcEEEEPN4Pika6ScriptINS9_9StdConfigEE6NativeEEEPvEEE9constructB8ue170006INS_4pairIS8_SE_EEJRKSL_EEEvPT_DpOT0_, symObjAddr: 0x2F694, symBinAddr: 0x100033CA0, symSize: 0x30 }
  - { offsetInCU: 0x3D172, offset: 0x3D172, size: 0x8, addend: 0x0, symName: __ZNSt3__14pairIKNS_12basic_stringIcNS_11char_traitsIcEENS_9allocatorIcEEEEPN4Pika6ScriptINS8_9StdConfigEE6NativeEEC1B8ue170006ERKSE_, symObjAddr: 0x2F6C4, symBinAddr: 0x100033CD0, symSize: 0x34 }
  - { offsetInCU: 0x3D1A6, offset: 0x3D1A6, size: 0x8, addend: 0x0, symName: __ZNSt3__14pairIKNS_12basic_stringIcNS_11char_traitsIcEENS_9allocatorIcEEEEPN4Pika6ScriptINS8_9StdConfigEE6NativeEEC2B8ue170006ERKSE_, symObjAddr: 0x2F6F8, symBinAddr: 0x100033D04, symSize: 0x40 }
  - { offsetInCU: 0x3D1DA, offset: 0x3D1DA, size: 0x8, addend: 0x0, symName: __ZNKSt3__117__compressed_pairIPNS_11__tree_nodeINS_12__value_typeIKNS_12basic_stringIcNS_11char_traitsIcEENS_9allocatorIcEEEEPN4Pika6ScriptINSA_9StdConfigEE6NativeEEEPvEENS_22__tree_node_destructorINS6_ISI_EEEEE5firstB8ue170006Ev, symObjAddr: 0x2F738, symBinAddr: 0x100033D44, symSize: 0x24 }
  - { offsetInCU: 0x3D200, offset: 0x3D200, size: 0x8, addend: 0x0, symName: __ZNKSt3__122__compressed_pair_elemIPNS_11__tree_nodeINS_12__value_typeIKNS_12basic_stringIcNS_11char_traitsIcEENS_9allocatorIcEEEEPN4Pika6ScriptINSA_9StdConfigEE6NativeEEEPvEELi0ELb0EE5__getB8ue170006Ev, symObjAddr: 0x2F75C, symBinAddr: 0x100033D68, symSize: 0x14 }
  - { offsetInCU: 0x3D226, offset: 0x3D226, size: 0x8, addend: 0x0, symName: __ZNSt3__117__compressed_pairIPNS_11__tree_nodeINS_12__value_typeIKNS_12basic_stringIcNS_11char_traitsIcEENS_9allocatorIcEEEEPN4Pika6ScriptINSA_9StdConfigEE6NativeEEEPvEENS_22__tree_node_destructorINS6_ISI_EEEEE6secondB8ue170006Ev, symObjAddr: 0x2F770, symBinAddr: 0x100033D7C, symSize: 0x28 }
  - { offsetInCU: 0x3D24C, offset: 0x3D24C, size: 0x8, addend: 0x0, symName: __ZNSt3__122__compressed_pair_elemINS_22__tree_node_destructorINS_9allocatorINS_11__tree_nodeINS_12__value_typeIKNS_12basic_stringIcNS_11char_traitsIcEENS2_IcEEEEPN4Pika6ScriptINSB_9StdConfigEE6NativeEEEPvEEEEEELi1ELb0EE5__getB8ue170006Ev, symObjAddr: 0x2F798, symBinAddr: 0x100033DA4, symSize: 0x14 }
  - { offsetInCU: 0x3D272, offset: 0x3D272, size: 0x8, addend: 0x0, symName: __ZNSt3__16__treeINS_12__value_typeIKNS_12basic_stringIcNS_11char_traitsIcEENS_9allocatorIcEEEEPN4Pika6ScriptINS9_9StdConfigEE6NativeEEENS_19__map_value_compareIS8_SF_NS_4lessIS8_EELb1EEENS5_ISF_EEE4sizeB8ue170006Ev, symObjAddr: 0x2F7AC, symBinAddr: 0x100033DB8, symSize: 0x28 }
  - { offsetInCU: 0x3D298, offset: 0x3D298, size: 0x8, addend: 0x0, symName: __ZNSt3__117__compressed_pairImNS_19__map_value_compareIKNS_12basic_stringIcNS_11char_traitsIcEENS_9allocatorIcEEEENS_12__value_typeIS8_PN4Pika6ScriptINSA_9StdConfigEE6NativeEEENS_4lessIS8_EELb1EEEE5firstB8ue170006Ev, symObjAddr: 0x2F7D4, symBinAddr: 0x100033DE0, symSize: 0x24 }
  - { offsetInCU: 0x3D2BE, offset: 0x3D2BE, size: 0x8, addend: 0x0, symName: __ZNSt3__117__compressed_pairIPNS_11__tree_nodeINS_12__value_typeIKNS_12basic_stringIcNS_11char_traitsIcEENS_9allocatorIcEEEEPN4Pika6ScriptINSA_9StdConfigEE6NativeEEEPvEENS_22__tree_node_destructorINS6_ISI_EEEEE5firstB8ue170006Ev, symObjAddr: 0x2F7F8, symBinAddr: 0x100033E04, symSize: 0x24 }
  - { offsetInCU: 0x3D2E4, offset: 0x3D2E4, size: 0x8, addend: 0x0, symName: __ZNSt3__122__compressed_pair_elemIPNS_11__tree_nodeINS_12__value_typeIKNS_12basic_stringIcNS_11char_traitsIcEENS_9allocatorIcEEEEPN4Pika6ScriptINSA_9StdConfigEE6NativeEEEPvEELi0ELb0EE5__getB8ue170006Ev, symObjAddr: 0x2F81C, symBinAddr: 0x100033E28, symSize: 0x14 }
  - { offsetInCU: 0x3D30A, offset: 0x3D30A, size: 0x8, addend: 0x0, symName: __ZNSt3__110unique_ptrINS_11__tree_nodeINS_12__value_typeIKNS_12basic_stringIcNS_11char_traitsIcEENS_9allocatorIcEEEEPN4Pika6ScriptINSA_9StdConfigEE6NativeEEEPvEENS_22__tree_node_destructorINS6_ISI_EEEEED2B8ue170006Ev, symObjAddr: 0x2F830, symBinAddr: 0x100033E3C, symSize: 0x30 }
  - { offsetInCU: 0x3D334, offset: 0x3D334, size: 0x8, addend: 0x0, symName: __ZNSt3__110unique_ptrINS_11__tree_nodeINS_12__value_typeIKNS_12basic_stringIcNS_11char_traitsIcEENS_9allocatorIcEEEEPN4Pika6ScriptINSA_9StdConfigEE6NativeEEEPvEENS_22__tree_node_destructorINS6_ISI_EEEEE5resetB8ue170006EPSI_, symObjAddr: 0x2F860, symBinAddr: 0x100033E6C, symSize: 0x78 }
  - { offsetInCU: 0x3D378, offset: 0x3D378, size: 0x8, addend: 0x0, symName: __ZNSt3__122__tree_node_destructorINS_9allocatorINS_11__tree_nodeINS_12__value_typeIKNS_12basic_stringIcNS_11char_traitsIcEENS1_IcEEEEPN4Pika6ScriptINSA_9StdConfigEE6NativeEEEPvEEEEEclB8ue170006EPSI_, symObjAddr: 0x2F8D8, symBinAddr: 0x100033EE4, symSize: 0xAC }
  - { offsetInCU: 0x3D3AD, offset: 0x3D3AD, size: 0x8, addend: 0x0, symName: __ZNSt3__115__tree_iteratorINS_12__value_typeIKNS_12basic_stringIcNS_11char_traitsIcEENS_9allocatorIcEEEEPN4Pika6ScriptINS9_9StdConfigEE6NativeEEEPNS_11__tree_nodeISF_PvEElEC2B8ue170006ESJ_, symObjAddr: 0x2F984, symBinAddr: 0x100033F90, symSize: 0x20 }
  - { offsetInCU: 0x3D3E6, offset: 0x3D3E6, size: 0x8, addend: 0x0, symName: __ZNSt3__14pairINS_15__tree_iteratorINS_12__value_typeIKNS_12basic_stringIcNS_11char_traitsIcEENS_9allocatorIcEEEEPN4Pika6ScriptINSA_9StdConfigEE6NativeEEEPNS_11__tree_nodeISG_PvEElEEbEC2B8ue170006ERKSL_RKb, symObjAddr: 0x2F9A4, symBinAddr: 0x100033FB0, symSize: 0x38 }
  - { offsetInCU: 0x3D42C, offset: 0x3D42C, size: 0x8, addend: 0x0, symName: __ZNSt3__14pairINS_14__map_iteratorINS_15__tree_iteratorINS_12__value_typeIKNS_12basic_stringIcNS_11char_traitsIcEENS_9allocatorIcEEEEPN4Pika6ScriptINSB_9StdConfigEE6NativeEEEPNS_11__tree_nodeISH_PvEElEEEEbEC2B8ue170006ISM_bEERKNS0_IT_T0_EE, symObjAddr: 0x2F9DC, symBinAddr: 0x100033FE8, symSize: 0x50 }
  - { offsetInCU: 0x3D476, offset: 0x3D476, size: 0x8, addend: 0x0, symName: __ZNSt3__16__treeINS_12__value_typeIKNS_12basic_stringIcNS_11char_traitsIcEENS_9allocatorIcEEEEPN4Pika6ScriptINS9_9StdConfigEE6NativeEEENS_19__map_value_compareIS8_SF_NS_4lessIS8_EELb1EEENS5_ISF_EEE5beginB8ue170006Ev, symObjAddr: 0x2FA2C, symBinAddr: 0x100034038, symSize: 0x34 }
  - { offsetInCU: 0x3D49C, offset: 0x3D49C, size: 0x8, addend: 0x0, symName: __ZNSt3__115__tree_iteratorINS_12__value_typeIKNS_12basic_stringIcNS_11char_traitsIcEENS_9allocatorIcEEEEPN4Pika6ScriptINS9_9StdConfigEE6NativeEEEPNS_11__tree_nodeISF_PvEElEppB8ue170006Ev, symObjAddr: 0x2FA60, symBinAddr: 0x10003406C, symSize: 0x38 }
  - { offsetInCU: 0x3D4C2, offset: 0x3D4C2, size: 0x8, addend: 0x0, symName: __ZNSt3__116reverse_iteratorINS_11__wrap_iterIPKcEEEC1B8ue170006ES4_, symObjAddr: 0x2FA98, symBinAddr: 0x1000340A4, symSize: 0x34 }
  - { offsetInCU: 0x3D4FA, offset: 0x3D4FA, size: 0x8, addend: 0x0, symName: __ZNSt3__116reverse_iteratorINS_11__wrap_iterIPKcEEEC2B8ue170006ES4_, symObjAddr: 0x2FACC, symBinAddr: 0x1000340D8, symSize: 0x28 }
  - { offsetInCU: 0x3D532, offset: 0x3D532, size: 0x8, addend: 0x0, symName: __ZNSt3__118__unwrap_iter_implINS_16reverse_iteratorINS_11__wrap_iterIPKcEEEELb0EE8__rewrapB8ue170006ES6_S6_, symObjAddr: 0x2FC64, symBinAddr: 0x100034270, symSize: 0x2C }
  - { offsetInCU: 0x3D55F, offset: 0x3D55F, size: 0x8, addend: 0x0, symName: __ZNKSt3__116reverse_iteratorINS_11__wrap_iterIPKcEEEdeB8ue170006Ev, symObjAddr: 0x2FCE4, symBinAddr: 0x1000342F0, symSize: 0x34 }
  - { offsetInCU: 0x3D593, offset: 0x3D593, size: 0x8, addend: 0x0, symName: __ZNSt3__116reverse_iteratorINS_11__wrap_iterIPKcEEEppB8ue170006Ev, symObjAddr: 0x2FD18, symBinAddr: 0x100034324, symSize: 0x30 }
  - { offsetInCU: 0x3D5B9, offset: 0x3D5B9, size: 0x8, addend: 0x0, symName: __ZNSt3__118__unwrap_iter_implINS_16reverse_iteratorINS_11__wrap_iterIPKcEEEELb0EE8__unwrapB8ue170006ES6_, symObjAddr: 0x2FD48, symBinAddr: 0x100034354, symSize: 0x24 }
  - { offsetInCU: 0x3D5DC, offset: 0x3D5DC, size: 0x8, addend: 0x0, symName: __ZNSt3__14pairIN4Pika8STLValueINS_12basic_stringIcNS_11char_traitsIcEENS_9allocatorIcEEEEEES8_EC2B8ue170006ERKS9_RKS8_, symObjAddr: 0x2FD6C, symBinAddr: 0x100034378, symSize: 0x78 }
  - { offsetInCU: 0x3D622, offset: 0x3D622, size: 0x8, addend: 0x0, symName: __ZNSt3__112basic_stringIcNS_11char_traitsIcEENS_9allocatorIcEEEC2B8ue170006Emc, symObjAddr: 0x2FDE4, symBinAddr: 0x1000343F0, symSize: 0x4C }
  - { offsetInCU: 0x3D66A, offset: 0x3D66A, size: 0x8, addend: 0x0, symName: __ZNSt3__16vectorINS_4pairINS_12basic_stringIcNS_11char_traitsIcEENS_9allocatorIcEEEEN4Pika8STLValueIS7_EEEENS5_ISB_EEEC2B8ue170006Ev, symObjAddr: 0x2FF04, symBinAddr: 0x100034510, symSize: 0x44 }
  - { offsetInCU: 0x3D694, offset: 0x3D694, size: 0x8, addend: 0x0, symName: __ZNSt3__117__compressed_pairIPNS_4pairINS_12basic_stringIcNS_11char_traitsIcEENS_9allocatorIcEEEEN4Pika8STLValueIS7_EEEENS5_ISB_EEEC1B8ue170006IDnNS_18__default_init_tagEEEOT_OT0_, symObjAddr: 0x2FF48, symBinAddr: 0x100034554, symSize: 0x3C }
  - { offsetInCU: 0x3D6EC, offset: 0x3D6EC, size: 0x8, addend: 0x0, symName: __ZNSt3__117__compressed_pairIPNS_4pairINS_12basic_stringIcNS_11char_traitsIcEENS_9allocatorIcEEEEN4Pika8STLValueIS7_EEEENS5_ISB_EEEC2B8ue170006IDnNS_18__default_init_tagEEEOT_OT0_, symObjAddr: 0x2FF84, symBinAddr: 0x100034590, symSize: 0x40 }
  - { offsetInCU: 0x3D744, offset: 0x3D744, size: 0x8, addend: 0x0, symName: __ZNSt3__122__compressed_pair_elemINS_9allocatorINS_4pairINS_12basic_stringIcNS_11char_traitsIcEENS1_IcEEEEN4Pika8STLValueIS7_EEEEEELi1ELb1EEC2B8ue170006ENS_18__default_init_tagE, symObjAddr: 0x2FFC4, symBinAddr: 0x1000345D0, symSize: 0x2C }
  - { offsetInCU: 0x3D778, offset: 0x3D778, size: 0x8, addend: 0x0, symName: __ZNSt3__19allocatorINS_4pairINS_12basic_stringIcNS_11char_traitsIcEENS0_IcEEEEN4Pika8STLValueIS6_EEEEEC2B8ue170006Ev, symObjAddr: 0x2FFF0, symBinAddr: 0x1000345FC, symSize: 0x2C }
  - { offsetInCU: 0x3D7A2, offset: 0x3D7A2, size: 0x8, addend: 0x0, symName: __ZNSt3__116__non_trivial_ifILb1ENS_9allocatorINS_4pairINS_12basic_stringIcNS_11char_traitsIcEENS1_IcEEEEN4Pika8STLValueIS7_EEEEEEEC2B8ue170006Ev, symObjAddr: 0x3001C, symBinAddr: 0x100034628, symSize: 0x14 }
  - { offsetInCU: 0x3D7CC, offset: 0x3D7CC, size: 0x8, addend: 0x0, symName: __ZNSt3__16vectorINS_4pairINS_12basic_stringIcNS_11char_traitsIcEENS_9allocatorIcEEEEN4Pika8STLValueIS7_EEEENS5_ISB_EEED2B8ue170006Ev, symObjAddr: 0x30030, symBinAddr: 0x10003463C, symSize: 0x3C }
  - { offsetInCU: 0x3D7F6, offset: 0x3D7F6, size: 0x8, addend: 0x0, symName: __ZNSt3__16vectorINS_4pairINS_12basic_stringIcNS_11char_traitsIcEENS_9allocatorIcEEEEN4Pika8STLValueIS7_EEEENS5_ISB_EEE16__destroy_vectorC1B8ue170006ERSD_, symObjAddr: 0x3006C, symBinAddr: 0x100034678, symSize: 0x34 }
  - { offsetInCU: 0x3D82F, offset: 0x3D82F, size: 0x8, addend: 0x0, symName: __ZNSt3__16vectorINS_4pairINS_12basic_stringIcNS_11char_traitsIcEENS_9allocatorIcEEEEN4Pika8STLValueIS7_EEEENS5_ISB_EEE16__destroy_vectorclB8ue170006Ev, symObjAddr: 0x300A0, symBinAddr: 0x1000346AC, symSize: 0x90 }
  - { offsetInCU: 0x3D855, offset: 0x3D855, size: 0x8, addend: 0x0, symName: __ZNSt3__16vectorINS_4pairINS_12basic_stringIcNS_11char_traitsIcEENS_9allocatorIcEEEEN4Pika8STLValueIS7_EEEENS5_ISB_EEE16__destroy_vectorC2B8ue170006ERSD_, symObjAddr: 0x30130, symBinAddr: 0x10003473C, symSize: 0x20 }
  - { offsetInCU: 0x3D88E, offset: 0x3D88E, size: 0x8, addend: 0x0, symName: __ZNSt3__16vectorINS_4pairINS_12basic_stringIcNS_11char_traitsIcEENS_9allocatorIcEEEEN4Pika8STLValueIS7_EEEENS5_ISB_EEE7__clearB8ue170006Ev, symObjAddr: 0x30150, symBinAddr: 0x10003475C, symSize: 0x28 }
  - { offsetInCU: 0x3D8B4, offset: 0x3D8B4, size: 0x8, addend: 0x0, symName: __ZNSt3__16vectorINS_4pairINS_12basic_stringIcNS_11char_traitsIcEENS_9allocatorIcEEEEN4Pika8STLValueIS7_EEEENS5_ISB_EEE22__base_destruct_at_endB8ue170006EPSB_, symObjAddr: 0x30178, symBinAddr: 0x100034784, symSize: 0xA0 }
  - { offsetInCU: 0x3D8F8, offset: 0x3D8F8, size: 0x8, addend: 0x0, symName: __ZNSt3__16vectorINS_4pairINS_12basic_stringIcNS_11char_traitsIcEENS_9allocatorIcEEEEN4Pika8STLValueIS7_EEEENS5_ISB_EEE11__make_iterB8ue170006EPSB_, symObjAddr: 0x30218, symBinAddr: 0x100034824, symSize: 0x30 }
  - { offsetInCU: 0x3D92D, offset: 0x3D92D, size: 0x8, addend: 0x0, symName: __ZNSt3__111__wrap_iterIPNS_4pairINS_12basic_stringIcNS_11char_traitsIcEENS_9allocatorIcEEEEN4Pika8STLValueIS7_EEEEEC1B8ue170006ESC_, symObjAddr: 0x30248, symBinAddr: 0x100034854, symSize: 0x34 }
  - { offsetInCU: 0x3D965, offset: 0x3D965, size: 0x8, addend: 0x0, symName: __ZNSt3__111__wrap_iterIPNS_4pairINS_12basic_stringIcNS_11char_traitsIcEENS_9allocatorIcEEEEN4Pika8STLValueIS7_EEEEEC2B8ue170006ESC_, symObjAddr: 0x3027C, symBinAddr: 0x100034888, symSize: 0x20 }
  - { offsetInCU: 0x3D99D, offset: 0x3D99D, size: 0x8, addend: 0x0, symName: __ZNSt3__111__wrap_iterIPKNS_4pairINS_12basic_stringIcNS_11char_traitsIcEENS_9allocatorIcEEEEN4Pika8STLValueIS7_EEEEEC2B8ue170006IPSB_EERKNS0_IT_EEPNS_9enable_ifIXsr14is_convertibleISH_SD_EE5valueEvE4typeE, symObjAddr: 0x3029C, symBinAddr: 0x1000348A8, symSize: 0x40 }
  - { offsetInCU: 0x3D9E8, offset: 0x3D9E8, size: 0x8, addend: 0x0, symName: __ZNKSt3__111__wrap_iterIPNS_4pairINS_12basic_stringIcNS_11char_traitsIcEENS_9allocatorIcEEEEN4Pika8STLValueIS7_EEEEE4baseB8ue170006Ev, symObjAddr: 0x302DC, symBinAddr: 0x1000348E8, symSize: 0x18 }
  - { offsetInCU: 0x3DA0E, offset: 0x3DA0E, size: 0x8, addend: 0x0, symName: __ZNKSt3__111__wrap_iterIPKNS_4pairINS_12basic_stringIcNS_11char_traitsIcEENS_9allocatorIcEEEEN4Pika8STLValueIS7_EEEEE4baseB8ue170006Ev, symObjAddr: 0x3033C, symBinAddr: 0x100034948, symSize: 0x18 }
  - { offsetInCU: 0x3DA52, offset: 0x3DA52, size: 0x8, addend: 0x0, symName: __ZNKSt3__113basic_ostreamIcNS_11char_traitsIcEEE6sentrycvbB8ue170006Ev, symObjAddr: 0x3055C, symBinAddr: 0x100034B68, symSize: 0x1C }
  - { offsetInCU: 0x3DA78, offset: 0x3DA78, size: 0x8, addend: 0x0, symName: __ZNSt3__119ostreambuf_iteratorIcNS_11char_traitsIcEEEC1B8ue170006ERNS_13basic_ostreamIcS2_EE, symObjAddr: 0x307C0, symBinAddr: 0x100034DCC, symSize: 0x34 }
  - { offsetInCU: 0x3DAB0, offset: 0x3DAB0, size: 0x8, addend: 0x0, symName: __ZNKSt3__18ios_base5flagsB8ue170006Ev, symObjAddr: 0x307F4, symBinAddr: 0x100034E00, symSize: 0x18 }
  - { offsetInCU: 0x3DAD8, offset: 0x3DAD8, size: 0x8, addend: 0x0, symName: __ZNKSt3__19basic_iosIcNS_11char_traitsIcEEE4fillB8ue170006Ev, symObjAddr: 0x3080C, symBinAddr: 0x100034E18, symSize: 0x64 }
  - { offsetInCU: 0x3DB00, offset: 0x3DB00, size: 0x8, addend: 0x0, symName: __ZNKSt3__119ostreambuf_iteratorIcNS_11char_traitsIcEEE6failedB8ue170006Ev, symObjAddr: 0x30870, symBinAddr: 0x100034E7C, symSize: 0x24 }
  - { offsetInCU: 0x3DB26, offset: 0x3DB26, size: 0x8, addend: 0x0, symName: __ZNKSt3__18ios_base5widthB8ue170006Ev, symObjAddr: 0x30894, symBinAddr: 0x100034EA0, symSize: 0x18 }
  - { offsetInCU: 0x3DB4E, offset: 0x3DB4E, size: 0x8, addend: 0x0, symName: __ZNSt3__115basic_streambufIcNS_11char_traitsIcEEE5sputnB8ue170006EPKcl, symObjAddr: 0x308AC, symBinAddr: 0x100034EB8, symSize: 0x3C }
  - { offsetInCU: 0x3DB90, offset: 0x3DB90, size: 0x8, addend: 0x0, symName: __ZNSt3__18ios_base5widthB8ue170006El, symObjAddr: 0x308E8, symBinAddr: 0x100034EF4, symSize: 0x2C }
  - { offsetInCU: 0x3DBD6, offset: 0x3DBD6, size: 0x8, addend: 0x0, symName: __ZNSt3__119ostreambuf_iteratorIcNS_11char_traitsIcEEEC2B8ue170006ERNS_13basic_ostreamIcS2_EE, symObjAddr: 0x30914, symBinAddr: 0x100034F20, symSize: 0x68 }
  - { offsetInCU: 0x3DC0E, offset: 0x3DC0E, size: 0x8, addend: 0x0, symName: __ZNKSt3__19basic_iosIcNS_11char_traitsIcEEE5rdbufB8ue170006Ev, symObjAddr: 0x3097C, symBinAddr: 0x100034F88, symSize: 0x24 }
  - { offsetInCU: 0x3DC36, offset: 0x3DC36, size: 0x8, addend: 0x0, symName: __ZNKSt3__18ios_base5rdbufB8ue170006Ev, symObjAddr: 0x309A0, symBinAddr: 0x100034FAC, symSize: 0x18 }
  - { offsetInCU: 0x3DC5C, offset: 0x3DC5C, size: 0x8, addend: 0x0, symName: __ZNSt3__111char_traitsIcE11eq_int_typeB8ue170006Eii, symObjAddr: 0x309B8, symBinAddr: 0x100034FC4, symSize: 0x28 }
  - { offsetInCU: 0x3DC8F, offset: 0x3DC8F, size: 0x8, addend: 0x0, symName: __ZNSt3__111char_traitsIcE3eofB8ue170006Ev, symObjAddr: 0x309E0, symBinAddr: 0x100034FEC, symSize: 0x8 }
  - { offsetInCU: 0x3DCA3, offset: 0x3DCA3, size: 0x8, addend: 0x0, symName: __ZNKSt3__19basic_iosIcNS_11char_traitsIcEEE5widenB8ue170006Ec, symObjAddr: 0x309E8, symBinAddr: 0x100034FF4, symSize: 0x8C }
  - { offsetInCU: 0x3DD0C, offset: 0x3DD0C, size: 0x8, addend: 0x0, symName: __ZNKSt3__15ctypeIcE5widenB8ue170006Ec, symObjAddr: 0x30AA0, symBinAddr: 0x1000350AC, symSize: 0x38 }
  - { offsetInCU: 0x3DD41, offset: 0x3DD41, size: 0x8, addend: 0x0, symName: __ZNKSt3__18ios_base3eofB8ue170006Ev, symObjAddr: 0x30AD8, symBinAddr: 0x1000350E4, symSize: 0x24 }
  - { offsetInCU: 0x3DD69, offset: 0x3DD69, size: 0x8, addend: 0x0, symName: __ZNKSt3__18ios_base4goodB8ue170006Ev, symObjAddr: 0x30AFC, symBinAddr: 0x100035108, symSize: 0x24 }
  - { offsetInCU: 0x3DDAF, offset: 0x3DDAF, size: 0x8, addend: 0x0, symName: __ZNKSt3__113basic_istreamIcNS_11char_traitsIcEEE6sentrycvbB8ue170006Ev, symObjAddr: 0x30D58, symBinAddr: 0x100035364, symSize: 0x1C }
  - { offsetInCU: 0x3DDD5, offset: 0x3DDD5, size: 0x8, addend: 0x0, symName: __ZNSt3__115basic_streambufIcNS_11char_traitsIcEEE6sbumpcB8ue170006Ev, symObjAddr: 0x30D74, symBinAddr: 0x100035380, symSize: 0x78 }
  - { offsetInCU: 0x3DDFB, offset: 0x3DDFB, size: 0x8, addend: 0x0, symName: __ZNSt3__111char_traitsIcE12to_char_typeB8ue170006Ei, symObjAddr: 0x30DEC, symBinAddr: 0x1000353F8, symSize: 0x18 }
  - { offsetInCU: 0x3DE1E, offset: 0x3DE1E, size: 0x8, addend: 0x0, symName: __ZNSt3__111char_traitsIcE2eqEcc, symObjAddr: 0x30E04, symBinAddr: 0x100035410, symSize: 0x28 }
  - { offsetInCU: 0x3DE4F, offset: 0x3DE4F, size: 0x8, addend: 0x0, symName: __ZNSt3__18ios_base18__setstate_nothrowB8ue170006Ej, symObjAddr: 0x30E2C, symBinAddr: 0x100035438, symSize: 0x64 }
  - { offsetInCU: 0x3DE84, offset: 0x3DE84, size: 0x8, addend: 0x0, symName: __ZNKSt3__19basic_iosIcNS_11char_traitsIcEEE10exceptionsB8ue170006Ev, symObjAddr: 0x30E90, symBinAddr: 0x10003549C, symSize: 0x24 }
  - { offsetInCU: 0x3DEAA, offset: 0x3DEAA, size: 0x8, addend: 0x0, symName: __ZNSt3__111char_traitsIcE11to_int_typeB8ue170006Ec, symObjAddr: 0x30EB4, symBinAddr: 0x1000354C0, symSize: 0x14 }
  - { offsetInCU: 0x3DECE, offset: 0x3DECE, size: 0x8, addend: 0x0, symName: __ZNKSt3__18ios_base10exceptionsB8ue170006Ev, symObjAddr: 0x30EC8, symBinAddr: 0x1000354D4, symSize: 0x18 }
  - { offsetInCU: 0x3DEF6, offset: 0x3DEF6, size: 0x8, addend: 0x0, symName: __ZNSt3__16vectorIN4Pika8STLValueINS_12basic_stringIcNS_11char_traitsIcEENS_9allocatorIcEEEEEENS6_IS9_EEEC2Em, symObjAddr: 0x30EE0, symBinAddr: 0x1000354EC, symSize: 0xDC }
  - { offsetInCU: 0x3DF46, offset: 0x3DF46, size: 0x8, addend: 0x0, symName: __ZNSt3__117__compressed_pairIPN4Pika8STLValueINS_12basic_stringIcNS_11char_traitsIcEENS_9allocatorIcEEEEEENS6_IS9_EEEC1B8ue170006IDnNS_18__default_init_tagEEEOT_OT0_, symObjAddr: 0x30FBC, symBinAddr: 0x1000355C8, symSize: 0x3C }
  - { offsetInCU: 0x3DF9E, offset: 0x3DF9E, size: 0x8, addend: 0x0, symName: __ZNSt3__16vectorIN4Pika8STLValueINS_12basic_stringIcNS_11char_traitsIcEENS_9allocatorIcEEEEEENS6_IS9_EEE16__destroy_vectorC1B8ue170006ERSB_, symObjAddr: 0x31038, symBinAddr: 0x100035644, symSize: 0x34 }
  - { offsetInCU: 0x3DFD7, offset: 0x3DFD7, size: 0x8, addend: 0x0, symName: __ZNSt3__16vectorIN4Pika8STLValueINS_12basic_stringIcNS_11char_traitsIcEENS_9allocatorIcEEEEEENS6_IS9_EEE11__vallocateB8ue170006Em, symObjAddr: 0x3106C, symBinAddr: 0x100035678, symSize: 0xB4 }
  - { offsetInCU: 0x3E01B, offset: 0x3E01B, size: 0x8, addend: 0x0, symName: __ZNSt3__16vectorIN4Pika8STLValueINS_12basic_stringIcNS_11char_traitsIcEENS_9allocatorIcEEEEEENS6_IS9_EEE18__construct_at_endEm, symObjAddr: 0x31120, symBinAddr: 0x10003572C, symSize: 0xD0 }
  - { offsetInCU: 0x3E08D, offset: 0x3E08D, size: 0x8, addend: 0x0, symName: __ZNSt3__128__exception_guard_exceptionsINS_6vectorIN4Pika8STLValueINS_12basic_stringIcNS_11char_traitsIcEENS_9allocatorIcEEEEEENS7_ISA_EEE16__destroy_vectorEE10__completeB8ue170006Ev, symObjAddr: 0x311F0, symBinAddr: 0x1000357FC, symSize: 0x1C }
  - { offsetInCU: 0x3E0B3, offset: 0x3E0B3, size: 0x8, addend: 0x0, symName: __ZNSt3__128__exception_guard_exceptionsINS_6vectorIN4Pika8STLValueINS_12basic_stringIcNS_11char_traitsIcEENS_9allocatorIcEEEEEENS7_ISA_EEE16__destroy_vectorEED1B8ue170006Ev, symObjAddr: 0x3120C, symBinAddr: 0x100035818, symSize: 0x2C }
  - { offsetInCU: 0x3E0DD, offset: 0x3E0DD, size: 0x8, addend: 0x0, symName: __ZNSt3__117__compressed_pairIPN4Pika8STLValueINS_12basic_stringIcNS_11char_traitsIcEENS_9allocatorIcEEEEEENS6_IS9_EEEC2B8ue170006IDnNS_18__default_init_tagEEEOT_OT0_, symObjAddr: 0x31238, symBinAddr: 0x100035844, symSize: 0x40 }
  - { offsetInCU: 0x3E135, offset: 0x3E135, size: 0x8, addend: 0x0, symName: __ZNSt3__122__compressed_pair_elemIPN4Pika8STLValueINS_12basic_stringIcNS_11char_traitsIcEENS_9allocatorIcEEEEEELi0ELb0EEC2B8ue170006IDnvEEOT_, symObjAddr: 0x31278, symBinAddr: 0x100035884, symSize: 0x1C }
  - { offsetInCU: 0x3E177, offset: 0x3E177, size: 0x8, addend: 0x0, symName: __ZNSt3__122__compressed_pair_elemINS_9allocatorIN4Pika8STLValueINS_12basic_stringIcNS_11char_traitsIcEENS1_IcEEEEEEEELi1ELb1EEC2B8ue170006ENS_18__default_init_tagE, symObjAddr: 0x31294, symBinAddr: 0x1000358A0, symSize: 0x2C }
  - { offsetInCU: 0x3E1AB, offset: 0x3E1AB, size: 0x8, addend: 0x0, symName: __ZNSt3__19allocatorIN4Pika8STLValueINS_12basic_stringIcNS_11char_traitsIcEENS0_IcEEEEEEEC2B8ue170006Ev, symObjAddr: 0x312C0, symBinAddr: 0x1000358CC, symSize: 0x2C }
  - { offsetInCU: 0x3E1D5, offset: 0x3E1D5, size: 0x8, addend: 0x0, symName: __ZNSt3__116__non_trivial_ifILb1ENS_9allocatorIN4Pika8STLValueINS_12basic_stringIcNS_11char_traitsIcEENS1_IcEEEEEEEEEC2B8ue170006Ev, symObjAddr: 0x312EC, symBinAddr: 0x1000358F8, symSize: 0x14 }
  - { offsetInCU: 0x3E1FF, offset: 0x3E1FF, size: 0x8, addend: 0x0, symName: __ZNSt3__128__exception_guard_exceptionsINS_6vectorIN4Pika8STLValueINS_12basic_stringIcNS_11char_traitsIcEENS_9allocatorIcEEEEEENS7_ISA_EEE16__destroy_vectorEEC1B8ue170006ESD_, symObjAddr: 0x31300, symBinAddr: 0x10003590C, symSize: 0x34 }
  - { offsetInCU: 0x3E237, offset: 0x3E237, size: 0x8, addend: 0x0, symName: __ZNSt3__128__exception_guard_exceptionsINS_6vectorIN4Pika8STLValueINS_12basic_stringIcNS_11char_traitsIcEENS_9allocatorIcEEEEEENS7_ISA_EEE16__destroy_vectorEEC2B8ue170006ESD_, symObjAddr: 0x31334, symBinAddr: 0x100035940, symSize: 0x24 }
  - { offsetInCU: 0x3E26F, offset: 0x3E26F, size: 0x8, addend: 0x0, symName: __ZNSt3__16vectorIN4Pika8STLValueINS_12basic_stringIcNS_11char_traitsIcEENS_9allocatorIcEEEEEENS6_IS9_EEE16__destroy_vectorC2B8ue170006ERSB_, symObjAddr: 0x31358, symBinAddr: 0x100035964, symSize: 0x20 }
  - { offsetInCU: 0x3E2A8, offset: 0x3E2A8, size: 0x8, addend: 0x0, symName: __ZNKSt3__16vectorIN4Pika8STLValueINS_12basic_stringIcNS_11char_traitsIcEENS_9allocatorIcEEEEEENS6_IS9_EEE8max_sizeEv, symObjAddr: 0x31378, symBinAddr: 0x100035984, symSize: 0x74 }
  - { offsetInCU: 0x3E2D0, offset: 0x3E2D0, size: 0x8, addend: 0x0, symName: __ZNKSt3__16vectorIN4Pika8STLValueINS_12basic_stringIcNS_11char_traitsIcEENS_9allocatorIcEEEEEENS6_IS9_EEE20__throw_length_errorB8ue170006Ev, symObjAddr: 0x313EC, symBinAddr: 0x1000359F8, symSize: 0x1C }
  - { offsetInCU: 0x3E2F6, offset: 0x3E2F6, size: 0x8, addend: 0x0, symName: __ZNSt3__16vectorIN4Pika8STLValueINS_12basic_stringIcNS_11char_traitsIcEENS_9allocatorIcEEEEEENS6_IS9_EEE7__allocB8ue170006Ev, symObjAddr: 0x31448, symBinAddr: 0x100035A54, symSize: 0x28 }
  - { offsetInCU: 0x3E31C, offset: 0x3E31C, size: 0x8, addend: 0x0, symName: __ZNSt3__16vectorIN4Pika8STLValueINS_12basic_stringIcNS_11char_traitsIcEENS_9allocatorIcEEEEEENS6_IS9_EEE9__end_capB8ue170006Ev, symObjAddr: 0x31470, symBinAddr: 0x100035A7C, symSize: 0x28 }
  - { offsetInCU: 0x3E342, offset: 0x3E342, size: 0x8, addend: 0x0, symName: __ZNKSt3__16vectorIN4Pika8STLValueINS_12basic_stringIcNS_11char_traitsIcEENS_9allocatorIcEEEEEENS6_IS9_EEE14__annotate_newB8ue170006Em, symObjAddr: 0x31498, symBinAddr: 0x100035AA4, symSize: 0xC8 }
  - { offsetInCU: 0x3E381, offset: 0x3E381, size: 0x8, addend: 0x0, symName: __ZNSt3__116allocator_traitsINS_9allocatorIN4Pika8STLValueINS_12basic_stringIcNS_11char_traitsIcEENS1_IcEEEEEEEEE8max_sizeB8ue170006ISA_vEEmRKSA_, symObjAddr: 0x31560, symBinAddr: 0x100035B6C, symSize: 0x24 }
  - { offsetInCU: 0x3E3AF, offset: 0x3E3AF, size: 0x8, addend: 0x0, symName: __ZNKSt3__16vectorIN4Pika8STLValueINS_12basic_stringIcNS_11char_traitsIcEENS_9allocatorIcEEEEEENS6_IS9_EEE7__allocB8ue170006Ev, symObjAddr: 0x31584, symBinAddr: 0x100035B90, symSize: 0x28 }
  - { offsetInCU: 0x3E3D5, offset: 0x3E3D5, size: 0x8, addend: 0x0, symName: __ZNKSt3__19allocatorIN4Pika8STLValueINS_12basic_stringIcNS_11char_traitsIcEENS0_IcEEEEEEE8max_sizeB8ue170006Ev, symObjAddr: 0x315AC, symBinAddr: 0x100035BB8, symSize: 0x18 }
  - { offsetInCU: 0x3E3FB, offset: 0x3E3FB, size: 0x8, addend: 0x0, symName: __ZNKSt3__117__compressed_pairIPN4Pika8STLValueINS_12basic_stringIcNS_11char_traitsIcEENS_9allocatorIcEEEEEENS6_IS9_EEE6secondB8ue170006Ev, symObjAddr: 0x315C4, symBinAddr: 0x100035BD0, symSize: 0x24 }
  - { offsetInCU: 0x3E421, offset: 0x3E421, size: 0x8, addend: 0x0, symName: __ZNKSt3__122__compressed_pair_elemINS_9allocatorIN4Pika8STLValueINS_12basic_stringIcNS_11char_traitsIcEENS1_IcEEEEEEEELi1ELb1EE5__getB8ue170006Ev, symObjAddr: 0x315E8, symBinAddr: 0x100035BF4, symSize: 0x14 }
  - { offsetInCU: 0x3E447, offset: 0x3E447, size: 0x8, addend: 0x0, symName: __ZNSt3__19allocatorIN4Pika8STLValueINS_12basic_stringIcNS_11char_traitsIcEENS0_IcEEEEEEE8allocateB8ue170006Em, symObjAddr: 0x315FC, symBinAddr: 0x100035C08, symSize: 0x8C }
  - { offsetInCU: 0x3E47B, offset: 0x3E47B, size: 0x8, addend: 0x0, symName: __ZNSt3__117__compressed_pairIPN4Pika8STLValueINS_12basic_stringIcNS_11char_traitsIcEENS_9allocatorIcEEEEEENS6_IS9_EEE6secondB8ue170006Ev, symObjAddr: 0x31688, symBinAddr: 0x100035C94, symSize: 0x24 }
  - { offsetInCU: 0x3E4A1, offset: 0x3E4A1, size: 0x8, addend: 0x0, symName: __ZNSt3__122__compressed_pair_elemINS_9allocatorIN4Pika8STLValueINS_12basic_stringIcNS_11char_traitsIcEENS1_IcEEEEEEEELi1ELb1EE5__getB8ue170006Ev, symObjAddr: 0x316AC, symBinAddr: 0x100035CB8, symSize: 0x14 }
  - { offsetInCU: 0x3E4C7, offset: 0x3E4C7, size: 0x8, addend: 0x0, symName: __ZNSt3__117__compressed_pairIPN4Pika8STLValueINS_12basic_stringIcNS_11char_traitsIcEENS_9allocatorIcEEEEEENS6_IS9_EEE5firstB8ue170006Ev, symObjAddr: 0x316C0, symBinAddr: 0x100035CCC, symSize: 0x24 }
  - { offsetInCU: 0x3E4ED, offset: 0x3E4ED, size: 0x8, addend: 0x0, symName: __ZNSt3__122__compressed_pair_elemIPN4Pika8STLValueINS_12basic_stringIcNS_11char_traitsIcEENS_9allocatorIcEEEEEELi0ELb0EE5__getB8ue170006Ev, symObjAddr: 0x316E4, symBinAddr: 0x100035CF0, symSize: 0x14 }
  - { offsetInCU: 0x3E513, offset: 0x3E513, size: 0x8, addend: 0x0, symName: __ZNKSt3__16vectorIN4Pika8STLValueINS_12basic_stringIcNS_11char_traitsIcEENS_9allocatorIcEEEEEENS6_IS9_EEE31__annotate_contiguous_containerB8ue170006EPKvSD_SD_SD_, symObjAddr: 0x316F8, symBinAddr: 0x100035D04, symSize: 0x20 }
  - { offsetInCU: 0x3E569, offset: 0x3E569, size: 0x8, addend: 0x0, symName: __ZNKSt3__16vectorIN4Pika8STLValueINS_12basic_stringIcNS_11char_traitsIcEENS_9allocatorIcEEEEEENS6_IS9_EEE4dataB8ue170006Ev, symObjAddr: 0x31718, symBinAddr: 0x100035D24, symSize: 0x28 }
  - { offsetInCU: 0x3E58F, offset: 0x3E58F, size: 0x8, addend: 0x0, symName: __ZNKSt3__16vectorIN4Pika8STLValueINS_12basic_stringIcNS_11char_traitsIcEENS_9allocatorIcEEEEEENS6_IS9_EEE8capacityB8ue170006Ev, symObjAddr: 0x31740, symBinAddr: 0x100035D4C, symSize: 0x40 }
  - { offsetInCU: 0x3E5B5, offset: 0x3E5B5, size: 0x8, addend: 0x0, symName: __ZNKSt3__16vectorIN4Pika8STLValueINS_12basic_stringIcNS_11char_traitsIcEENS_9allocatorIcEEEEEENS6_IS9_EEE9__end_capB8ue170006Ev, symObjAddr: 0x31794, symBinAddr: 0x100035DA0, symSize: 0x28 }
  - { offsetInCU: 0x3E5DB, offset: 0x3E5DB, size: 0x8, addend: 0x0, symName: __ZNKSt3__117__compressed_pairIPN4Pika8STLValueINS_12basic_stringIcNS_11char_traitsIcEENS_9allocatorIcEEEEEENS6_IS9_EEE5firstB8ue170006Ev, symObjAddr: 0x317BC, symBinAddr: 0x100035DC8, symSize: 0x24 }
  - { offsetInCU: 0x3E601, offset: 0x3E601, size: 0x8, addend: 0x0, symName: __ZNKSt3__122__compressed_pair_elemIPN4Pika8STLValueINS_12basic_stringIcNS_11char_traitsIcEENS_9allocatorIcEEEEEELi0ELb0EE5__getB8ue170006Ev, symObjAddr: 0x317E0, symBinAddr: 0x100035DEC, symSize: 0x14 }
  - { offsetInCU: 0x3E640, offset: 0x3E640, size: 0x8, addend: 0x0, symName: __ZNSt3__16vectorIN4Pika8STLValueINS_12basic_stringIcNS_11char_traitsIcEENS_9allocatorIcEEEEEENS6_IS9_EEE21_ConstructTransactionC1B8ue170006ERSB_m, symObjAddr: 0x317F4, symBinAddr: 0x100035E00, symSize: 0x3C }
  - { offsetInCU: 0x3E688, offset: 0x3E688, size: 0x8, addend: 0x0, symName: __ZNSt3__116allocator_traitsINS_9allocatorIN4Pika8STLValueINS_12basic_stringIcNS_11char_traitsIcEENS1_IcEEEEEEEEE9constructB8ue170006IS9_JEvEEvRSA_PT_DpOT0_, symObjAddr: 0x31830, symBinAddr: 0x100035E3C, symSize: 0x2C }
  - { offsetInCU: 0x3E6CA, offset: 0x3E6CA, size: 0x8, addend: 0x0, symName: __ZNSt3__16vectorIN4Pika8STLValueINS_12basic_stringIcNS_11char_traitsIcEENS_9allocatorIcEEEEEENS6_IS9_EEE21_ConstructTransactionD1B8ue170006Ev, symObjAddr: 0x3185C, symBinAddr: 0x100035E68, symSize: 0x2C }
  - { offsetInCU: 0x3E6F4, offset: 0x3E6F4, size: 0x8, addend: 0x0, symName: __ZNSt3__16vectorIN4Pika8STLValueINS_12basic_stringIcNS_11char_traitsIcEENS_9allocatorIcEEEEEENS6_IS9_EEE21_ConstructTransactionC2B8ue170006ERSB_m, symObjAddr: 0x31888, symBinAddr: 0x100035E94, symSize: 0x4C }
  - { offsetInCU: 0x3E73C, offset: 0x3E73C, size: 0x8, addend: 0x0, symName: __ZNSt3__19allocatorIN4Pika8STLValueINS_12basic_stringIcNS_11char_traitsIcEENS0_IcEEEEEEE9constructB8ue170006IS8_JEEEvPT_DpOT0_, symObjAddr: 0x318D4, symBinAddr: 0x100035EE0, symSize: 0x28 }
  - { offsetInCU: 0x3E77E, offset: 0x3E77E, size: 0x8, addend: 0x0, symName: __ZNSt3__16vectorIN4Pika8STLValueINS_12basic_stringIcNS_11char_traitsIcEENS_9allocatorIcEEEEEENS6_IS9_EEE21_ConstructTransactionD2B8ue170006Ev, symObjAddr: 0x318FC, symBinAddr: 0x100035F08, symSize: 0x20 }
  - { offsetInCU: 0x3E7A8, offset: 0x3E7A8, size: 0x8, addend: 0x0, symName: __ZNSt3__128__exception_guard_exceptionsINS_6vectorIN4Pika8STLValueINS_12basic_stringIcNS_11char_traitsIcEENS_9allocatorIcEEEEEENS7_ISA_EEE16__destroy_vectorEED2B8ue170006Ev, symObjAddr: 0x3191C, symBinAddr: 0x100035F28, symSize: 0x48 }
  - { offsetInCU: 0x3E7D2, offset: 0x3E7D2, size: 0x8, addend: 0x0, symName: __ZNSt3__16vectorIN4Pika8STLValueINS_12basic_stringIcNS_11char_traitsIcEENS_9allocatorIcEEEEEENS6_IS9_EEE16__destroy_vectorclB8ue170006Ev, symObjAddr: 0x31964, symBinAddr: 0x100035F70, symSize: 0x90 }
  - { offsetInCU: 0x3E7F8, offset: 0x3E7F8, size: 0x8, addend: 0x0, symName: __ZNSt3__16vectorIN4Pika8STLValueINS_12basic_stringIcNS_11char_traitsIcEENS_9allocatorIcEEEEEENS6_IS9_EEE7__clearB8ue170006Ev, symObjAddr: 0x319F4, symBinAddr: 0x100036000, symSize: 0x28 }
  - { offsetInCU: 0x3E81E, offset: 0x3E81E, size: 0x8, addend: 0x0, symName: __ZNKSt3__16vectorIN4Pika8STLValueINS_12basic_stringIcNS_11char_traitsIcEENS_9allocatorIcEEEEEENS6_IS9_EEE17__annotate_deleteB8ue170006Ev, symObjAddr: 0x31A1C, symBinAddr: 0x100036028, symSize: 0xD4 }
  - { offsetInCU: 0x3E844, offset: 0x3E844, size: 0x8, addend: 0x0, symName: __ZNSt3__116allocator_traitsINS_9allocatorIN4Pika8STLValueINS_12basic_stringIcNS_11char_traitsIcEENS1_IcEEEEEEEEE10deallocateB8ue170006ERSA_PS9_m, symObjAddr: 0x31AF0, symBinAddr: 0x1000360FC, symSize: 0x34 }
  - { offsetInCU: 0x3E886, offset: 0x3E886, size: 0x8, addend: 0x0, symName: __ZNSt3__16vectorIN4Pika8STLValueINS_12basic_stringIcNS_11char_traitsIcEENS_9allocatorIcEEEEEENS6_IS9_EEE22__base_destruct_at_endB8ue170006EPS9_, symObjAddr: 0x31B24, symBinAddr: 0x100036130, symSize: 0xA0 }
  - { offsetInCU: 0x3E8CA, offset: 0x3E8CA, size: 0x8, addend: 0x0, symName: __ZNSt3__116allocator_traitsINS_9allocatorIN4Pika8STLValueINS_12basic_stringIcNS_11char_traitsIcEENS1_IcEEEEEEEEE7destroyB8ue170006IS9_vEEvRSA_PT_, symObjAddr: 0x31BC4, symBinAddr: 0x1000361D0, symSize: 0x2C }
  - { offsetInCU: 0x3E907, offset: 0x3E907, size: 0x8, addend: 0x0, symName: __ZNSt3__19allocatorIN4Pika8STLValueINS_12basic_stringIcNS_11char_traitsIcEENS0_IcEEEEEEE7destroyB8ue170006EPS8_, symObjAddr: 0x31BF0, symBinAddr: 0x1000361FC, symSize: 0x28 }
  - { offsetInCU: 0x3E93B, offset: 0x3E93B, size: 0x8, addend: 0x0, symName: __ZNSt3__19allocatorIN4Pika8STLValueINS_12basic_stringIcNS_11char_traitsIcEENS0_IcEEEEEEE10deallocateB8ue170006EPS8_m, symObjAddr: 0x31C18, symBinAddr: 0x100036224, symSize: 0x74 }
  - { offsetInCU: 0x3E97D, offset: 0x3E97D, size: 0x8, addend: 0x0, symName: __ZNSt3__16vectorIN4Pika8STLValueINS_12basic_stringIcNS_11char_traitsIcEENS_9allocatorIcEEEEEENS6_IS9_EEED2B8ue170006Ev, symObjAddr: 0x31C8C, symBinAddr: 0x100036298, symSize: 0x3C }
  - { offsetInCU: 0x3E9A7, offset: 0x3E9A7, size: 0x8, addend: 0x0, symName: __ZNSt3__19basic_iosIcNS_11char_traitsIcEEEC2B8ue170006Ev, symObjAddr: 0x31CC8, symBinAddr: 0x1000362D4, symSize: 0x44 }
  - { offsetInCU: 0x3E9D1, offset: 0x3E9D1, size: 0x8, addend: 0x0, symName: __ZNSt3__113basic_istreamIcNS_11char_traitsIcEEEC2B8ue170006EPNS_15basic_streambufIcS2_EE, symObjAddr: 0x31D0C, symBinAddr: 0x100036318, symSize: 0x64 }
  - { offsetInCU: 0x3EA16, offset: 0x3EA16, size: 0x8, addend: 0x0, symName: __ZNSt3__18ios_baseC2B8ue170006Ev, symObjAddr: 0x31D70, symBinAddr: 0x10003637C, symSize: 0x24 }
  - { offsetInCU: 0x3EA40, offset: 0x3EA40, size: 0x8, addend: 0x0, symName: __ZNSt3__19basic_iosIcNS_11char_traitsIcEEE4initB8ue170006EPNS_15basic_streambufIcS2_EE, symObjAddr: 0x31D94, symBinAddr: 0x1000363A0, symSize: 0x44 }
  - { offsetInCU: 0x3EA77, offset: 0x3EA77, size: 0x8, addend: 0x0, symName: __ZNSt3__112basic_stringIcNS_11char_traitsIcEENS_9allocatorIcEEE15__make_iteratorB8ue170006EPc, symObjAddr: 0x31DD8, symBinAddr: 0x1000363E4, symSize: 0x30 }
  - { offsetInCU: 0x3EAAC, offset: 0x3EAAC, size: 0x8, addend: 0x0, symName: __ZNSt3__111__wrap_iterIPcEC1B8ue170006ES1_, symObjAddr: 0x31E08, symBinAddr: 0x100036414, symSize: 0x34 }
  - { offsetInCU: 0x3EAE4, offset: 0x3EAE4, size: 0x8, addend: 0x0, symName: __ZNSt3__111__wrap_iterIPcEC2B8ue170006ES1_, symObjAddr: 0x31E3C, symBinAddr: 0x100036448, symSize: 0x20 }
  - { offsetInCU: 0x3EB1C, offset: 0x3EB1C, size: 0x8, addend: 0x0, symName: __ZNSt3__126pointer_to_binary_functionIcRKNS_6localeEcEC1B8ue170006EPFccS3_E, symObjAddr: 0x31E5C, symBinAddr: 0x100036468, symSize: 0x34 }
  - { offsetInCU: 0x3EB54, offset: 0x3EB54, size: 0x8, addend: 0x0, symName: __ZNSt3__126pointer_to_binary_functionIcRKNS_6localeEcEC2B8ue170006EPFccS3_E, symObjAddr: 0x31E90, symBinAddr: 0x10003649C, symSize: 0x20 }
  - { offsetInCU: 0x3EB8C, offset: 0x3EB8C, size: 0x8, addend: 0x0, symName: __ZNKSt3__15ctypeIcE7tolowerB8ue170006Ec, symObjAddr: 0x31EB0, symBinAddr: 0x1000364BC, symSize: 0x38 }
  - { offsetInCU: 0x3EBE4, offset: 0x3EBE4, size: 0x8, addend: 0x0, symName: __ZNSt3__19binder2ndINS_26pointer_to_binary_functionIcRKNS_6localeEcEEEC1B8ue170006ERKS5_S4_, symObjAddr: 0x31EE8, symBinAddr: 0x1000364F4, symSize: 0x3C }
  - { offsetInCU: 0x3EC2A, offset: 0x3EC2A, size: 0x8, addend: 0x0, symName: __ZNSt3__19binder2ndINS_26pointer_to_binary_functionIcRKNS_6localeEcEEEC2B8ue170006ERKS5_S4_, symObjAddr: 0x31F24, symBinAddr: 0x100036530, symSize: 0x30 }
  - { offsetInCU: 0x3EC70, offset: 0x3EC70, size: 0x8, addend: 0x0, symName: __ZNKSt3__19binder2ndINS_26pointer_to_binary_functionIcRKNS_6localeEcEEEclB8ue170006ERc, symObjAddr: 0x31F88, symBinAddr: 0x100036594, symSize: 0x38 }
  - { offsetInCU: 0x3ECA4, offset: 0x3ECA4, size: 0x8, addend: 0x0, symName: __ZNKSt3__111__wrap_iterIPcEdeB8ue170006Ev, symObjAddr: 0x31FC0, symBinAddr: 0x1000365CC, symSize: 0x18 }
  - { offsetInCU: 0x3ECCA, offset: 0x3ECCA, size: 0x8, addend: 0x0, symName: __ZNSt3__111__wrap_iterIPcEppB8ue170006Ev, symObjAddr: 0x31FD8, symBinAddr: 0x1000365E4, symSize: 0x20 }
  - { offsetInCU: 0x3ECF0, offset: 0x3ECF0, size: 0x8, addend: 0x0, symName: __ZNKSt3__111__wrap_iterIPcE4baseB8ue170006Ev, symObjAddr: 0x32040, symBinAddr: 0x10003664C, symSize: 0x18 }
  - { offsetInCU: 0x3ED16, offset: 0x3ED16, size: 0x8, addend: 0x0, symName: __ZNKSt3__126pointer_to_binary_functionIcRKNS_6localeEcEclB8ue170006EcS3_, symObjAddr: 0x32058, symBinAddr: 0x100036664, symSize: 0x3C }
  - { offsetInCU: 0x3ED58, offset: 0x3ED58, size: 0x8, addend: 0x0, symName: __ZNSt3__111__wrap_iterIPcEmmB8ue170006Ev, symObjAddr: 0x32230, symBinAddr: 0x10003683C, symSize: 0x20 }
  - { offsetInCU: 0x3ED7E, offset: 0x3ED7E, size: 0x8, addend: 0x0, symName: __ZNSt3__18_IterOpsINS_17_ClassicAlgPolicyEE9iter_swapB8ue170006IRNS_11__wrap_iterIPcEES7_EEvOT_OT0_, symObjAddr: 0x32250, symBinAddr: 0x10003685C, symSize: 0x44 }
  - { offsetInCU: 0x3EDC1, offset: 0x3EDC1, size: 0x8, addend: 0x0, symName: __ZNSt3__113basic_ostreamIcNS_11char_traitsIcEEEC2B8ue170006EPNS_15basic_streambufIcS2_EE, symObjAddr: 0x32320, symBinAddr: 0x10003692C, symSize: 0x60 }
  - { offsetInCU: 0x3EE06, offset: 0x3EE06, size: 0x8, addend: 0x0, symName: __ZNSt3__111__wrap_iterIPKcEC2B8ue170006Ev, symObjAddr: 0x32720, symBinAddr: 0x100036D2C, symSize: 0x18 }
  - { offsetInCU: 0x3EE30, offset: 0x3EE30, size: 0x8, addend: 0x0, symName: __ZNKSt3__15ctypeIcE7toupperB8ue170006Ec, symObjAddr: 0x32738, symBinAddr: 0x100036D44, symSize: 0x38 }
  - { offsetInCU: 0x3EE65, offset: 0x3EE65, size: 0x8, addend: 0x0, symName: __ZN4Pika8STLValueINSt3__112basic_stringIcNS1_11char_traitsIcEENS1_9allocatorIcEEEEEC2IA5_cEERKT_, symObjAddr: 0x32770, symBinAddr: 0x100036D7C, symSize: 0x34 }
  - { offsetInCU: 0x3EEA6, offset: 0x3EEA6, size: 0x8, addend: 0x0, symName: __ZN4Pika8STLValueINSt3__112basic_stringIcNS1_11char_traitsIcEENS1_9allocatorIcEEEEEC2IA83_cEERKT_, symObjAddr: 0x327A4, symBinAddr: 0x100036DB0, symSize: 0x34 }
  - { offsetInCU: 0x3EF0A, offset: 0x3EF0A, size: 0x8, addend: 0x0, symName: __ZN4Pika6ScriptINS_9StdConfigEE15newUnaryFunctorINSt3__125pointer_to_unary_functionIddEEEEPNS2_12UnaryFunctorIT_NS8_13argument_typeENS8_11result_typeEEERKS8_, symObjAddr: 0x327D8, symBinAddr: 0x100036DE4, symSize: 0x5C }
  - { offsetInCU: 0x3EF37, offset: 0x3EF37, size: 0x8, addend: 0x0, symName: __ZN4Pika6ScriptINS_9StdConfigEE12UnaryFunctorINSt3__125pointer_to_unary_functionIddEEddEC1ERKS6_, symObjAddr: 0x32860, symBinAddr: 0x100036E6C, symSize: 0x34 }
  - { offsetInCU: 0x3EF70, offset: 0x3EF70, size: 0x8, addend: 0x0, symName: __ZN4Pika6ScriptINS_9StdConfigEE12UnaryFunctorINSt3__125pointer_to_unary_functionIddEEddEC2ERKS6_, symObjAddr: 0x32894, symBinAddr: 0x100036EA0, symSize: 0x54 }
  - { offsetInCU: 0x3EFA9, offset: 0x3EFA9, size: 0x8, addend: 0x0, symName: __ZN4Pika6ScriptINS_9StdConfigEE6NativeC2Ev, symObjAddr: 0x328E8, symBinAddr: 0x100036EF4, symSize: 0x24 }
  - { offsetInCU: 0x3EFD6, offset: 0x3EFD6, size: 0x8, addend: 0x0, symName: __ZN4Pika6ScriptINS_9StdConfigEE12UnaryFunctorINSt3__125pointer_to_unary_functionIddEEddE8pikaCallERNS2_5FrameE, symObjAddr: 0x3290C, symBinAddr: 0x100036F18, symSize: 0x8C }
  - { offsetInCU: 0x3F00B, offset: 0x3F00B, size: 0x8, addend: 0x0, symName: __ZN4Pika6ScriptINS_9StdConfigEE12UnaryFunctorINSt3__125pointer_to_unary_functionIddEEddED1Ev, symObjAddr: 0x32998, symBinAddr: 0x100036FA4, symSize: 0x2C }
  - { offsetInCU: 0x3F038, offset: 0x3F038, size: 0x8, addend: 0x0, symName: __ZN4Pika6ScriptINS_9StdConfigEE12UnaryFunctorINSt3__125pointer_to_unary_functionIddEEddED0Ev, symObjAddr: 0x329C4, symBinAddr: 0x100036FD0, symSize: 0x58 }
  - { offsetInCU: 0x3F06F, offset: 0x3F06F, size: 0x8, addend: 0x0, symName: __ZN4Pika6ScriptINS_9StdConfigEE12UnaryFunctorINSt3__125pointer_to_unary_functionIddEEddE4callIKNS_8STLValueINS4_12basic_stringIcNS4_11char_traitsIcEENS4_9allocatorIcEEEEEEdEESG_RT_RKNS_4DumbIT0_EE, symObjAddr: 0x32A1C, symBinAddr: 0x100037028, symSize: 0x50 }
  - { offsetInCU: 0x3F0C2, offset: 0x3F0C2, size: 0x8, addend: 0x0, symName: __ZN4Pika6ScriptINS_9StdConfigEE12UnaryFunctorINSt3__125pointer_to_unary_functionIddEEddE3argINS_4DumbIdEEEEKNS_8STLValueINS4_12basic_stringIcNS4_11char_traitsIcEENS4_9allocatorIcEEEEEERNS2_5FrameERKT_, symObjAddr: 0x32A6C, symBinAddr: 0x100037078, symSize: 0x94 }
  - { offsetInCU: 0x3F10C, offset: 0x3F10C, size: 0x8, addend: 0x0, symName: __ZNKSt3__125pointer_to_unary_functionIddEclB8ue170006Ed, symObjAddr: 0x32B00, symBinAddr: 0x10003710C, symSize: 0x30 }
  - { offsetInCU: 0x3F140, offset: 0x3F140, size: 0x8, addend: 0x0, symName: __ZN4Pika6ScriptINS_9StdConfigEE12UnaryFunctorINSt3__125pointer_to_unary_functionIddEEddED2Ev, symObjAddr: 0x32B30, symBinAddr: 0x10003713C, symSize: 0x2C }
  - { offsetInCU: 0x3F16D, offset: 0x3F16D, size: 0x8, addend: 0x0, symName: __ZNSt3__125pointer_to_unary_functionIddEC1B8ue170006EPFddE, symObjAddr: 0x32B5C, symBinAddr: 0x100037168, symSize: 0x34 }
  - { offsetInCU: 0x3F1A5, offset: 0x3F1A5, size: 0x8, addend: 0x0, symName: __ZNSt3__125pointer_to_unary_functionIddEC2B8ue170006EPFddE, symObjAddr: 0x32B90, symBinAddr: 0x10003719C, symSize: 0x20 }
  - { offsetInCU: 0x3F1F6, offset: 0x3F1F6, size: 0x8, addend: 0x0, symName: __ZN4Pika6ScriptINS_9StdConfigEE16newBinaryFunctorINSt3__126pointer_to_binary_functionIdddEEEEPNS2_13BinaryFunctorIT_NS8_19first_argument_typeENS8_20second_argument_typeENS8_11result_typeEEERKS8_, symObjAddr: 0x32BB0, symBinAddr: 0x1000371BC, symSize: 0x5C }
  - { offsetInCU: 0x3F223, offset: 0x3F223, size: 0x8, addend: 0x0, symName: __ZN4Pika6ScriptINS_9StdConfigEE13BinaryFunctorINSt3__126pointer_to_binary_functionIdddEEdddEC1ERKS6_, symObjAddr: 0x32C38, symBinAddr: 0x100037244, symSize: 0x34 }
  - { offsetInCU: 0x3F25C, offset: 0x3F25C, size: 0x8, addend: 0x0, symName: __ZN4Pika6ScriptINS_9StdConfigEE13BinaryFunctorINSt3__126pointer_to_binary_functionIdddEEdddEC2ERKS6_, symObjAddr: 0x32C6C, symBinAddr: 0x100037278, symSize: 0x54 }
  - { offsetInCU: 0x3F295, offset: 0x3F295, size: 0x8, addend: 0x0, symName: __ZN4Pika6ScriptINS_9StdConfigEE13BinaryFunctorINSt3__126pointer_to_binary_functionIdddEEdddE8pikaCallERNS2_5FrameE, symObjAddr: 0x32CC0, symBinAddr: 0x1000372CC, symSize: 0x170 }
  - { offsetInCU: 0x3F2CA, offset: 0x3F2CA, size: 0x8, addend: 0x0, symName: __ZN4Pika6ScriptINS_9StdConfigEE13BinaryFunctorINSt3__126pointer_to_binary_functionIdddEEdddED1Ev, symObjAddr: 0x32E30, symBinAddr: 0x10003743C, symSize: 0x2C }
  - { offsetInCU: 0x3F2F7, offset: 0x3F2F7, size: 0x8, addend: 0x0, symName: __ZN4Pika6ScriptINS_9StdConfigEE13BinaryFunctorINSt3__126pointer_to_binary_functionIdddEEdddED0Ev, symObjAddr: 0x32E5C, symBinAddr: 0x100037468, symSize: 0x58 }
  - { offsetInCU: 0x3F324, offset: 0x3F324, size: 0x8, addend: 0x0, symName: __ZN4Pika6ScriptINS_9StdConfigEE13BinaryFunctorINSt3__126pointer_to_binary_functionIdddEEdddE4callINS_4DumbIdEEEENS_8STLValueINS4_12basic_stringIcNS4_11char_traitsIcEENS4_9allocatorIcEEEEEERKSI_SK_RKT_, symObjAddr: 0x32EB4, symBinAddr: 0x1000374C0, symSize: 0x68 }
  - { offsetInCU: 0x3F37D, offset: 0x3F37D, size: 0x8, addend: 0x0, symName: __ZNKSt3__126pointer_to_binary_functionIdddEclB8ue170006Edd, symObjAddr: 0x32F1C, symBinAddr: 0x100037528, symSize: 0x38 }
  - { offsetInCU: 0x3F3BF, offset: 0x3F3BF, size: 0x8, addend: 0x0, symName: __ZN4Pika6ScriptINS_9StdConfigEE13BinaryFunctorINSt3__126pointer_to_binary_functionIdddEEdddED2Ev, symObjAddr: 0x32F54, symBinAddr: 0x100037560, symSize: 0x2C }
  - { offsetInCU: 0x3F3EC, offset: 0x3F3EC, size: 0x8, addend: 0x0, symName: __ZNSt3__126pointer_to_binary_functionIdddEC1B8ue170006EPFdddE, symObjAddr: 0x32F80, symBinAddr: 0x10003758C, symSize: 0x34 }
  - { offsetInCU: 0x3F424, offset: 0x3F424, size: 0x8, addend: 0x0, symName: __ZNSt3__126pointer_to_binary_functionIdddEC2B8ue170006EPFdddE, symObjAddr: 0x32FB4, symBinAddr: 0x1000375C0, symSize: 0x20 }
  - { offsetInCU: 0x3F46B, offset: 0x3F46B, size: 0x8, addend: 0x0, symName: __ZN4Pika6ScriptINS_9StdConfigEE15newUnaryFunctorINSt3__125pointer_to_unary_functionIdNS4_12basic_stringIcNS4_11char_traitsIcEENS4_9allocatorIcEEEEEEEEPNS2_12UnaryFunctorIT_NSE_13argument_typeENSE_11result_typeEEERKSE_, symObjAddr: 0x32FD4, symBinAddr: 0x1000375E0, symSize: 0x5C }
  - { offsetInCU: 0x3F498, offset: 0x3F498, size: 0x8, addend: 0x0, symName: __ZN4Pika6ScriptINS_9StdConfigEE12UnaryFunctorINSt3__125pointer_to_unary_functionIdNS4_12basic_stringIcNS4_11char_traitsIcEENS4_9allocatorIcEEEEEEdSB_EC1ERKSC_, symObjAddr: 0x3305C, symBinAddr: 0x100037668, symSize: 0x34 }
  - { offsetInCU: 0x3F4D1, offset: 0x3F4D1, size: 0x8, addend: 0x0, symName: __ZN4Pika6ScriptINS_9StdConfigEE12UnaryFunctorINSt3__125pointer_to_unary_functionIdNS4_12basic_stringIcNS4_11char_traitsIcEENS4_9allocatorIcEEEEEEdSB_EC2ERKSC_, symObjAddr: 0x33090, symBinAddr: 0x10003769C, symSize: 0x54 }
  - { offsetInCU: 0x3F50A, offset: 0x3F50A, size: 0x8, addend: 0x0, symName: __ZN4Pika6ScriptINS_9StdConfigEE12UnaryFunctorINSt3__125pointer_to_unary_functionIdNS4_12basic_stringIcNS4_11char_traitsIcEENS4_9allocatorIcEEEEEEdSB_E8pikaCallERNS2_5FrameE, symObjAddr: 0x330E4, symBinAddr: 0x1000376F0, symSize: 0x8C }
  - { offsetInCU: 0x3F53F, offset: 0x3F53F, size: 0x8, addend: 0x0, symName: __ZN4Pika6ScriptINS_9StdConfigEE12UnaryFunctorINSt3__125pointer_to_unary_functionIdNS4_12basic_stringIcNS4_11char_traitsIcEENS4_9allocatorIcEEEEEEdSB_ED1Ev, symObjAddr: 0x33170, symBinAddr: 0x10003777C, symSize: 0x2C }
  - { offsetInCU: 0x3F56C, offset: 0x3F56C, size: 0x8, addend: 0x0, symName: __ZN4Pika6ScriptINS_9StdConfigEE12UnaryFunctorINSt3__125pointer_to_unary_functionIdNS4_12basic_stringIcNS4_11char_traitsIcEENS4_9allocatorIcEEEEEEdSB_ED0Ev, symObjAddr: 0x3319C, symBinAddr: 0x1000377A8, symSize: 0x58 }
  - { offsetInCU: 0x3F5A3, offset: 0x3F5A3, size: 0x8, addend: 0x0, symName: __ZN4Pika6ScriptINS_9StdConfigEE12UnaryFunctorINSt3__125pointer_to_unary_functionIdNS4_12basic_stringIcNS4_11char_traitsIcEENS4_9allocatorIcEEEEEEdSB_E4callIKNS_8STLValueISB_EESB_EESG_RT_RKNS_4DumbIT0_EE, symObjAddr: 0x331F4, symBinAddr: 0x100037800, symSize: 0x90 }
  - { offsetInCU: 0x3F5F6, offset: 0x3F5F6, size: 0x8, addend: 0x0, symName: __ZN4Pika6ScriptINS_9StdConfigEE12UnaryFunctorINSt3__125pointer_to_unary_functionIdNS4_12basic_stringIcNS4_11char_traitsIcEENS4_9allocatorIcEEEEEEdSB_E3argINS_4DumbIdEEEEKNS_8STLValueISB_EERNS2_5FrameERKT_, symObjAddr: 0x33284, symBinAddr: 0x100037890, symSize: 0x94 }
  - { offsetInCU: 0x3F640, offset: 0x3F640, size: 0x8, addend: 0x0, symName: __ZNKSt3__125pointer_to_unary_functionIdNS_12basic_stringIcNS_11char_traitsIcEENS_9allocatorIcEEEEEclB8ue170006Ed, symObjAddr: 0x33318, symBinAddr: 0x100037924, symSize: 0x38 }
  - { offsetInCU: 0x3F674, offset: 0x3F674, size: 0x8, addend: 0x0, symName: __ZN4Pika6ScriptINS_9StdConfigEE12UnaryFunctorINSt3__125pointer_to_unary_functionIdNS4_12basic_stringIcNS4_11char_traitsIcEENS4_9allocatorIcEEEEEEdSB_ED2Ev, symObjAddr: 0x33350, symBinAddr: 0x10003795C, symSize: 0x2C }
  - { offsetInCU: 0x3F6A1, offset: 0x3F6A1, size: 0x8, addend: 0x0, symName: __ZNSt3__125pointer_to_unary_functionIdNS_12basic_stringIcNS_11char_traitsIcEENS_9allocatorIcEEEEEC1B8ue170006EPFS6_dE, symObjAddr: 0x3337C, symBinAddr: 0x100037988, symSize: 0x34 }
  - { offsetInCU: 0x3F6D9, offset: 0x3F6D9, size: 0x8, addend: 0x0, symName: __ZNSt3__125pointer_to_unary_functionIdNS_12basic_stringIcNS_11char_traitsIcEENS_9allocatorIcEEEEEC2B8ue170006EPFS6_dE, symObjAddr: 0x333B0, symBinAddr: 0x1000379BC, symSize: 0x20 }
  - { offsetInCU: 0x3F720, offset: 0x3F720, size: 0x8, addend: 0x0, symName: __ZN4Pika6ScriptINS_9StdConfigEE15newUnaryFunctorINSt3__125pointer_to_unary_functionIRKNS2_5FrameEbEEEEPNS2_12UnaryFunctorIT_NSB_13argument_typeENSB_11result_typeEEERKSB_, symObjAddr: 0x333D0, symBinAddr: 0x1000379DC, symSize: 0x5C }
  - { offsetInCU: 0x3F74D, offset: 0x3F74D, size: 0x8, addend: 0x0, symName: __ZN4Pika6ScriptINS_9StdConfigEE12UnaryFunctorINSt3__125pointer_to_unary_functionIRKNS2_5FrameEbEES8_bEC1ERKS9_, symObjAddr: 0x33458, symBinAddr: 0x100037A64, symSize: 0x34 }
  - { offsetInCU: 0x3F786, offset: 0x3F786, size: 0x8, addend: 0x0, symName: __ZN4Pika6ScriptINS_9StdConfigEE12UnaryFunctorINSt3__125pointer_to_unary_functionIRKNS2_5FrameEbEES8_bEC2ERKS9_, symObjAddr: 0x3348C, symBinAddr: 0x100037A98, symSize: 0x54 }
  - { offsetInCU: 0x3F7BF, offset: 0x3F7BF, size: 0x8, addend: 0x0, symName: __ZN4Pika6ScriptINS_9StdConfigEE12UnaryFunctorINSt3__125pointer_to_unary_functionIRKNS2_5FrameEbEES8_bE8pikaCallERS6_, symObjAddr: 0x334E0, symBinAddr: 0x100037AEC, symSize: 0x50 }
  - { offsetInCU: 0x3F7F4, offset: 0x3F7F4, size: 0x8, addend: 0x0, symName: __ZN4Pika6ScriptINS_9StdConfigEE12UnaryFunctorINSt3__125pointer_to_unary_functionIRKNS2_5FrameEbEES8_bED1Ev, symObjAddr: 0x33530, symBinAddr: 0x100037B3C, symSize: 0x2C }
  - { offsetInCU: 0x3F821, offset: 0x3F821, size: 0x8, addend: 0x0, symName: __ZN4Pika6ScriptINS_9StdConfigEE12UnaryFunctorINSt3__125pointer_to_unary_functionIRKNS2_5FrameEbEES8_bED0Ev, symObjAddr: 0x3355C, symBinAddr: 0x100037B68, symSize: 0x58 }
  - { offsetInCU: 0x3F858, offset: 0x3F858, size: 0x8, addend: 0x0, symName: __ZN4Pika6ScriptINS_9StdConfigEE12UnaryFunctorINSt3__125pointer_to_unary_functionIRKNS2_5FrameEbEES8_bE4callIS7_bEENS_8STLValueINS4_12basic_stringIcNS4_11char_traitsIcEENS4_9allocatorIcEEEEEERT_RKNS_4DumbIT0_EE, symObjAddr: 0x335B4, symBinAddr: 0x100037BC0, symSize: 0x4C }
  - { offsetInCU: 0x3F8AB, offset: 0x3F8AB, size: 0x8, addend: 0x0, symName: __ZN4Pika6ScriptINS_9StdConfigEE12UnaryFunctorINSt3__125pointer_to_unary_functionIRKNS2_5FrameEbEES8_bE3argERS6_RKNS_4DumbIS8_EE, symObjAddr: 0x33600, symBinAddr: 0x100037C0C, symSize: 0x1C }
  - { offsetInCU: 0x3F8EC, offset: 0x3F8EC, size: 0x8, addend: 0x0, symName: __ZNKSt3__125pointer_to_unary_functionIRKN4Pika6ScriptINS1_9StdConfigEE5FrameEbEclB8ue170006ES7_, symObjAddr: 0x3361C, symBinAddr: 0x100037C28, symSize: 0x34 }
  - { offsetInCU: 0x3F920, offset: 0x3F920, size: 0x8, addend: 0x0, symName: __ZN4Pika6ScriptINS_9StdConfigEE12UnaryFunctorINSt3__125pointer_to_unary_functionIRKNS2_5FrameEbEES8_bED2Ev, symObjAddr: 0x33650, symBinAddr: 0x100037C5C, symSize: 0x2C }
  - { offsetInCU: 0x3F94D, offset: 0x3F94D, size: 0x8, addend: 0x0, symName: __ZNSt3__125pointer_to_unary_functionIRKN4Pika6ScriptINS1_9StdConfigEE5FrameEbEC1B8ue170006EPFbS7_E, symObjAddr: 0x3367C, symBinAddr: 0x100037C88, symSize: 0x34 }
  - { offsetInCU: 0x3F985, offset: 0x3F985, size: 0x8, addend: 0x0, symName: __ZNSt3__125pointer_to_unary_functionIRKN4Pika6ScriptINS1_9StdConfigEE5FrameEbEC2B8ue170006EPFbS7_E, symObjAddr: 0x336B0, symBinAddr: 0x100037CBC, symSize: 0x20 }
  - { offsetInCU: 0x3F9CC, offset: 0x3F9CC, size: 0x8, addend: 0x0, symName: __ZN4Pika6ScriptINS_9StdConfigEE15newUnaryFunctorINSt3__125pointer_to_unary_functionIRKNS4_12basic_stringIcNS4_11char_traitsIcEENS4_9allocatorIcEEEESB_EEEEPNS2_12UnaryFunctorIT_NSG_13argument_typeENSG_11result_typeEEERKSG_, symObjAddr: 0x336D0, symBinAddr: 0x100037CDC, symSize: 0x5C }
  - { offsetInCU: 0x3F9F9, offset: 0x3F9F9, size: 0x8, addend: 0x0, symName: __ZN4Pika6ScriptINS_9StdConfigEE12UnaryFunctorINSt3__125pointer_to_unary_functionIRKNS4_12basic_stringIcNS4_11char_traitsIcEENS4_9allocatorIcEEEESB_EESD_SB_EC1ERKSE_, symObjAddr: 0x33758, symBinAddr: 0x100037D64, symSize: 0x34 }
  - { offsetInCU: 0x3FA32, offset: 0x3FA32, size: 0x8, addend: 0x0, symName: __ZN4Pika6ScriptINS_9StdConfigEE12UnaryFunctorINSt3__125pointer_to_unary_functionIRKNS4_12basic_stringIcNS4_11char_traitsIcEENS4_9allocatorIcEEEESB_EESD_SB_EC2ERKSE_, symObjAddr: 0x3378C, symBinAddr: 0x100037D98, symSize: 0x54 }
  - { offsetInCU: 0x3FA6B, offset: 0x3FA6B, size: 0x8, addend: 0x0, symName: __ZN4Pika6ScriptINS_9StdConfigEE12UnaryFunctorINSt3__125pointer_to_unary_functionIRKNS4_12basic_stringIcNS4_11char_traitsIcEENS4_9allocatorIcEEEESB_EESD_SB_E8pikaCallERNS2_5FrameE, symObjAddr: 0x337E0, symBinAddr: 0x100037DEC, symSize: 0x8C }
  - { offsetInCU: 0x3FAA0, offset: 0x3FAA0, size: 0x8, addend: 0x0, symName: __ZN4Pika6ScriptINS_9StdConfigEE12UnaryFunctorINSt3__125pointer_to_unary_functionIRKNS4_12basic_stringIcNS4_11char_traitsIcEENS4_9allocatorIcEEEESB_EESD_SB_ED1Ev, symObjAddr: 0x3386C, symBinAddr: 0x100037E78, symSize: 0x2C }
  - { offsetInCU: 0x3FACD, offset: 0x3FACD, size: 0x8, addend: 0x0, symName: __ZN4Pika6ScriptINS_9StdConfigEE12UnaryFunctorINSt3__125pointer_to_unary_functionIRKNS4_12basic_stringIcNS4_11char_traitsIcEENS4_9allocatorIcEEEESB_EESD_SB_ED0Ev, symObjAddr: 0x33898, symBinAddr: 0x100037EA4, symSize: 0x58 }
  - { offsetInCU: 0x3FAFA, offset: 0x3FAFA, size: 0x8, addend: 0x0, symName: __ZN4Pika6ScriptINS_9StdConfigEE12UnaryFunctorINSt3__125pointer_to_unary_functionIRKNS4_12basic_stringIcNS4_11char_traitsIcEENS4_9allocatorIcEEEESB_EESD_SB_E4callIKNS_8STLValueISB_EESB_EESI_RT_RKNS_4DumbIT0_EE, symObjAddr: 0x338F0, symBinAddr: 0x100037EFC, symSize: 0x84 }
  - { offsetInCU: 0x3FB57, offset: 0x3FB57, size: 0x8, addend: 0x0, symName: __ZN4Pika6ScriptINS_9StdConfigEE12UnaryFunctorINSt3__125pointer_to_unary_functionIRKNS4_12basic_stringIcNS4_11char_traitsIcEENS4_9allocatorIcEEEESB_EESD_SB_E3argINS_4DumbISD_EEEEKNS_8STLValueISB_EERNS2_5FrameERKT_, symObjAddr: 0x33974, symBinAddr: 0x100037F80, symSize: 0x94 }
  - { offsetInCU: 0x3FBA1, offset: 0x3FBA1, size: 0x8, addend: 0x0, symName: __ZNKSt3__125pointer_to_unary_functionIRKNS_12basic_stringIcNS_11char_traitsIcEENS_9allocatorIcEEEES6_EclB8ue170006ES8_, symObjAddr: 0x33A08, symBinAddr: 0x100038014, symSize: 0x38 }
  - { offsetInCU: 0x3FBD5, offset: 0x3FBD5, size: 0x8, addend: 0x0, symName: __ZN4Pika6ScriptINS_9StdConfigEE12UnaryFunctorINSt3__125pointer_to_unary_functionIRKNS4_12basic_stringIcNS4_11char_traitsIcEENS4_9allocatorIcEEEESB_EESD_SB_ED2Ev, symObjAddr: 0x33A40, symBinAddr: 0x10003804C, symSize: 0x2C }
  - { offsetInCU: 0x3FC02, offset: 0x3FC02, size: 0x8, addend: 0x0, symName: __ZNSt3__125pointer_to_unary_functionIRKNS_12basic_stringIcNS_11char_traitsIcEENS_9allocatorIcEEEES6_EC1B8ue170006EPFS6_S8_E, symObjAddr: 0x33A6C, symBinAddr: 0x100038078, symSize: 0x34 }
  - { offsetInCU: 0x3FC3A, offset: 0x3FC3A, size: 0x8, addend: 0x0, symName: __ZNSt3__125pointer_to_unary_functionIRKNS_12basic_stringIcNS_11char_traitsIcEENS_9allocatorIcEEEES6_EC2B8ue170006EPFS6_S8_E, symObjAddr: 0x33AA0, symBinAddr: 0x1000380AC, symSize: 0x20 }
  - { offsetInCU: 0x3FC81, offset: 0x3FC81, size: 0x8, addend: 0x0, symName: __ZN4Pika6ScriptINS_9StdConfigEE15newUnaryFunctorINSt3__125pointer_to_unary_functionIRNS2_5FrameENS_8STLValueINS4_12basic_stringIcNS4_11char_traitsIcEENS4_9allocatorIcEEEEEEEEEEPNS2_12UnaryFunctorIT_NSI_13argument_typeENSI_11result_typeEEERKSI_, symObjAddr: 0x33AC0, symBinAddr: 0x1000380CC, symSize: 0x5C }
  - { offsetInCU: 0x3FCAE, offset: 0x3FCAE, size: 0x8, addend: 0x0, symName: __ZN4Pika6ScriptINS_9StdConfigEE12UnaryFunctorINSt3__125pointer_to_unary_functionIRNS2_5FrameENS_8STLValueINS4_12basic_stringIcNS4_11char_traitsIcEENS4_9allocatorIcEEEEEEEES7_SF_EC1ERKSG_, symObjAddr: 0x33B48, symBinAddr: 0x100038154, symSize: 0x34 }
  - { offsetInCU: 0x3FCE7, offset: 0x3FCE7, size: 0x8, addend: 0x0, symName: __ZN4Pika6ScriptINS_9StdConfigEE12UnaryFunctorINSt3__125pointer_to_unary_functionIRNS2_5FrameENS_8STLValueINS4_12basic_stringIcNS4_11char_traitsIcEENS4_9allocatorIcEEEEEEEES7_SF_EC2ERKSG_, symObjAddr: 0x33B7C, symBinAddr: 0x100038188, symSize: 0x54 }
  - { offsetInCU: 0x3FD20, offset: 0x3FD20, size: 0x8, addend: 0x0, symName: __ZN4Pika6ScriptINS_9StdConfigEE12UnaryFunctorINSt3__125pointer_to_unary_functionIRNS2_5FrameENS_8STLValueINS4_12basic_stringIcNS4_11char_traitsIcEENS4_9allocatorIcEEEEEEEES7_SF_E8pikaCallES7_, symObjAddr: 0x33BD0, symBinAddr: 0x1000381DC, symSize: 0x50 }
  - { offsetInCU: 0x3FD55, offset: 0x3FD55, size: 0x8, addend: 0x0, symName: __ZN4Pika6ScriptINS_9StdConfigEE12UnaryFunctorINSt3__125pointer_to_unary_functionIRNS2_5FrameENS_8STLValueINS4_12basic_stringIcNS4_11char_traitsIcEENS4_9allocatorIcEEEEEEEES7_SF_ED1Ev, symObjAddr: 0x33C20, symBinAddr: 0x10003822C, symSize: 0x2C }
  - { offsetInCU: 0x3FD82, offset: 0x3FD82, size: 0x8, addend: 0x0, symName: __ZN4Pika6ScriptINS_9StdConfigEE12UnaryFunctorINSt3__125pointer_to_unary_functionIRNS2_5FrameENS_8STLValueINS4_12basic_stringIcNS4_11char_traitsIcEENS4_9allocatorIcEEEEEEEES7_SF_ED0Ev, symObjAddr: 0x33C4C, symBinAddr: 0x100038258, symSize: 0x58 }
  - { offsetInCU: 0x3FDB9, offset: 0x3FDB9, size: 0x8, addend: 0x0, symName: __ZN4Pika6ScriptINS_9StdConfigEE12UnaryFunctorINSt3__125pointer_to_unary_functionIRNS2_5FrameENS_8STLValueINS4_12basic_stringIcNS4_11char_traitsIcEENS4_9allocatorIcEEEEEEEES7_SF_E4callIS6_SF_EESF_RT_RKNS_4DumbIT0_EE, symObjAddr: 0x33CA4, symBinAddr: 0x1000382B0, symSize: 0x3C }
  - { offsetInCU: 0x3FE0C, offset: 0x3FE0C, size: 0x8, addend: 0x0, symName: __ZN4Pika6ScriptINS_9StdConfigEE12UnaryFunctorINSt3__125pointer_to_unary_functionIRNS2_5FrameENS_8STLValueINS4_12basic_stringIcNS4_11char_traitsIcEENS4_9allocatorIcEEEEEEEES7_SF_E3argES7_RKNS_4DumbIS7_EE, symObjAddr: 0x33CE0, symBinAddr: 0x1000382EC, symSize: 0x1C }
  - { offsetInCU: 0x3FE4D, offset: 0x3FE4D, size: 0x8, addend: 0x0, symName: __ZNKSt3__125pointer_to_unary_functionIRN4Pika6ScriptINS1_9StdConfigEE5FrameENS1_8STLValueINS_12basic_stringIcNS_11char_traitsIcEENS_9allocatorIcEEEEEEEclB8ue170006ES6_, symObjAddr: 0x33CFC, symBinAddr: 0x100038308, symSize: 0x38 }
  - { offsetInCU: 0x3FE81, offset: 0x3FE81, size: 0x8, addend: 0x0, symName: __ZN4Pika6ScriptINS_9StdConfigEE12UnaryFunctorINSt3__125pointer_to_unary_functionIRNS2_5FrameENS_8STLValueINS4_12basic_stringIcNS4_11char_traitsIcEENS4_9allocatorIcEEEEEEEES7_SF_ED2Ev, symObjAddr: 0x33D34, symBinAddr: 0x100038340, symSize: 0x2C }
  - { offsetInCU: 0x3FEAE, offset: 0x3FEAE, size: 0x8, addend: 0x0, symName: __ZNSt3__125pointer_to_unary_functionIRN4Pika6ScriptINS1_9StdConfigEE5FrameENS1_8STLValueINS_12basic_stringIcNS_11char_traitsIcEENS_9allocatorIcEEEEEEEC1B8ue170006EPFSE_S6_E, symObjAddr: 0x33D60, symBinAddr: 0x10003836C, symSize: 0x34 }
  - { offsetInCU: 0x3FEE6, offset: 0x3FEE6, size: 0x8, addend: 0x0, symName: __ZNSt3__125pointer_to_unary_functionIRN4Pika6ScriptINS1_9StdConfigEE5FrameENS1_8STLValueINS_12basic_stringIcNS_11char_traitsIcEENS_9allocatorIcEEEEEEEC2B8ue170006EPFSE_S6_E, symObjAddr: 0x33D94, symBinAddr: 0x1000383A0, symSize: 0x20 }
  - { offsetInCU: 0x3FF2D, offset: 0x3FF2D, size: 0x8, addend: 0x0, symName: __ZN4Pika6ScriptINS_9StdConfigEE15newUnaryFunctorINSt3__125pointer_to_unary_functionIRKNS2_5FrameENS_8STLValueINS4_12basic_stringIcNS4_11char_traitsIcEENS4_9allocatorIcEEEEEEEEEEPNS2_12UnaryFunctorIT_NSJ_13argument_typeENSJ_11result_typeEEERKSJ_, symObjAddr: 0x33DB4, symBinAddr: 0x1000383C0, symSize: 0x5C }
  - { offsetInCU: 0x3FF5A, offset: 0x3FF5A, size: 0x8, addend: 0x0, symName: __ZN4Pika6ScriptINS_9StdConfigEE12UnaryFunctorINSt3__125pointer_to_unary_functionIRKNS2_5FrameENS_8STLValueINS4_12basic_stringIcNS4_11char_traitsIcEENS4_9allocatorIcEEEEEEEES8_SG_EC1ERKSH_, symObjAddr: 0x33E3C, symBinAddr: 0x100038448, symSize: 0x34 }
  - { offsetInCU: 0x3FF93, offset: 0x3FF93, size: 0x8, addend: 0x0, symName: __ZN4Pika6ScriptINS_9StdConfigEE12UnaryFunctorINSt3__125pointer_to_unary_functionIRKNS2_5FrameENS_8STLValueINS4_12basic_stringIcNS4_11char_traitsIcEENS4_9allocatorIcEEEEEEEES8_SG_EC2ERKSH_, symObjAddr: 0x33E70, symBinAddr: 0x10003847C, symSize: 0x54 }
  - { offsetInCU: 0x3FFCC, offset: 0x3FFCC, size: 0x8, addend: 0x0, symName: __ZN4Pika6ScriptINS_9StdConfigEE12UnaryFunctorINSt3__125pointer_to_unary_functionIRKNS2_5FrameENS_8STLValueINS4_12basic_stringIcNS4_11char_traitsIcEENS4_9allocatorIcEEEEEEEES8_SG_E8pikaCallERS6_, symObjAddr: 0x33EC4, symBinAddr: 0x1000384D0, symSize: 0x50 }
  - { offsetInCU: 0x40001, offset: 0x40001, size: 0x8, addend: 0x0, symName: __ZN4Pika6ScriptINS_9StdConfigEE12UnaryFunctorINSt3__125pointer_to_unary_functionIRKNS2_5FrameENS_8STLValueINS4_12basic_stringIcNS4_11char_traitsIcEENS4_9allocatorIcEEEEEEEES8_SG_ED1Ev, symObjAddr: 0x33F14, symBinAddr: 0x100038520, symSize: 0x2C }
  - { offsetInCU: 0x4002E, offset: 0x4002E, size: 0x8, addend: 0x0, symName: __ZN4Pika6ScriptINS_9StdConfigEE12UnaryFunctorINSt3__125pointer_to_unary_functionIRKNS2_5FrameENS_8STLValueINS4_12basic_stringIcNS4_11char_traitsIcEENS4_9allocatorIcEEEEEEEES8_SG_ED0Ev, symObjAddr: 0x33F40, symBinAddr: 0x10003854C, symSize: 0x58 }
  - { offsetInCU: 0x4005B, offset: 0x4005B, size: 0x8, addend: 0x0, symName: __ZN4Pika6ScriptINS_9StdConfigEE12UnaryFunctorINSt3__125pointer_to_unary_functionIRKNS2_5FrameENS_8STLValueINS4_12basic_stringIcNS4_11char_traitsIcEENS4_9allocatorIcEEEEEEEES8_SG_E4callIS7_SG_EESG_RT_RKNS_4DumbIT0_EE, symObjAddr: 0x33F98, symBinAddr: 0x1000385A4, symSize: 0x3C }
  - { offsetInCU: 0x400AE, offset: 0x400AE, size: 0x8, addend: 0x0, symName: __ZN4Pika6ScriptINS_9StdConfigEE12UnaryFunctorINSt3__125pointer_to_unary_functionIRKNS2_5FrameENS_8STLValueINS4_12basic_stringIcNS4_11char_traitsIcEENS4_9allocatorIcEEEEEEEES8_SG_E3argERS6_RKNS_4DumbIS8_EE, symObjAddr: 0x33FD4, symBinAddr: 0x1000385E0, symSize: 0x1C }
  - { offsetInCU: 0x400EF, offset: 0x400EF, size: 0x8, addend: 0x0, symName: __ZNKSt3__125pointer_to_unary_functionIRKN4Pika6ScriptINS1_9StdConfigEE5FrameENS1_8STLValueINS_12basic_stringIcNS_11char_traitsIcEENS_9allocatorIcEEEEEEEclB8ue170006ES7_, symObjAddr: 0x33FF0, symBinAddr: 0x1000385FC, symSize: 0x38 }
  - { offsetInCU: 0x40123, offset: 0x40123, size: 0x8, addend: 0x0, symName: __ZN4Pika6ScriptINS_9StdConfigEE12UnaryFunctorINSt3__125pointer_to_unary_functionIRKNS2_5FrameENS_8STLValueINS4_12basic_stringIcNS4_11char_traitsIcEENS4_9allocatorIcEEEEEEEES8_SG_ED2Ev, symObjAddr: 0x34028, symBinAddr: 0x100038634, symSize: 0x2C }
  - { offsetInCU: 0x40150, offset: 0x40150, size: 0x8, addend: 0x0, symName: __ZNSt3__125pointer_to_unary_functionIRKN4Pika6ScriptINS1_9StdConfigEE5FrameENS1_8STLValueINS_12basic_stringIcNS_11char_traitsIcEENS_9allocatorIcEEEEEEEC1B8ue170006EPFSF_S7_E, symObjAddr: 0x34054, symBinAddr: 0x100038660, symSize: 0x34 }
  - { offsetInCU: 0x40188, offset: 0x40188, size: 0x8, addend: 0x0, symName: __ZNSt3__125pointer_to_unary_functionIRKN4Pika6ScriptINS1_9StdConfigEE5FrameENS1_8STLValueINS_12basic_stringIcNS_11char_traitsIcEENS_9allocatorIcEEEEEEEC2B8ue170006EPFSF_S7_E, symObjAddr: 0x34088, symBinAddr: 0x100038694, symSize: 0x20 }
  - { offsetInCU: 0x401CF, offset: 0x401CF, size: 0x8, addend: 0x0, symName: __ZN4Pika6ScriptINS_9StdConfigEE16newBinaryFunctorINSt3__126pointer_to_binary_functionIRKNS4_12basic_stringIcNS4_11char_traitsIcEENS4_9allocatorIcEEEESD_mEEEEPNS2_13BinaryFunctorIT_NSG_19first_argument_typeENSG_20second_argument_typeENSG_11result_typeEEERKSG_, symObjAddr: 0x340A8, symBinAddr: 0x1000386B4, symSize: 0x5C }
  - { offsetInCU: 0x401FC, offset: 0x401FC, size: 0x8, addend: 0x0, symName: __ZN4Pika6ScriptINS_9StdConfigEE13BinaryFunctorINSt3__126pointer_to_binary_functionIRKNS4_12basic_stringIcNS4_11char_traitsIcEENS4_9allocatorIcEEEESD_mEESD_SD_mEC1ERKSE_, symObjAddr: 0x34130, symBinAddr: 0x10003873C, symSize: 0x34 }
  - { offsetInCU: 0x40235, offset: 0x40235, size: 0x8, addend: 0x0, symName: __ZN4Pika6ScriptINS_9StdConfigEE13BinaryFunctorINSt3__126pointer_to_binary_functionIRKNS4_12basic_stringIcNS4_11char_traitsIcEENS4_9allocatorIcEEEESD_mEESD_SD_mEC2ERKSE_, symObjAddr: 0x34164, symBinAddr: 0x100038770, symSize: 0x54 }
  - { offsetInCU: 0x4026E, offset: 0x4026E, size: 0x8, addend: 0x0, symName: __ZN4Pika6ScriptINS_9StdConfigEE13BinaryFunctorINSt3__126pointer_to_binary_functionIRKNS4_12basic_stringIcNS4_11char_traitsIcEENS4_9allocatorIcEEEESD_mEESD_SD_mE8pikaCallERNS2_5FrameE, symObjAddr: 0x341B8, symBinAddr: 0x1000387C4, symSize: 0x170 }
  - { offsetInCU: 0x402A3, offset: 0x402A3, size: 0x8, addend: 0x0, symName: __ZN4Pika6ScriptINS_9StdConfigEE13BinaryFunctorINSt3__126pointer_to_binary_functionIRKNS4_12basic_stringIcNS4_11char_traitsIcEENS4_9allocatorIcEEEESD_mEESD_SD_mED1Ev, symObjAddr: 0x34328, symBinAddr: 0x100038934, symSize: 0x2C }
  - { offsetInCU: 0x402D0, offset: 0x402D0, size: 0x8, addend: 0x0, symName: __ZN4Pika6ScriptINS_9StdConfigEE13BinaryFunctorINSt3__126pointer_to_binary_functionIRKNS4_12basic_stringIcNS4_11char_traitsIcEENS4_9allocatorIcEEEESD_mEESD_SD_mED0Ev, symObjAddr: 0x34354, symBinAddr: 0x100038960, symSize: 0x58 }
  - { offsetInCU: 0x40307, offset: 0x40307, size: 0x8, addend: 0x0, symName: __ZN4Pika6ScriptINS_9StdConfigEE13BinaryFunctorINSt3__126pointer_to_binary_functionIRKNS4_12basic_stringIcNS4_11char_traitsIcEENS4_9allocatorIcEEEESD_mEESD_SD_mE4callINS_4DumbImEEEENS_8STLValueISB_EERKSK_SM_RKT_, symObjAddr: 0x343AC, symBinAddr: 0x1000389B8, symSize: 0x50 }
  - { offsetInCU: 0x40360, offset: 0x40360, size: 0x8, addend: 0x0, symName: __ZNKSt3__126pointer_to_binary_functionIRKNS_12basic_stringIcNS_11char_traitsIcEENS_9allocatorIcEEEES8_mEclB8ue170006ES8_S8_, symObjAddr: 0x343FC, symBinAddr: 0x100038A08, symSize: 0x38 }
  - { offsetInCU: 0x403A2, offset: 0x403A2, size: 0x8, addend: 0x0, symName: __ZN4Pika6ScriptINS_9StdConfigEE13BinaryFunctorINSt3__126pointer_to_binary_functionIRKNS4_12basic_stringIcNS4_11char_traitsIcEENS4_9allocatorIcEEEESD_mEESD_SD_mED2Ev, symObjAddr: 0x34434, symBinAddr: 0x100038A40, symSize: 0x2C }
  - { offsetInCU: 0x403CF, offset: 0x403CF, size: 0x8, addend: 0x0, symName: __ZNSt3__126pointer_to_binary_functionIRKNS_12basic_stringIcNS_11char_traitsIcEENS_9allocatorIcEEEES8_mEC1B8ue170006EPFmS8_S8_E, symObjAddr: 0x34460, symBinAddr: 0x100038A6C, symSize: 0x34 }
  - { offsetInCU: 0x40407, offset: 0x40407, size: 0x8, addend: 0x0, symName: __ZNSt3__126pointer_to_binary_functionIRKNS_12basic_stringIcNS_11char_traitsIcEENS_9allocatorIcEEEES8_mEC2B8ue170006EPFmS8_S8_E, symObjAddr: 0x34494, symBinAddr: 0x100038AA0, symSize: 0x20 }
  - { offsetInCU: 0x4044E, offset: 0x4044E, size: 0x8, addend: 0x0, symName: __ZN4Pika6ScriptINS_9StdConfigEE15newUnaryFunctorINSt3__125pointer_to_unary_functionIRNS2_5FrameEvEEEEPNS2_12UnaryFunctorIT_NSA_13argument_typeENSA_11result_typeEEERKSA_, symObjAddr: 0x344B4, symBinAddr: 0x100038AC0, symSize: 0x5C }
  - { offsetInCU: 0x4047B, offset: 0x4047B, size: 0x8, addend: 0x0, symName: __ZN4Pika6ScriptINS_9StdConfigEE12UnaryFunctorINSt3__125pointer_to_unary_functionIRNS2_5FrameEvEES7_vEC1ERKS8_, symObjAddr: 0x3453C, symBinAddr: 0x100038B48, symSize: 0x34 }
  - { offsetInCU: 0x404B4, offset: 0x404B4, size: 0x8, addend: 0x0, symName: __ZN4Pika6ScriptINS_9StdConfigEE12UnaryFunctorINSt3__125pointer_to_unary_functionIRNS2_5FrameEvEES7_vEC2ERKS8_, symObjAddr: 0x34570, symBinAddr: 0x100038B7C, symSize: 0x54 }
  - { offsetInCU: 0x404ED, offset: 0x404ED, size: 0x8, addend: 0x0, symName: __ZN4Pika6ScriptINS_9StdConfigEE12UnaryFunctorINSt3__125pointer_to_unary_functionIRNS2_5FrameEvEES7_vE8pikaCallES7_, symObjAddr: 0x345C4, symBinAddr: 0x100038BD0, symSize: 0x50 }
  - { offsetInCU: 0x40522, offset: 0x40522, size: 0x8, addend: 0x0, symName: __ZN4Pika6ScriptINS_9StdConfigEE12UnaryFunctorINSt3__125pointer_to_unary_functionIRNS2_5FrameEvEES7_vED1Ev, symObjAddr: 0x34614, symBinAddr: 0x100038C20, symSize: 0x2C }
  - { offsetInCU: 0x4054F, offset: 0x4054F, size: 0x8, addend: 0x0, symName: __ZN4Pika6ScriptINS_9StdConfigEE12UnaryFunctorINSt3__125pointer_to_unary_functionIRNS2_5FrameEvEES7_vED0Ev, symObjAddr: 0x34640, symBinAddr: 0x100038C4C, symSize: 0x58 }
  - { offsetInCU: 0x4057C, offset: 0x4057C, size: 0x8, addend: 0x0, symName: __ZN4Pika6ScriptINS_9StdConfigEE12UnaryFunctorINSt3__125pointer_to_unary_functionIRNS2_5FrameEvEES7_vE4callIS6_EENS_8STLValueINS4_12basic_stringIcNS4_11char_traitsIcEENS4_9allocatorIcEEEEEERT_RKNS_4DumbIvEE, symObjAddr: 0x34698, symBinAddr: 0x100038CA4, symSize: 0x44 }
  - { offsetInCU: 0x405C6, offset: 0x405C6, size: 0x8, addend: 0x0, symName: __ZN4Pika6ScriptINS_9StdConfigEE12UnaryFunctorINSt3__125pointer_to_unary_functionIRNS2_5FrameEvEES7_vE3argES7_RKNS_4DumbIS7_EE, symObjAddr: 0x346DC, symBinAddr: 0x100038CE8, symSize: 0x1C }
  - { offsetInCU: 0x40607, offset: 0x40607, size: 0x8, addend: 0x0, symName: __ZNKSt3__125pointer_to_unary_functionIRN4Pika6ScriptINS1_9StdConfigEE5FrameEvEclB8ue170006ES6_, symObjAddr: 0x346F8, symBinAddr: 0x100038D04, symSize: 0x30 }
  - { offsetInCU: 0x4063B, offset: 0x4063B, size: 0x8, addend: 0x0, symName: __ZN4Pika6ScriptINS_9StdConfigEE12UnaryFunctorINSt3__125pointer_to_unary_functionIRNS2_5FrameEvEES7_vED2Ev, symObjAddr: 0x34728, symBinAddr: 0x100038D34, symSize: 0x2C }
  - { offsetInCU: 0x40668, offset: 0x40668, size: 0x8, addend: 0x0, symName: __ZNSt3__125pointer_to_unary_functionIRN4Pika6ScriptINS1_9StdConfigEE5FrameEvEC1B8ue170006EPFvS6_E, symObjAddr: 0x34754, symBinAddr: 0x100038D60, symSize: 0x34 }
  - { offsetInCU: 0x406A0, offset: 0x406A0, size: 0x8, addend: 0x0, symName: __ZNSt3__125pointer_to_unary_functionIRN4Pika6ScriptINS1_9StdConfigEE5FrameEvEC2B8ue170006EPFvS6_E, symObjAddr: 0x34788, symBinAddr: 0x100038D94, symSize: 0x20 }
  - { offsetInCU: 0x406D8, offset: 0x406D8, size: 0x8, addend: 0x0, symName: __ZN4Pika8STLValueINSt3__112basic_stringIcNS1_11char_traitsIcEENS1_9allocatorIcEEEEEC2IA79_cEERKT_, symObjAddr: 0x347A8, symBinAddr: 0x100038DB4, symSize: 0x34 }
  - { offsetInCU: 0x40728, offset: 0x40728, size: 0x8, addend: 0x0, symName: __ZN4Pika6ScriptINS_9StdConfigEE15newUnaryFunctorINSt3__125pointer_to_unary_functionIRKNS4_12basic_stringIcNS4_11char_traitsIcEENS4_9allocatorIcEEEEmEEEEPNS2_12UnaryFunctorIT_NSG_13argument_typeENSG_11result_typeEEERKSG_, symObjAddr: 0x347DC, symBinAddr: 0x100038DE8, symSize: 0x5C }
  - { offsetInCU: 0x40755, offset: 0x40755, size: 0x8, addend: 0x0, symName: __ZN4Pika6ScriptINS_9StdConfigEE12UnaryFunctorINSt3__125pointer_to_unary_functionIRKNS4_12basic_stringIcNS4_11char_traitsIcEENS4_9allocatorIcEEEEmEESD_mEC1ERKSE_, symObjAddr: 0x34864, symBinAddr: 0x100038E70, symSize: 0x34 }
  - { offsetInCU: 0x4078E, offset: 0x4078E, size: 0x8, addend: 0x0, symName: __ZN4Pika6ScriptINS_9StdConfigEE12UnaryFunctorINSt3__125pointer_to_unary_functionIRKNS4_12basic_stringIcNS4_11char_traitsIcEENS4_9allocatorIcEEEEmEESD_mEC2ERKSE_, symObjAddr: 0x34898, symBinAddr: 0x100038EA4, symSize: 0x54 }
  - { offsetInCU: 0x407C7, offset: 0x407C7, size: 0x8, addend: 0x0, symName: __ZN4Pika6ScriptINS_9StdConfigEE12UnaryFunctorINSt3__125pointer_to_unary_functionIRKNS4_12basic_stringIcNS4_11char_traitsIcEENS4_9allocatorIcEEEEmEESD_mE8pikaCallERNS2_5FrameE, symObjAddr: 0x348EC, symBinAddr: 0x100038EF8, symSize: 0x8C }
  - { offsetInCU: 0x407FC, offset: 0x407FC, size: 0x8, addend: 0x0, symName: __ZN4Pika6ScriptINS_9StdConfigEE12UnaryFunctorINSt3__125pointer_to_unary_functionIRKNS4_12basic_stringIcNS4_11char_traitsIcEENS4_9allocatorIcEEEEmEESD_mED1Ev, symObjAddr: 0x34978, symBinAddr: 0x100038F84, symSize: 0x2C }
  - { offsetInCU: 0x40829, offset: 0x40829, size: 0x8, addend: 0x0, symName: __ZN4Pika6ScriptINS_9StdConfigEE12UnaryFunctorINSt3__125pointer_to_unary_functionIRKNS4_12basic_stringIcNS4_11char_traitsIcEENS4_9allocatorIcEEEEmEESD_mED0Ev, symObjAddr: 0x349A4, symBinAddr: 0x100038FB0, symSize: 0x58 }
  - { offsetInCU: 0x40856, offset: 0x40856, size: 0x8, addend: 0x0, symName: __ZN4Pika6ScriptINS_9StdConfigEE12UnaryFunctorINSt3__125pointer_to_unary_functionIRKNS4_12basic_stringIcNS4_11char_traitsIcEENS4_9allocatorIcEEEEmEESD_mE4callIKNS_8STLValueISB_EEmEESI_RT_RKNS_4DumbIT0_EE, symObjAddr: 0x349FC, symBinAddr: 0x100039008, symSize: 0x48 }
  - { offsetInCU: 0x408A9, offset: 0x408A9, size: 0x8, addend: 0x0, symName: __ZN4Pika6ScriptINS_9StdConfigEE12UnaryFunctorINSt3__125pointer_to_unary_functionIRKNS4_12basic_stringIcNS4_11char_traitsIcEENS4_9allocatorIcEEEEmEESD_mE3argINS_4DumbISD_EEEEKNS_8STLValueISB_EERNS2_5FrameERKT_, symObjAddr: 0x34A44, symBinAddr: 0x100039050, symSize: 0x94 }
  - { offsetInCU: 0x408F3, offset: 0x408F3, size: 0x8, addend: 0x0, symName: __ZNKSt3__125pointer_to_unary_functionIRKNS_12basic_stringIcNS_11char_traitsIcEENS_9allocatorIcEEEEmEclB8ue170006ES8_, symObjAddr: 0x34AD8, symBinAddr: 0x1000390E4, symSize: 0x30 }
  - { offsetInCU: 0x40927, offset: 0x40927, size: 0x8, addend: 0x0, symName: __ZN4Pika6ScriptINS_9StdConfigEE12UnaryFunctorINSt3__125pointer_to_unary_functionIRKNS4_12basic_stringIcNS4_11char_traitsIcEENS4_9allocatorIcEEEEmEESD_mED2Ev, symObjAddr: 0x34B08, symBinAddr: 0x100039114, symSize: 0x2C }
  - { offsetInCU: 0x40954, offset: 0x40954, size: 0x8, addend: 0x0, symName: __ZNSt3__125pointer_to_unary_functionIRKNS_12basic_stringIcNS_11char_traitsIcEENS_9allocatorIcEEEEmEC1B8ue170006EPFmS8_E, symObjAddr: 0x34B34, symBinAddr: 0x100039140, symSize: 0x34 }
  - { offsetInCU: 0x4098C, offset: 0x4098C, size: 0x8, addend: 0x0, symName: __ZNSt3__125pointer_to_unary_functionIRKNS_12basic_stringIcNS_11char_traitsIcEENS_9allocatorIcEEEEmEC2B8ue170006EPFmS8_E, symObjAddr: 0x34B68, symBinAddr: 0x100039174, symSize: 0x20 }
  - { offsetInCU: 0x409D3, offset: 0x409D3, size: 0x8, addend: 0x0, symName: __ZN4Pika6ScriptINS_9StdConfigEE15newUnaryFunctorINSt3__125pointer_to_unary_functionINS4_12basic_stringIcNS4_11char_traitsIcEENS4_9allocatorIcEEEESB_EEEEPNS2_12UnaryFunctorIT_NSE_13argument_typeENSE_11result_typeEEERKSE_, symObjAddr: 0x34B88, symBinAddr: 0x100039194, symSize: 0x5C }
  - { offsetInCU: 0x40A00, offset: 0x40A00, size: 0x8, addend: 0x0, symName: __ZN4Pika6ScriptINS_9StdConfigEE12UnaryFunctorINSt3__125pointer_to_unary_functionINS4_12basic_stringIcNS4_11char_traitsIcEENS4_9allocatorIcEEEESB_EESB_SB_EC1ERKSC_, symObjAddr: 0x34C10, symBinAddr: 0x10003921C, symSize: 0x34 }
  - { offsetInCU: 0x40A39, offset: 0x40A39, size: 0x8, addend: 0x0, symName: __ZN4Pika6ScriptINS_9StdConfigEE12UnaryFunctorINSt3__125pointer_to_unary_functionINS4_12basic_stringIcNS4_11char_traitsIcEENS4_9allocatorIcEEEESB_EESB_SB_EC2ERKSC_, symObjAddr: 0x34C44, symBinAddr: 0x100039250, symSize: 0x54 }
  - { offsetInCU: 0x40A72, offset: 0x40A72, size: 0x8, addend: 0x0, symName: __ZN4Pika6ScriptINS_9StdConfigEE12UnaryFunctorINSt3__125pointer_to_unary_functionINS4_12basic_stringIcNS4_11char_traitsIcEENS4_9allocatorIcEEEESB_EESB_SB_E8pikaCallERNS2_5FrameE, symObjAddr: 0x34C98, symBinAddr: 0x1000392A4, symSize: 0x8C }
  - { offsetInCU: 0x40AA7, offset: 0x40AA7, size: 0x8, addend: 0x0, symName: __ZN4Pika6ScriptINS_9StdConfigEE12UnaryFunctorINSt3__125pointer_to_unary_functionINS4_12basic_stringIcNS4_11char_traitsIcEENS4_9allocatorIcEEEESB_EESB_SB_ED1Ev, symObjAddr: 0x34D24, symBinAddr: 0x100039330, symSize: 0x2C }
  - { offsetInCU: 0x40AD4, offset: 0x40AD4, size: 0x8, addend: 0x0, symName: __ZN4Pika6ScriptINS_9StdConfigEE12UnaryFunctorINSt3__125pointer_to_unary_functionINS4_12basic_stringIcNS4_11char_traitsIcEENS4_9allocatorIcEEEESB_EESB_SB_ED0Ev, symObjAddr: 0x34D50, symBinAddr: 0x10003935C, symSize: 0x58 }
  - { offsetInCU: 0x40B01, offset: 0x40B01, size: 0x8, addend: 0x0, symName: __ZN4Pika6ScriptINS_9StdConfigEE12UnaryFunctorINSt3__125pointer_to_unary_functionINS4_12basic_stringIcNS4_11char_traitsIcEENS4_9allocatorIcEEEESB_EESB_SB_E4callIKNS_8STLValueISB_EESB_EESG_RT_RKNS_4DumbIT0_EE, symObjAddr: 0x34DA8, symBinAddr: 0x1000393B4, symSize: 0xC8 }
  - { offsetInCU: 0x40B54, offset: 0x40B54, size: 0x8, addend: 0x0, symName: __ZN4Pika6ScriptINS_9StdConfigEE12UnaryFunctorINSt3__125pointer_to_unary_functionINS4_12basic_stringIcNS4_11char_traitsIcEENS4_9allocatorIcEEEESB_EESB_SB_E3argINS_4DumbISB_EEEEKNS_8STLValueISB_EERNS2_5FrameERKT_, symObjAddr: 0x34E70, symBinAddr: 0x10003947C, symSize: 0x94 }
  - { offsetInCU: 0x40B9E, offset: 0x40B9E, size: 0x8, addend: 0x0, symName: __ZNKSt3__125pointer_to_unary_functionINS_12basic_stringIcNS_11char_traitsIcEENS_9allocatorIcEEEES6_EclB8ue170006ES6_, symObjAddr: 0x34F04, symBinAddr: 0x100039510, symSize: 0x88 }
  - { offsetInCU: 0x40BD3, offset: 0x40BD3, size: 0x8, addend: 0x0, symName: __ZN4Pika6ScriptINS_9StdConfigEE12UnaryFunctorINSt3__125pointer_to_unary_functionINS4_12basic_stringIcNS4_11char_traitsIcEENS4_9allocatorIcEEEESB_EESB_SB_ED2Ev, symObjAddr: 0x34F8C, symBinAddr: 0x100039598, symSize: 0x2C }
  - { offsetInCU: 0x40C00, offset: 0x40C00, size: 0x8, addend: 0x0, symName: __ZNSt3__125pointer_to_unary_functionINS_12basic_stringIcNS_11char_traitsIcEENS_9allocatorIcEEEES6_EC1B8ue170006EPFS6_S6_E, symObjAddr: 0x34FB8, symBinAddr: 0x1000395C4, symSize: 0x34 }
  - { offsetInCU: 0x40C38, offset: 0x40C38, size: 0x8, addend: 0x0, symName: __ZNSt3__125pointer_to_unary_functionINS_12basic_stringIcNS_11char_traitsIcEENS_9allocatorIcEEEES6_EC2B8ue170006EPFS6_S6_E, symObjAddr: 0x34FEC, symBinAddr: 0x1000395F8, symSize: 0x20 }
  - { offsetInCU: 0x40C7F, offset: 0x40C7F, size: 0x8, addend: 0x0, symName: __ZN4Pika6ScriptINS_9StdConfigEE15newUnaryFunctorINSt3__125pointer_to_unary_functionIRKNS4_12basic_stringIcNS4_11char_traitsIcEENS4_9allocatorIcEEEEjEEEEPNS2_12UnaryFunctorIT_NSG_13argument_typeENSG_11result_typeEEERKSG_, symObjAddr: 0x3500C, symBinAddr: 0x100039618, symSize: 0x5C }
  - { offsetInCU: 0x40CAC, offset: 0x40CAC, size: 0x8, addend: 0x0, symName: __ZN4Pika6ScriptINS_9StdConfigEE12UnaryFunctorINSt3__125pointer_to_unary_functionIRKNS4_12basic_stringIcNS4_11char_traitsIcEENS4_9allocatorIcEEEEjEESD_jEC1ERKSE_, symObjAddr: 0x35094, symBinAddr: 0x1000396A0, symSize: 0x34 }
  - { offsetInCU: 0x40CE5, offset: 0x40CE5, size: 0x8, addend: 0x0, symName: __ZN4Pika6ScriptINS_9StdConfigEE12UnaryFunctorINSt3__125pointer_to_unary_functionIRKNS4_12basic_stringIcNS4_11char_traitsIcEENS4_9allocatorIcEEEEjEESD_jEC2ERKSE_, symObjAddr: 0x350C8, symBinAddr: 0x1000396D4, symSize: 0x54 }
  - { offsetInCU: 0x40D1E, offset: 0x40D1E, size: 0x8, addend: 0x0, symName: __ZN4Pika6ScriptINS_9StdConfigEE12UnaryFunctorINSt3__125pointer_to_unary_functionIRKNS4_12basic_stringIcNS4_11char_traitsIcEENS4_9allocatorIcEEEEjEESD_jE8pikaCallERNS2_5FrameE, symObjAddr: 0x3511C, symBinAddr: 0x100039728, symSize: 0x8C }
  - { offsetInCU: 0x40D53, offset: 0x40D53, size: 0x8, addend: 0x0, symName: __ZN4Pika6ScriptINS_9StdConfigEE12UnaryFunctorINSt3__125pointer_to_unary_functionIRKNS4_12basic_stringIcNS4_11char_traitsIcEENS4_9allocatorIcEEEEjEESD_jED1Ev, symObjAddr: 0x351A8, symBinAddr: 0x1000397B4, symSize: 0x2C }
  - { offsetInCU: 0x40D80, offset: 0x40D80, size: 0x8, addend: 0x0, symName: __ZN4Pika6ScriptINS_9StdConfigEE12UnaryFunctorINSt3__125pointer_to_unary_functionIRKNS4_12basic_stringIcNS4_11char_traitsIcEENS4_9allocatorIcEEEEjEESD_jED0Ev, symObjAddr: 0x351D4, symBinAddr: 0x1000397E0, symSize: 0x58 }
  - { offsetInCU: 0x40DB7, offset: 0x40DB7, size: 0x8, addend: 0x0, symName: __ZN4Pika6ScriptINS_9StdConfigEE12UnaryFunctorINSt3__125pointer_to_unary_functionIRKNS4_12basic_stringIcNS4_11char_traitsIcEENS4_9allocatorIcEEEEjEESD_jE4callIKNS_8STLValueISB_EEjEESI_RT_RKNS_4DumbIT0_EE, symObjAddr: 0x3522C, symBinAddr: 0x100039838, symSize: 0x48 }
  - { offsetInCU: 0x40E0A, offset: 0x40E0A, size: 0x8, addend: 0x0, symName: __ZN4Pika6ScriptINS_9StdConfigEE12UnaryFunctorINSt3__125pointer_to_unary_functionIRKNS4_12basic_stringIcNS4_11char_traitsIcEENS4_9allocatorIcEEEEjEESD_jE3argINS_4DumbISD_EEEEKNS_8STLValueISB_EERNS2_5FrameERKT_, symObjAddr: 0x35274, symBinAddr: 0x100039880, symSize: 0x94 }
  - { offsetInCU: 0x40E54, offset: 0x40E54, size: 0x8, addend: 0x0, symName: __ZNKSt3__125pointer_to_unary_functionIRKNS_12basic_stringIcNS_11char_traitsIcEENS_9allocatorIcEEEEjEclB8ue170006ES8_, symObjAddr: 0x35308, symBinAddr: 0x100039914, symSize: 0x30 }
  - { offsetInCU: 0x40E88, offset: 0x40E88, size: 0x8, addend: 0x0, symName: __ZN4Pika8STLValueINSt3__112basic_stringIcNS1_11char_traitsIcEENS1_9allocatorIcEEEEEC1Ej, symObjAddr: 0x35338, symBinAddr: 0x100039944, symSize: 0x34 }
  - { offsetInCU: 0x40EC0, offset: 0x40EC0, size: 0x8, addend: 0x0, symName: __ZN4Pika8STLValueINSt3__112basic_stringIcNS1_11char_traitsIcEENS1_9allocatorIcEEEEEC2Ej, symObjAddr: 0x3536C, symBinAddr: 0x100039978, symSize: 0x88 }
  - { offsetInCU: 0x40EF8, offset: 0x40EF8, size: 0x8, addend: 0x0, symName: __ZN4Pika6ScriptINS_9StdConfigEE12UnaryFunctorINSt3__125pointer_to_unary_functionIRKNS4_12basic_stringIcNS4_11char_traitsIcEENS4_9allocatorIcEEEEjEESD_jED2Ev, symObjAddr: 0x353F4, symBinAddr: 0x100039A00, symSize: 0x2C }
  - { offsetInCU: 0x40F25, offset: 0x40F25, size: 0x8, addend: 0x0, symName: __ZNSt3__125pointer_to_unary_functionIRKNS_12basic_stringIcNS_11char_traitsIcEENS_9allocatorIcEEEEjEC1B8ue170006EPFjS8_E, symObjAddr: 0x35420, symBinAddr: 0x100039A2C, symSize: 0x34 }
  - { offsetInCU: 0x40F5D, offset: 0x40F5D, size: 0x8, addend: 0x0, symName: __ZNSt3__125pointer_to_unary_functionIRKNS_12basic_stringIcNS_11char_traitsIcEENS_9allocatorIcEEEEjEC2B8ue170006EPFjS8_E, symObjAddr: 0x35454, symBinAddr: 0x100039A60, symSize: 0x20 }
  - { offsetInCU: 0x40FA4, offset: 0x40FA4, size: 0x8, addend: 0x0, symName: __ZN4Pika6ScriptINS_9StdConfigEE15newUnaryFunctorINSt3__125pointer_to_unary_functionIRNS2_5FrameEmEEEEPNS2_12UnaryFunctorIT_NSA_13argument_typeENSA_11result_typeEEERKSA_, symObjAddr: 0x35474, symBinAddr: 0x100039A80, symSize: 0x5C }
  - { offsetInCU: 0x40FD1, offset: 0x40FD1, size: 0x8, addend: 0x0, symName: __ZN4Pika6ScriptINS_9StdConfigEE12UnaryFunctorINSt3__125pointer_to_unary_functionIRNS2_5FrameEmEES7_mEC1ERKS8_, symObjAddr: 0x354FC, symBinAddr: 0x100039B08, symSize: 0x34 }
  - { offsetInCU: 0x4100A, offset: 0x4100A, size: 0x8, addend: 0x0, symName: __ZN4Pika6ScriptINS_9StdConfigEE12UnaryFunctorINSt3__125pointer_to_unary_functionIRNS2_5FrameEmEES7_mEC2ERKS8_, symObjAddr: 0x35530, symBinAddr: 0x100039B3C, symSize: 0x54 }
  - { offsetInCU: 0x41043, offset: 0x41043, size: 0x8, addend: 0x0, symName: __ZN4Pika6ScriptINS_9StdConfigEE12UnaryFunctorINSt3__125pointer_to_unary_functionIRNS2_5FrameEmEES7_mE8pikaCallES7_, symObjAddr: 0x35584, symBinAddr: 0x100039B90, symSize: 0x50 }
  - { offsetInCU: 0x41078, offset: 0x41078, size: 0x8, addend: 0x0, symName: __ZN4Pika6ScriptINS_9StdConfigEE12UnaryFunctorINSt3__125pointer_to_unary_functionIRNS2_5FrameEmEES7_mED1Ev, symObjAddr: 0x355D4, symBinAddr: 0x100039BE0, symSize: 0x2C }
  - { offsetInCU: 0x410A5, offset: 0x410A5, size: 0x8, addend: 0x0, symName: __ZN4Pika6ScriptINS_9StdConfigEE12UnaryFunctorINSt3__125pointer_to_unary_functionIRNS2_5FrameEmEES7_mED0Ev, symObjAddr: 0x35600, symBinAddr: 0x100039C0C, symSize: 0x58 }
  - { offsetInCU: 0x410D2, offset: 0x410D2, size: 0x8, addend: 0x0, symName: __ZN4Pika6ScriptINS_9StdConfigEE12UnaryFunctorINSt3__125pointer_to_unary_functionIRNS2_5FrameEmEES7_mE4callIS6_mEENS_8STLValueINS4_12basic_stringIcNS4_11char_traitsIcEENS4_9allocatorIcEEEEEERT_RKNS_4DumbIT0_EE, symObjAddr: 0x35658, symBinAddr: 0x100039C64, symSize: 0x48 }
  - { offsetInCU: 0x41125, offset: 0x41125, size: 0x8, addend: 0x0, symName: __ZN4Pika6ScriptINS_9StdConfigEE12UnaryFunctorINSt3__125pointer_to_unary_functionIRNS2_5FrameEmEES7_mE3argES7_RKNS_4DumbIS7_EE, symObjAddr: 0x356A0, symBinAddr: 0x100039CAC, symSize: 0x1C }
  - { offsetInCU: 0x41166, offset: 0x41166, size: 0x8, addend: 0x0, symName: __ZNKSt3__125pointer_to_unary_functionIRN4Pika6ScriptINS1_9StdConfigEE5FrameEmEclB8ue170006ES6_, symObjAddr: 0x356BC, symBinAddr: 0x100039CC8, symSize: 0x30 }
  - { offsetInCU: 0x4119A, offset: 0x4119A, size: 0x8, addend: 0x0, symName: __ZN4Pika6ScriptINS_9StdConfigEE12UnaryFunctorINSt3__125pointer_to_unary_functionIRNS2_5FrameEmEES7_mED2Ev, symObjAddr: 0x356EC, symBinAddr: 0x100039CF8, symSize: 0x2C }
  - { offsetInCU: 0x411C7, offset: 0x411C7, size: 0x8, addend: 0x0, symName: __ZNSt3__125pointer_to_unary_functionIRN4Pika6ScriptINS1_9StdConfigEE5FrameEmEC1B8ue170006EPFmS6_E, symObjAddr: 0x35718, symBinAddr: 0x100039D24, symSize: 0x34 }
  - { offsetInCU: 0x411FF, offset: 0x411FF, size: 0x8, addend: 0x0, symName: __ZNSt3__125pointer_to_unary_functionIRN4Pika6ScriptINS1_9StdConfigEE5FrameEmEC2B8ue170006EPFmS6_E, symObjAddr: 0x3574C, symBinAddr: 0x100039D58, symSize: 0x20 }
  - { offsetInCU: 0x41246, offset: 0x41246, size: 0x8, addend: 0x0, symName: __ZN4Pika6ScriptINS_9StdConfigEE15newUnaryFunctorINSt3__125pointer_to_unary_functionIRKNS2_5FrameENS4_12basic_stringIcNS4_11char_traitsIcEENS4_9allocatorIcEEEEEEEEPNS2_12UnaryFunctorIT_NSH_13argument_typeENSH_11result_typeEEERKSH_, symObjAddr: 0x3576C, symBinAddr: 0x100039D78, symSize: 0x5C }
  - { offsetInCU: 0x41273, offset: 0x41273, size: 0x8, addend: 0x0, symName: __ZN4Pika6ScriptINS_9StdConfigEE12UnaryFunctorINSt3__125pointer_to_unary_functionIRKNS2_5FrameENS4_12basic_stringIcNS4_11char_traitsIcEENS4_9allocatorIcEEEEEES8_SE_EC1ERKSF_, symObjAddr: 0x357F4, symBinAddr: 0x100039E00, symSize: 0x34 }
  - { offsetInCU: 0x412AC, offset: 0x412AC, size: 0x8, addend: 0x0, symName: __ZN4Pika6ScriptINS_9StdConfigEE12UnaryFunctorINSt3__125pointer_to_unary_functionIRKNS2_5FrameENS4_12basic_stringIcNS4_11char_traitsIcEENS4_9allocatorIcEEEEEES8_SE_EC2ERKSF_, symObjAddr: 0x35828, symBinAddr: 0x100039E34, symSize: 0x54 }
  - { offsetInCU: 0x412E5, offset: 0x412E5, size: 0x8, addend: 0x0, symName: __ZN4Pika6ScriptINS_9StdConfigEE12UnaryFunctorINSt3__125pointer_to_unary_functionIRKNS2_5FrameENS4_12basic_stringIcNS4_11char_traitsIcEENS4_9allocatorIcEEEEEES8_SE_E8pikaCallERS6_, symObjAddr: 0x3587C, symBinAddr: 0x100039E88, symSize: 0x50 }
  - { offsetInCU: 0x4131A, offset: 0x4131A, size: 0x8, addend: 0x0, symName: __ZN4Pika6ScriptINS_9StdConfigEE12UnaryFunctorINSt3__125pointer_to_unary_functionIRKNS2_5FrameENS4_12basic_stringIcNS4_11char_traitsIcEENS4_9allocatorIcEEEEEES8_SE_ED1Ev, symObjAddr: 0x358CC, symBinAddr: 0x100039ED8, symSize: 0x2C }
  - { offsetInCU: 0x41347, offset: 0x41347, size: 0x8, addend: 0x0, symName: __ZN4Pika6ScriptINS_9StdConfigEE12UnaryFunctorINSt3__125pointer_to_unary_functionIRKNS2_5FrameENS4_12basic_stringIcNS4_11char_traitsIcEENS4_9allocatorIcEEEEEES8_SE_ED0Ev, symObjAddr: 0x358F8, symBinAddr: 0x100039F04, symSize: 0x58 }
  - { offsetInCU: 0x41374, offset: 0x41374, size: 0x8, addend: 0x0, symName: __ZN4Pika6ScriptINS_9StdConfigEE12UnaryFunctorINSt3__125pointer_to_unary_functionIRKNS2_5FrameENS4_12basic_stringIcNS4_11char_traitsIcEENS4_9allocatorIcEEEEEES8_SE_E4callIS7_SE_EENS_8STLValueISE_EERT_RKNS_4DumbIT0_EE, symObjAddr: 0x35950, symBinAddr: 0x100039F5C, symSize: 0x84 }
  - { offsetInCU: 0x413C7, offset: 0x413C7, size: 0x8, addend: 0x0, symName: __ZN4Pika6ScriptINS_9StdConfigEE12UnaryFunctorINSt3__125pointer_to_unary_functionIRKNS2_5FrameENS4_12basic_stringIcNS4_11char_traitsIcEENS4_9allocatorIcEEEEEES8_SE_E3argERS6_RKNS_4DumbIS8_EE, symObjAddr: 0x359D4, symBinAddr: 0x100039FE0, symSize: 0x1C }
  - { offsetInCU: 0x41408, offset: 0x41408, size: 0x8, addend: 0x0, symName: __ZNKSt3__125pointer_to_unary_functionIRKN4Pika6ScriptINS1_9StdConfigEE5FrameENS_12basic_stringIcNS_11char_traitsIcEENS_9allocatorIcEEEEEclB8ue170006ES7_, symObjAddr: 0x359F0, symBinAddr: 0x100039FFC, symSize: 0x38 }
  - { offsetInCU: 0x4143C, offset: 0x4143C, size: 0x8, addend: 0x0, symName: __ZN4Pika6ScriptINS_9StdConfigEE12UnaryFunctorINSt3__125pointer_to_unary_functionIRKNS2_5FrameENS4_12basic_stringIcNS4_11char_traitsIcEENS4_9allocatorIcEEEEEES8_SE_ED2Ev, symObjAddr: 0x35A28, symBinAddr: 0x10003A034, symSize: 0x2C }
  - { offsetInCU: 0x41469, offset: 0x41469, size: 0x8, addend: 0x0, symName: __ZNSt3__125pointer_to_unary_functionIRKN4Pika6ScriptINS1_9StdConfigEE5FrameENS_12basic_stringIcNS_11char_traitsIcEENS_9allocatorIcEEEEEC1B8ue170006EPFSD_S7_E, symObjAddr: 0x35A54, symBinAddr: 0x10003A060, symSize: 0x34 }
  - { offsetInCU: 0x414A1, offset: 0x414A1, size: 0x8, addend: 0x0, symName: __ZNSt3__125pointer_to_unary_functionIRKN4Pika6ScriptINS1_9StdConfigEE5FrameENS_12basic_stringIcNS_11char_traitsIcEENS_9allocatorIcEEEEEC2B8ue170006EPFSD_S7_E, symObjAddr: 0x35A88, symBinAddr: 0x10003A094, symSize: 0x20 }
  - { offsetInCU: 0x414E8, offset: 0x414E8, size: 0x8, addend: 0x0, symName: __ZN4Pika6ScriptINS_9StdConfigEE15newUnaryFunctorINSt3__125pointer_to_unary_functionIRKNS4_12basic_stringIcNS4_11char_traitsIcEENS4_9allocatorIcEEEEvEEEEPNS2_12UnaryFunctorIT_NSG_13argument_typeENSG_11result_typeEEERKSG_, symObjAddr: 0x35AA8, symBinAddr: 0x10003A0B4, symSize: 0x5C }
  - { offsetInCU: 0x41515, offset: 0x41515, size: 0x8, addend: 0x0, symName: __ZN4Pika6ScriptINS_9StdConfigEE12UnaryFunctorINSt3__125pointer_to_unary_functionIRKNS4_12basic_stringIcNS4_11char_traitsIcEENS4_9allocatorIcEEEEvEESD_vEC1ERKSE_, symObjAddr: 0x35B30, symBinAddr: 0x10003A13C, symSize: 0x34 }
  - { offsetInCU: 0x4154E, offset: 0x4154E, size: 0x8, addend: 0x0, symName: __ZN4Pika6ScriptINS_9StdConfigEE12UnaryFunctorINSt3__125pointer_to_unary_functionIRKNS4_12basic_stringIcNS4_11char_traitsIcEENS4_9allocatorIcEEEEvEESD_vEC2ERKSE_, symObjAddr: 0x35B64, symBinAddr: 0x10003A170, symSize: 0x54 }
  - { offsetInCU: 0x41587, offset: 0x41587, size: 0x8, addend: 0x0, symName: __ZN4Pika6ScriptINS_9StdConfigEE12UnaryFunctorINSt3__125pointer_to_unary_functionIRKNS4_12basic_stringIcNS4_11char_traitsIcEENS4_9allocatorIcEEEEvEESD_vE8pikaCallERNS2_5FrameE, symObjAddr: 0x35BB8, symBinAddr: 0x10003A1C4, symSize: 0x8C }
  - { offsetInCU: 0x415BC, offset: 0x415BC, size: 0x8, addend: 0x0, symName: __ZN4Pika6ScriptINS_9StdConfigEE12UnaryFunctorINSt3__125pointer_to_unary_functionIRKNS4_12basic_stringIcNS4_11char_traitsIcEENS4_9allocatorIcEEEEvEESD_vED1Ev, symObjAddr: 0x35C44, symBinAddr: 0x10003A250, symSize: 0x2C }
  - { offsetInCU: 0x415E9, offset: 0x415E9, size: 0x8, addend: 0x0, symName: __ZN4Pika6ScriptINS_9StdConfigEE12UnaryFunctorINSt3__125pointer_to_unary_functionIRKNS4_12basic_stringIcNS4_11char_traitsIcEENS4_9allocatorIcEEEEvEESD_vED0Ev, symObjAddr: 0x35C70, symBinAddr: 0x10003A27C, symSize: 0x58 }
  - { offsetInCU: 0x41616, offset: 0x41616, size: 0x8, addend: 0x0, symName: __ZN4Pika6ScriptINS_9StdConfigEE12UnaryFunctorINSt3__125pointer_to_unary_functionIRKNS4_12basic_stringIcNS4_11char_traitsIcEENS4_9allocatorIcEEEEvEESD_vE4callIKNS_8STLValueISB_EEEESI_RT_RKNS_4DumbIvEE, symObjAddr: 0x35CC8, symBinAddr: 0x10003A2D4, symSize: 0x44 }
  - { offsetInCU: 0x41660, offset: 0x41660, size: 0x8, addend: 0x0, symName: __ZN4Pika6ScriptINS_9StdConfigEE12UnaryFunctorINSt3__125pointer_to_unary_functionIRKNS4_12basic_stringIcNS4_11char_traitsIcEENS4_9allocatorIcEEEEvEESD_vE3argINS_4DumbISD_EEEEKNS_8STLValueISB_EERNS2_5FrameERKT_, symObjAddr: 0x35D0C, symBinAddr: 0x10003A318, symSize: 0x94 }
  - { offsetInCU: 0x416AA, offset: 0x416AA, size: 0x8, addend: 0x0, symName: __ZNKSt3__125pointer_to_unary_functionIRKNS_12basic_stringIcNS_11char_traitsIcEENS_9allocatorIcEEEEvEclB8ue170006ES8_, symObjAddr: 0x35DA0, symBinAddr: 0x10003A3AC, symSize: 0x30 }
  - { offsetInCU: 0x416DE, offset: 0x416DE, size: 0x8, addend: 0x0, symName: __ZN4Pika6ScriptINS_9StdConfigEE12UnaryFunctorINSt3__125pointer_to_unary_functionIRKNS4_12basic_stringIcNS4_11char_traitsIcEENS4_9allocatorIcEEEEvEESD_vED2Ev, symObjAddr: 0x35DD0, symBinAddr: 0x10003A3DC, symSize: 0x2C }
  - { offsetInCU: 0x4170B, offset: 0x4170B, size: 0x8, addend: 0x0, symName: __ZNSt3__125pointer_to_unary_functionIRKNS_12basic_stringIcNS_11char_traitsIcEENS_9allocatorIcEEEEvEC1B8ue170006EPFvS8_E, symObjAddr: 0x35DFC, symBinAddr: 0x10003A408, symSize: 0x34 }
  - { offsetInCU: 0x41743, offset: 0x41743, size: 0x8, addend: 0x0, symName: __ZNSt3__125pointer_to_unary_functionIRKNS_12basic_stringIcNS_11char_traitsIcEENS_9allocatorIcEEEEvEC2B8ue170006EPFvS8_E, symObjAddr: 0x35E30, symBinAddr: 0x10003A43C, symSize: 0x20 }
  - { offsetInCU: 0x4178A, offset: 0x4178A, size: 0x8, addend: 0x0, symName: __ZN4Pika6ScriptINS_9StdConfigEE16newBinaryFunctorINSt3__126pointer_to_binary_functionIRKNS4_12basic_stringIcNS4_11char_traitsIcEENS4_9allocatorIcEEEESD_vEEEEPNS2_13BinaryFunctorIT_NSG_19first_argument_typeENSG_20second_argument_typeENSG_11result_typeEEERKSG_, symObjAddr: 0x35E50, symBinAddr: 0x10003A45C, symSize: 0x5C }
  - { offsetInCU: 0x417B7, offset: 0x417B7, size: 0x8, addend: 0x0, symName: __ZN4Pika6ScriptINS_9StdConfigEE13BinaryFunctorINSt3__126pointer_to_binary_functionIRKNS4_12basic_stringIcNS4_11char_traitsIcEENS4_9allocatorIcEEEESD_vEESD_SD_vEC1ERKSE_, symObjAddr: 0x35ED8, symBinAddr: 0x10003A4E4, symSize: 0x34 }
  - { offsetInCU: 0x417F0, offset: 0x417F0, size: 0x8, addend: 0x0, symName: __ZN4Pika6ScriptINS_9StdConfigEE13BinaryFunctorINSt3__126pointer_to_binary_functionIRKNS4_12basic_stringIcNS4_11char_traitsIcEENS4_9allocatorIcEEEESD_vEESD_SD_vEC2ERKSE_, symObjAddr: 0x35F0C, symBinAddr: 0x10003A518, symSize: 0x54 }
  - { offsetInCU: 0x41829, offset: 0x41829, size: 0x8, addend: 0x0, symName: __ZN4Pika6ScriptINS_9StdConfigEE13BinaryFunctorINSt3__126pointer_to_binary_functionIRKNS4_12basic_stringIcNS4_11char_traitsIcEENS4_9allocatorIcEEEESD_vEESD_SD_vE8pikaCallERNS2_5FrameE, symObjAddr: 0x35F60, symBinAddr: 0x10003A56C, symSize: 0x170 }
  - { offsetInCU: 0x4185E, offset: 0x4185E, size: 0x8, addend: 0x0, symName: __ZN4Pika6ScriptINS_9StdConfigEE13BinaryFunctorINSt3__126pointer_to_binary_functionIRKNS4_12basic_stringIcNS4_11char_traitsIcEENS4_9allocatorIcEEEESD_vEESD_SD_vED1Ev, symObjAddr: 0x360D0, symBinAddr: 0x10003A6DC, symSize: 0x2C }
  - { offsetInCU: 0x4188B, offset: 0x4188B, size: 0x8, addend: 0x0, symName: __ZN4Pika6ScriptINS_9StdConfigEE13BinaryFunctorINSt3__126pointer_to_binary_functionIRKNS4_12basic_stringIcNS4_11char_traitsIcEENS4_9allocatorIcEEEESD_vEESD_SD_vED0Ev, symObjAddr: 0x360FC, symBinAddr: 0x10003A708, symSize: 0x58 }
  - { offsetInCU: 0x418B8, offset: 0x418B8, size: 0x8, addend: 0x0, symName: __ZN4Pika6ScriptINS_9StdConfigEE13BinaryFunctorINSt3__126pointer_to_binary_functionIRKNS4_12basic_stringIcNS4_11char_traitsIcEENS4_9allocatorIcEEEESD_vEESD_SD_vE4callERKNS_8STLValueISB_EESJ_RKNS_4DumbIvEE, symObjAddr: 0x36154, symBinAddr: 0x10003A760, symSize: 0x4C }
  - { offsetInCU: 0x41908, offset: 0x41908, size: 0x8, addend: 0x0, symName: __ZNKSt3__126pointer_to_binary_functionIRKNS_12basic_stringIcNS_11char_traitsIcEENS_9allocatorIcEEEES8_vEclB8ue170006ES8_S8_, symObjAddr: 0x361A0, symBinAddr: 0x10003A7AC, symSize: 0x38 }
  - { offsetInCU: 0x4194A, offset: 0x4194A, size: 0x8, addend: 0x0, symName: __ZN4Pika6ScriptINS_9StdConfigEE13BinaryFunctorINSt3__126pointer_to_binary_functionIRKNS4_12basic_stringIcNS4_11char_traitsIcEENS4_9allocatorIcEEEESD_vEESD_SD_vED2Ev, symObjAddr: 0x361D8, symBinAddr: 0x10003A7E4, symSize: 0x2C }
  - { offsetInCU: 0x41977, offset: 0x41977, size: 0x8, addend: 0x0, symName: __ZNSt3__126pointer_to_binary_functionIRKNS_12basic_stringIcNS_11char_traitsIcEENS_9allocatorIcEEEES8_vEC1B8ue170006EPFvS8_S8_E, symObjAddr: 0x36204, symBinAddr: 0x10003A810, symSize: 0x34 }
  - { offsetInCU: 0x419AF, offset: 0x419AF, size: 0x8, addend: 0x0, symName: __ZNSt3__126pointer_to_binary_functionIRKNS_12basic_stringIcNS_11char_traitsIcEENS_9allocatorIcEEEES8_vEC2B8ue170006EPFvS8_S8_E, symObjAddr: 0x36238, symBinAddr: 0x10003A844, symSize: 0x20 }
  - { offsetInCU: 0x419F6, offset: 0x419F6, size: 0x8, addend: 0x0, symName: __ZN4Pika6ScriptINS_9StdConfigEE15newUnaryFunctorINSt3__125pointer_to_unary_functionIRKNS4_12basic_stringIcNS4_11char_traitsIcEENS4_9allocatorIcEEEEiEEEEPNS2_12UnaryFunctorIT_NSG_13argument_typeENSG_11result_typeEEERKSG_, symObjAddr: 0x36258, symBinAddr: 0x10003A864, symSize: 0x5C }
  - { offsetInCU: 0x41A23, offset: 0x41A23, size: 0x8, addend: 0x0, symName: __ZN4Pika6ScriptINS_9StdConfigEE12UnaryFunctorINSt3__125pointer_to_unary_functionIRKNS4_12basic_stringIcNS4_11char_traitsIcEENS4_9allocatorIcEEEEiEESD_iEC1ERKSE_, symObjAddr: 0x362E0, symBinAddr: 0x10003A8EC, symSize: 0x34 }
  - { offsetInCU: 0x41A5C, offset: 0x41A5C, size: 0x8, addend: 0x0, symName: __ZN4Pika6ScriptINS_9StdConfigEE12UnaryFunctorINSt3__125pointer_to_unary_functionIRKNS4_12basic_stringIcNS4_11char_traitsIcEENS4_9allocatorIcEEEEiEESD_iEC2ERKSE_, symObjAddr: 0x36314, symBinAddr: 0x10003A920, symSize: 0x54 }
  - { offsetInCU: 0x41A95, offset: 0x41A95, size: 0x8, addend: 0x0, symName: __ZN4Pika6ScriptINS_9StdConfigEE12UnaryFunctorINSt3__125pointer_to_unary_functionIRKNS4_12basic_stringIcNS4_11char_traitsIcEENS4_9allocatorIcEEEEiEESD_iE8pikaCallERNS2_5FrameE, symObjAddr: 0x36368, symBinAddr: 0x10003A974, symSize: 0x8C }
  - { offsetInCU: 0x41ACA, offset: 0x41ACA, size: 0x8, addend: 0x0, symName: __ZN4Pika6ScriptINS_9StdConfigEE12UnaryFunctorINSt3__125pointer_to_unary_functionIRKNS4_12basic_stringIcNS4_11char_traitsIcEENS4_9allocatorIcEEEEiEESD_iED1Ev, symObjAddr: 0x363F4, symBinAddr: 0x10003AA00, symSize: 0x2C }
  - { offsetInCU: 0x41AF7, offset: 0x41AF7, size: 0x8, addend: 0x0, symName: __ZN4Pika6ScriptINS_9StdConfigEE12UnaryFunctorINSt3__125pointer_to_unary_functionIRKNS4_12basic_stringIcNS4_11char_traitsIcEENS4_9allocatorIcEEEEiEESD_iED0Ev, symObjAddr: 0x36420, symBinAddr: 0x10003AA2C, symSize: 0x58 }
  - { offsetInCU: 0x41B2E, offset: 0x41B2E, size: 0x8, addend: 0x0, symName: __ZN4Pika6ScriptINS_9StdConfigEE12UnaryFunctorINSt3__125pointer_to_unary_functionIRKNS4_12basic_stringIcNS4_11char_traitsIcEENS4_9allocatorIcEEEEiEESD_iE4callIKNS_8STLValueISB_EEiEESI_RT_RKNS_4DumbIT0_EE, symObjAddr: 0x36478, symBinAddr: 0x10003AA84, symSize: 0x48 }
  - { offsetInCU: 0x41B81, offset: 0x41B81, size: 0x8, addend: 0x0, symName: __ZN4Pika6ScriptINS_9StdConfigEE12UnaryFunctorINSt3__125pointer_to_unary_functionIRKNS4_12basic_stringIcNS4_11char_traitsIcEENS4_9allocatorIcEEEEiEESD_iE3argINS_4DumbISD_EEEEKNS_8STLValueISB_EERNS2_5FrameERKT_, symObjAddr: 0x364C0, symBinAddr: 0x10003AACC, symSize: 0x94 }
  - { offsetInCU: 0x41BCB, offset: 0x41BCB, size: 0x8, addend: 0x0, symName: __ZNKSt3__125pointer_to_unary_functionIRKNS_12basic_stringIcNS_11char_traitsIcEENS_9allocatorIcEEEEiEclB8ue170006ES8_, symObjAddr: 0x36554, symBinAddr: 0x10003AB60, symSize: 0x30 }
  - { offsetInCU: 0x41BFF, offset: 0x41BFF, size: 0x8, addend: 0x0, symName: __ZN4Pika6ScriptINS_9StdConfigEE12UnaryFunctorINSt3__125pointer_to_unary_functionIRKNS4_12basic_stringIcNS4_11char_traitsIcEENS4_9allocatorIcEEEEiEESD_iED2Ev, symObjAddr: 0x36584, symBinAddr: 0x10003AB90, symSize: 0x2C }
  - { offsetInCU: 0x41C2C, offset: 0x41C2C, size: 0x8, addend: 0x0, symName: __ZNSt3__125pointer_to_unary_functionIRKNS_12basic_stringIcNS_11char_traitsIcEENS_9allocatorIcEEEEiEC1B8ue170006EPFiS8_E, symObjAddr: 0x365B0, symBinAddr: 0x10003ABBC, symSize: 0x34 }
  - { offsetInCU: 0x41C64, offset: 0x41C64, size: 0x8, addend: 0x0, symName: __ZNSt3__125pointer_to_unary_functionIRKNS_12basic_stringIcNS_11char_traitsIcEENS_9allocatorIcEEEEiEC2B8ue170006EPFiS8_E, symObjAddr: 0x365E4, symBinAddr: 0x10003ABF0, symSize: 0x20 }
  - { offsetInCU: 0x41CAB, offset: 0x41CAB, size: 0x8, addend: 0x0, symName: __ZN4Pika6ScriptINS_9StdConfigEE15newUnaryFunctorINSt3__125pointer_to_unary_functionIRKNS2_5FrameEvEEEEPNS2_12UnaryFunctorIT_NSB_13argument_typeENSB_11result_typeEEERKSB_, symObjAddr: 0x36604, symBinAddr: 0x10003AC10, symSize: 0x5C }
  - { offsetInCU: 0x41CD8, offset: 0x41CD8, size: 0x8, addend: 0x0, symName: __ZN4Pika6ScriptINS_9StdConfigEE12UnaryFunctorINSt3__125pointer_to_unary_functionIRKNS2_5FrameEvEES8_vEC1ERKS9_, symObjAddr: 0x3668C, symBinAddr: 0x10003AC98, symSize: 0x34 }
  - { offsetInCU: 0x41D11, offset: 0x41D11, size: 0x8, addend: 0x0, symName: __ZN4Pika6ScriptINS_9StdConfigEE12UnaryFunctorINSt3__125pointer_to_unary_functionIRKNS2_5FrameEvEES8_vEC2ERKS9_, symObjAddr: 0x366C0, symBinAddr: 0x10003ACCC, symSize: 0x54 }
  - { offsetInCU: 0x41D4A, offset: 0x41D4A, size: 0x8, addend: 0x0, symName: __ZN4Pika6ScriptINS_9StdConfigEE12UnaryFunctorINSt3__125pointer_to_unary_functionIRKNS2_5FrameEvEES8_vE8pikaCallERS6_, symObjAddr: 0x36714, symBinAddr: 0x10003AD20, symSize: 0x50 }
  - { offsetInCU: 0x41D7F, offset: 0x41D7F, size: 0x8, addend: 0x0, symName: __ZN4Pika6ScriptINS_9StdConfigEE12UnaryFunctorINSt3__125pointer_to_unary_functionIRKNS2_5FrameEvEES8_vED1Ev, symObjAddr: 0x36764, symBinAddr: 0x10003AD70, symSize: 0x2C }
  - { offsetInCU: 0x41DAC, offset: 0x41DAC, size: 0x8, addend: 0x0, symName: __ZN4Pika6ScriptINS_9StdConfigEE12UnaryFunctorINSt3__125pointer_to_unary_functionIRKNS2_5FrameEvEES8_vED0Ev, symObjAddr: 0x36790, symBinAddr: 0x10003AD9C, symSize: 0x58 }
  - { offsetInCU: 0x41DD9, offset: 0x41DD9, size: 0x8, addend: 0x0, symName: __ZN4Pika6ScriptINS_9StdConfigEE12UnaryFunctorINSt3__125pointer_to_unary_functionIRKNS2_5FrameEvEES8_vE4callIS7_EENS_8STLValueINS4_12basic_stringIcNS4_11char_traitsIcEENS4_9allocatorIcEEEEEERT_RKNS_4DumbIvEE, symObjAddr: 0x367E8, symBinAddr: 0x10003ADF4, symSize: 0x44 }
  - { offsetInCU: 0x41E23, offset: 0x41E23, size: 0x8, addend: 0x0, symName: __ZN4Pika6ScriptINS_9StdConfigEE12UnaryFunctorINSt3__125pointer_to_unary_functionIRKNS2_5FrameEvEES8_vE3argERS6_RKNS_4DumbIS8_EE, symObjAddr: 0x3682C, symBinAddr: 0x10003AE38, symSize: 0x1C }
  - { offsetInCU: 0x41E64, offset: 0x41E64, size: 0x8, addend: 0x0, symName: __ZNKSt3__125pointer_to_unary_functionIRKN4Pika6ScriptINS1_9StdConfigEE5FrameEvEclB8ue170006ES7_, symObjAddr: 0x36848, symBinAddr: 0x10003AE54, symSize: 0x30 }
  - { offsetInCU: 0x41E98, offset: 0x41E98, size: 0x8, addend: 0x0, symName: __ZN4Pika6ScriptINS_9StdConfigEE12UnaryFunctorINSt3__125pointer_to_unary_functionIRKNS2_5FrameEvEES8_vED2Ev, symObjAddr: 0x36878, symBinAddr: 0x10003AE84, symSize: 0x2C }
  - { offsetInCU: 0x41EC5, offset: 0x41EC5, size: 0x8, addend: 0x0, symName: __ZNSt3__125pointer_to_unary_functionIRKN4Pika6ScriptINS1_9StdConfigEE5FrameEvEC1B8ue170006EPFvS7_E, symObjAddr: 0x368A4, symBinAddr: 0x10003AEB0, symSize: 0x34 }
  - { offsetInCU: 0x41EFD, offset: 0x41EFD, size: 0x8, addend: 0x0, symName: __ZNSt3__125pointer_to_unary_functionIRKN4Pika6ScriptINS1_9StdConfigEE5FrameEvEC2B8ue170006EPFvS7_E, symObjAddr: 0x368D8, symBinAddr: 0x10003AEE4, symSize: 0x20 }
  - { offsetInCU: 0x41F35, offset: 0x41F35, size: 0x8, addend: 0x0, symName: __ZN8QStrings7QStringIcLm52EEC2Ev, symObjAddr: 0x368F8, symBinAddr: 0x10003AF04, symSize: 0x4C }
  - { offsetInCU: 0x41F61, offset: 0x41F61, size: 0x8, addend: 0x0, symName: __ZN8QStrings7QStringIcLm52EEC2ILm4EEERAT__Kc, symObjAddr: 0x36944, symBinAddr: 0x10003AF50, symSize: 0x50 }
  - { offsetInCU: 0x41FA6, offset: 0x41FA6, size: 0x8, addend: 0x0, symName: __ZN8QStrings7QStringIcLm52EE6appendEPKcm, symObjAddr: 0x36994, symBinAddr: 0x10003AFA0, symSize: 0x280 }
  - { offsetInCU: 0x41FFB, offset: 0x41FFB, size: 0x8, addend: 0x0, symName: __ZN8QStrings7QStringIcLm52EE9copycharsEPcPKcm, symObjAddr: 0x36C14, symBinAddr: 0x10003B220, symSize: 0x34 }
  - { offsetInCU: 0x4203D, offset: 0x4203D, size: 0x8, addend: 0x0, symName: __ZN8QStrings7QStringIcLm52EEC1ERKS1_mm, symObjAddr: 0x36C48, symBinAddr: 0x10003B254, symSize: 0x44 }
  - { offsetInCU: 0x42096, offset: 0x42096, size: 0x8, addend: 0x0, symName: __ZN8QStrings7QStringIcLm52EEC2ERKS1_mm, symObjAddr: 0x36C8C, symBinAddr: 0x10003B298, symSize: 0xF8 }
  - { offsetInCU: 0x420EF, offset: 0x420EF, size: 0x8, addend: 0x0, symName: __ZNK8QStrings7QStringIcLm52EE6concatEPKcm, symObjAddr: 0x36D84, symBinAddr: 0x10003B390, symSize: 0x1B4 }
  - { offsetInCU: 0x42145, offset: 0x42145, size: 0x8, addend: 0x0, symName: __ZN8QStrings7QStringIcLm52EEC2ILm44EEERAT__Kc, symObjAddr: 0x36F38, symBinAddr: 0x10003B544, symSize: 0x50 }
  - { offsetInCU: 0x4218A, offset: 0x4218A, size: 0x8, addend: 0x0, symName: __ZN8QStrings7QStringIcLm52EEC2ILm45EEERAT__Kc, symObjAddr: 0x36F88, symBinAddr: 0x10003B594, symSize: 0x50 }
  - { offsetInCU: 0x421CF, offset: 0x421CF, size: 0x8, addend: 0x0, symName: __ZN8QStrings7QStringIcLm52EEC2ILm43EEERAT__Kc, symObjAddr: 0x36FD8, symBinAddr: 0x10003B5E4, symSize: 0x50 }
  - { offsetInCU: 0x42214, offset: 0x42214, size: 0x8, addend: 0x0, symName: __ZN8QStrings7QStringIcLm52EEC2ILm1EEERAT__Kc, symObjAddr: 0x37028, symBinAddr: 0x10003B634, symSize: 0x4C }
  - { offsetInCU: 0x42259, offset: 0x42259, size: 0x8, addend: 0x0, symName: __ZN8QStrings7QStringIcLm52EE9_iteratorIKcKS1_EC1EPS3_PS4_, symObjAddr: 0x37074, symBinAddr: 0x10003B680, symSize: 0x3C }
  - { offsetInCU: 0x422A1, offset: 0x422A1, size: 0x8, addend: 0x0, symName: __ZN8QStrings7QStringIcLm52EE9_iteratorIKcKS1_EC2EPS3_PS4_, symObjAddr: 0x370B0, symBinAddr: 0x10003B6BC, symSize: 0x2C }
  - { offsetInCU: 0x422E9, offset: 0x422E9, size: 0x8, addend: 0x0, symName: __ZNK8QStrings7QStringIcLm52EE4dataEv, symObjAddr: 0x370DC, symBinAddr: 0x10003B6E8, symSize: 0x18 }
  - { offsetInCU: 0x42311, offset: 0x42311, size: 0x8, addend: 0x0, symName: __ZN8QStrings7QStringIcLm52EEC2EPKcmm, symObjAddr: 0x370F4, symBinAddr: 0x10003B700, symSize: 0x84 }
  - { offsetInCU: 0x4236A, offset: 0x4236A, size: 0x8, addend: 0x0, symName: __ZN8QStrings7QStringIcLm52EE9newBufferEmPKcm, symObjAddr: 0x37178, symBinAddr: 0x10003B784, symSize: 0x11C }
  - { offsetInCU: 0x423BF, offset: 0x423BF, size: 0x8, addend: 0x0, symName: __ZN8QStrings7QStringIcLm52EE6BuffernwEm, symObjAddr: 0x37294, symBinAddr: 0x10003B8A0, symSize: 0xA8 }
  - { offsetInCU: 0x423F2, offset: 0x423F2, size: 0x8, addend: 0x0, symName: __ZN8QStrings7QStringIcLm52EEC2ENS1_9_iteratorIKcKS1_EES5_, symObjAddr: 0x3733C, symBinAddr: 0x10003B948, symSize: 0x180 }
  - { offsetInCU: 0x4243C, offset: 0x4243C, size: 0x8, addend: 0x0, symName: __ZN8QStrings7QStringIcLm52EEC2ILm3EEERAT__Kc, symObjAddr: 0x374BC, symBinAddr: 0x10003BAC8, symSize: 0x50 }
  - { offsetInCU: 0x42481, offset: 0x42481, size: 0x8, addend: 0x0, symName: __ZN8QStrings7QStringIcLm52EEC2ILm6EEERAT__Kc, symObjAddr: 0x3750C, symBinAddr: 0x10003BB18, symSize: 0x50 }
  - { offsetInCU: 0x424C6, offset: 0x424C6, size: 0x8, addend: 0x0, symName: __ZNK8QStrings7QStringIcLm52EE7unshareEv, symObjAddr: 0x3755C, symBinAddr: 0x10003BB68, symSize: 0x70 }
  - { offsetInCU: 0x424EE, offset: 0x424EE, size: 0x8, addend: 0x0, symName: __ZN8QStrings7QStringIcLm52EE9_iteratorIcS1_EC1EPcPS1_, symObjAddr: 0x375CC, symBinAddr: 0x10003BBD8, symSize: 0x3C }
  - { offsetInCU: 0x42536, offset: 0x42536, size: 0x8, addend: 0x0, symName: __ZN8QStrings7QStringIcLm52EE9_iteratorIcS1_EC2EPcPS1_, symObjAddr: 0x37608, symBinAddr: 0x10003BC14, symSize: 0x2C }
  - { offsetInCU: 0x4257E, offset: 0x4257E, size: 0x8, addend: 0x0, symName: __ZN8QStrings7QStringIcLm52EEC2ERKNSt3__112basic_stringIcNS2_11char_traitsIcEENS2_9allocatorIcEEEE, symObjAddr: 0x37634, symBinAddr: 0x10003BC40, symSize: 0x54 }
  - { offsetInCU: 0x425B9, offset: 0x425B9, size: 0x8, addend: 0x0, symName: __ZN8QStrings7QStringIcLm52EEC2ILm11EEERAT__Kc, symObjAddr: 0x37688, symBinAddr: 0x10003BC94, symSize: 0x50 }
  - { offsetInCU: 0x425FE, offset: 0x425FE, size: 0x8, addend: 0x0, symName: __ZNSt3__14pairIN8QStrings7QStringIcLm52EEES3_EC2B8ue170006ERKS3_S6_, symObjAddr: 0x376D8, symBinAddr: 0x10003BCE4, symSize: 0x48 }
  - { offsetInCU: 0x42644, offset: 0x42644, size: 0x8, addend: 0x0, symName: __ZN8QStrings7QStringIcLm52EEC2ILm13EEERAT__Kc, symObjAddr: 0x37720, symBinAddr: 0x10003BD2C, symSize: 0x50 }
  - { offsetInCU: 0x42689, offset: 0x42689, size: 0x8, addend: 0x0, symName: __ZN8QStrings7QStringIcLm52EEC2ILm10EEERAT__Kc, symObjAddr: 0x37770, symBinAddr: 0x10003BD7C, symSize: 0x50 }
  - { offsetInCU: 0x426CE, offset: 0x426CE, size: 0x8, addend: 0x0, symName: __ZN8QStrings7QStringIcLm52EEC2ILm17EEERAT__Kc, symObjAddr: 0x377C0, symBinAddr: 0x10003BDCC, symSize: 0x50 }
  - { offsetInCU: 0x42713, offset: 0x42713, size: 0x8, addend: 0x0, symName: __ZN8QStrings7QStringIcLm52EEC2ILm12EEERAT__Kc, symObjAddr: 0x37810, symBinAddr: 0x10003BE1C, symSize: 0x50 }
  - { offsetInCU: 0x42758, offset: 0x42758, size: 0x8, addend: 0x0, symName: __ZN4Pika9ExceptionIN8QStrings7QStringIcLm52EEEEC2ERKS3_, symObjAddr: 0x37860, symBinAddr: 0x10003BE6C, symSize: 0x98 }
  - { offsetInCU: 0x42790, offset: 0x42790, size: 0x8, addend: 0x0, symName: __ZN4Pika9ExceptionIN8QStrings7QStringIcLm52EEEED0Ev, symObjAddr: 0x378F8, symBinAddr: 0x10003BF04, symSize: 0x30 }
  - { offsetInCU: 0x427BA, offset: 0x427BA, size: 0x8, addend: 0x0, symName: __ZNK4Pika9ExceptionIN8QStrings7QStringIcLm52EEEE4whatEv, symObjAddr: 0x37928, symBinAddr: 0x10003BF34, symSize: 0xA0 }
  - { offsetInCU: 0x427E0, offset: 0x427E0, size: 0x8, addend: 0x0, symName: __ZNK4Pika9ExceptionIN8QStrings7QStringIcLm52EEEE8getErrorEv, symObjAddr: 0x379C8, symBinAddr: 0x10003BFD4, symSize: 0x3C }
  - { offsetInCU: 0x42806, offset: 0x42806, size: 0x8, addend: 0x0, symName: __ZN4Pika9ExceptionIN8QStrings7QStringIcLm52EEEED2Ev, symObjAddr: 0x37A04, symBinAddr: 0x10003C010, symSize: 0x84 }
  - { offsetInCU: 0x42830, offset: 0x42830, size: 0x8, addend: 0x0, symName: __ZNSt3__112basic_stringIcNS_11char_traitsIcEENS_9allocatorIcEEEC1B8ue170006IN8QStrings7QStringIcLm52EE9_iteratorIKcKS9_EELi0EEET_SE_, symObjAddr: 0x37A88, symBinAddr: 0x10003C094, symSize: 0x4C }
  - { offsetInCU: 0x42887, offset: 0x42887, size: 0x8, addend: 0x0, symName: __ZNSt3__112basic_stringIcNS_11char_traitsIcEENS_9allocatorIcEEEC2B8ue170006IN8QStrings7QStringIcLm52EE9_iteratorIKcKS9_EELi0EEET_SE_, symObjAddr: 0x37AD4, symBinAddr: 0x10003C0E0, symSize: 0x6C }
  - { offsetInCU: 0x428DE, offset: 0x428DE, size: 0x8, addend: 0x0, symName: __ZNSt3__112basic_stringIcNS_11char_traitsIcEENS_9allocatorIcEEE6__initIN8QStrings7QStringIcLm52EE9_iteratorIKcKS9_EELi0EEEvT_SE_, symObjAddr: 0x37B40, symBinAddr: 0x10003C14C, symSize: 0x8C }
  - { offsetInCU: 0x42942, offset: 0x42942, size: 0x8, addend: 0x0, symName: __ZNSt3__112basic_stringIcNS_11char_traitsIcEENS_9allocatorIcEEE16__init_with_sizeB8ue170006IN8QStrings7QStringIcLm52EE9_iteratorIKcKS9_EESD_EEvT_T0_m, symObjAddr: 0x37C18, symBinAddr: 0x10003C224, symSize: 0x22C }
  - { offsetInCU: 0x429D7, offset: 0x429D7, size: 0x8, addend: 0x0, symName: __ZNSt3__116allocator_traitsINS_9allocatorIcEEE10deallocateB8ue170006ERS2_Pcm, symObjAddr: 0x37E7C, symBinAddr: 0x10003C488, symSize: 0x34 }
  - { offsetInCU: 0x42A19, offset: 0x42A19, size: 0x8, addend: 0x0, symName: __ZNKSt3__112basic_stringIcNS_11char_traitsIcEENS_9allocatorIcEEE14__get_long_capB8ue170006Ev, symObjAddr: 0x37EB0, symBinAddr: 0x10003C4BC, symSize: 0x30 }
  - { offsetInCU: 0x42A3F, offset: 0x42A3F, size: 0x8, addend: 0x0, symName: __ZNSt3__19allocatorIcE10deallocateB8ue170006EPcm, symObjAddr: 0x37EE0, symBinAddr: 0x10003C4EC, symSize: 0x70 }
  - { offsetInCU: 0x42A81, offset: 0x42A81, size: 0x8, addend: 0x0, symName: __ZN8QStrings7QStringIcLm52EEC2ILm31EEERAT__Kc, symObjAddr: 0x37F50, symBinAddr: 0x10003C55C, symSize: 0x50 }
  - { offsetInCU: 0x42AC6, offset: 0x42AC6, size: 0x8, addend: 0x0, symName: __ZNK8QStrings7QStringIcLm52EE9_iteratorIKcKS1_EltIS3_S4_EEbRKNS2_IT_T0_EE, symObjAddr: 0x37FA0, symBinAddr: 0x10003C5AC, symSize: 0x84 }
  - { offsetInCU: 0x42B0D, offset: 0x42B0D, size: 0x8, addend: 0x0, symName: __ZN8QStrings7QStringIcLm52EEpLEc, symObjAddr: 0x38024, symBinAddr: 0x10003C630, symSize: 0x34 }
  - { offsetInCU: 0x42B44, offset: 0x42B44, size: 0x8, addend: 0x0, symName: __ZN8QStrings7QStringIcLm52EEpLILm3EEERS1_RAT__Kc, symObjAddr: 0x3829C, symBinAddr: 0x10003C8A8, symSize: 0x30 }
  - { offsetInCU: 0x42B85, offset: 0x42B85, size: 0x8, addend: 0x0, symName: __ZN4Pika8STLValueIN8QStrings7QStringIcLm52EEEEC2Ev, symObjAddr: 0x38510, symBinAddr: 0x10003CB1C, symSize: 0x2C }
  - { offsetInCU: 0x42BAF, offset: 0x42BAF, size: 0x8, addend: 0x0, symName: __ZNSt3__111char_traitsIcE4findB8ue170006EPKcmRS2_, symObjAddr: 0x38638, symBinAddr: 0x10003CC44, symSize: 0x60 }
  - { offsetInCU: 0x42BEE, offset: 0x42BEE, size: 0x8, addend: 0x0, symName: __ZN4Pika6ScriptI19QuickerScriptConfigE8FullRootC2Eb, symObjAddr: 0x38698, symBinAddr: 0x10003CCA4, symSize: 0xDC }
  - { offsetInCU: 0x42C27, offset: 0x42C27, size: 0x8, addend: 0x0, symName: __ZN4Pika6ScriptI19QuickerScriptConfigE4RootC2ERNS2_9VariablesE, symObjAddr: 0x38774, symBinAddr: 0x10003CD80, symSize: 0xDC }
  - { offsetInCU: 0x42C62, offset: 0x42C62, size: 0x8, addend: 0x0, symName: __ZN4Pika9QuickVarsINS_6ScriptI19QuickerScriptConfigE12STLVariablesELj11EEC2Ev, symObjAddr: 0x38850, symBinAddr: 0x10003CE5C, symSize: 0x108 }
  - { offsetInCU: 0x42C8F, offset: 0x42C8F, size: 0x8, addend: 0x0, symName: __ZN4Pika6ScriptI19QuickerScriptConfigE17addLibraryNativesERNS2_5FrameEb, symObjAddr: 0x38958, symBinAddr: 0x10003CF64, symSize: 0x11D0 }
  - { offsetInCU: 0x42CC4, offset: 0x42CC4, size: 0x8, addend: 0x0, symName: __ZN4Pika6ScriptI19QuickerScriptConfigE8FullRootD0Ev, symObjAddr: 0x39B28, symBinAddr: 0x10003E134, symSize: 0x58 }
  - { offsetInCU: 0x42CF1, offset: 0x42CF1, size: 0x8, addend: 0x0, symName: __ZThn152_N4Pika6ScriptI19QuickerScriptConfigE8FullRootD0Ev, symObjAddr: 0x39B80, symBinAddr: 0x10003E18C, symSize: 0x18 }
  - { offsetInCU: 0x42D08, offset: 0x42D08, size: 0x8, addend: 0x0, symName: __ZN4Pika6ScriptI19QuickerScriptConfigE5FrameC2ERNS2_9VariablesERNS2_4RootEPS3_, symObjAddr: 0x39B98, symBinAddr: 0x10003E1A4, symSize: 0xAC }
  - { offsetInCU: 0x42D61, offset: 0x42D61, size: 0x8, addend: 0x0, symName: __ZN4Pika6ScriptI19QuickerScriptConfigE4Root13generateLabelEv, symObjAddr: 0x39C44, symBinAddr: 0x10003E250, symSize: 0x178 }
  - { offsetInCU: 0x42DA7, offset: 0x42DA7, size: 0x8, addend: 0x0, symName: __ZN4Pika6ScriptI19QuickerScriptConfigE12STLVariablesC2Ev, symObjAddr: 0x39DBC, symBinAddr: 0x10003E3C8, symSize: 0xB0 }
  - { offsetInCU: 0x42DD4, offset: 0x42DD4, size: 0x8, addend: 0x0, symName: __ZNSt3__14pairIN8QStrings7QStringIcLm52EEEN4Pika8STLValueIS3_EEEC1B8ue170006Ev, symObjAddr: 0x39E6C, symBinAddr: 0x10003E478, symSize: 0x2C }
  - { offsetInCU: 0x42DFE, offset: 0x42DFE, size: 0x8, addend: 0x0, symName: __ZN4Pika6ScriptI19QuickerScriptConfigE9VariablesC2Ev, symObjAddr: 0x39E98, symBinAddr: 0x10003E4A4, symSize: 0x24 }
  - { offsetInCU: 0x42E2B, offset: 0x42E2B, size: 0x8, addend: 0x0, symName: __ZNSt3__13mapIKN8QStrings7QStringIcLm52EEEN4Pika8STLValueIS3_EENS_4lessIS4_EENS_9allocatorINS_4pairIS4_S7_EEEEEC1B8ue170006Ev, symObjAddr: 0x39EBC, symBinAddr: 0x10003E4C8, symSize: 0x2C }
  - { offsetInCU: 0x42E55, offset: 0x42E55, size: 0x8, addend: 0x0, symName: __ZNSt3__13mapIKN8QStrings7QStringIcLm52EEEPN4Pika6ScriptI19QuickerScriptConfigE6NativeENS_4lessIS4_EENS_9allocatorINS_4pairIS4_SA_EEEEEC1B8ue170006Ev, symObjAddr: 0x39EE8, symBinAddr: 0x10003E4F4, symSize: 0x2C }
  - { offsetInCU: 0x42E7F, offset: 0x42E7F, size: 0x8, addend: 0x0, symName: __ZN4Pika6ScriptI19QuickerScriptConfigE9VariablesD1Ev, symObjAddr: 0x39F14, symBinAddr: 0x10003E520, symSize: 0x14 }
  - { offsetInCU: 0x42EAB, offset: 0x42EAB, size: 0x8, addend: 0x0, symName: __ZN4Pika6ScriptI19QuickerScriptConfigE9VariablesD0Ev, symObjAddr: 0x39F28, symBinAddr: 0x10003E534, symSize: 0xC }
